
jicama/init:     file format elf32-i386
jicama/init
architecture: i386, flags 0x00000012:
EXEC_P, HAS_SYMS
start address 0x00001000

Program Header:
    LOAD off    0x00000080 vaddr 0x00001000 paddr 0x00001000 align 2**5
         filesz 0x000063d4 memsz 0x000084c4 flags rwx

Sections:
Idx Name          Size      VMA       LMA       File off  Algn
  0 .text         00004a75  00001000  00001000  00000080  2**4
                  CONTENTS, ALLOC, LOAD, READONLY, CODE
  1 .rodata       000014fe  00005a80  00005a80  00004b00  2**5
                  CONTENTS, ALLOC, LOAD, READONLY, DATA
  2 .data         000003d4  00007000  00007000  00006080  2**5
                  CONTENTS, ALLOC, LOAD, DATA
  3 .bss          000020e4  000073e0  000073e0  00006460  2**5
                  ALLOC
  4 .stab         000017d0  00000000  00000000  00006460  2**2
                  CONTENTS, READONLY, DEBUGGING
  5 .stabstr      00002321  00000000  00000000  00007c30  2**0
                  CONTENTS, READONLY, DEBUGGING
  6 .comment      00000024  00000000  00000000  00009f51  2**0
                  CONTENTS, READONLY
SYMBOL TABLE:
00001000 l    d  .text	00000000 
00005a80 l    d  .rodata	00000000 
00007000 l    d  .data	00000000 
000073e0 l    d  .bss	00000000 
00000000 l    d  .stab	00000000 
00000000 l    d  .stabstr	00000000 
00000000 l    d  .comment	00000000 
00000000 l    d  *ABS*	00000000 
00000000 l    d  *ABS*	00000000 
00000000 l    d  *ABS*	00000000 
00000000 l    df *ABS*	00000000 crt0.S
00000000 l    df *ABS*	00000000 init.c
00007000 l     O .data	00000200 pwd
00007200 l     O .data	00000020 shell_table
00007220 l     O .data	00000010 script_table
000073e0 l     O .bss	00000004 busybox_used
000073e4 l     O .bss	00000010 execarg.0
0000137c l     F .text	0000007d prog_execute
00000000 l    df *ABS*	00000000 api.c
000018de l     F .text	0000002b netbas_system_call
00001723 l     F .text	00000021 _opendir
00007400 l     O .bss	00000058 sbuf.0
0000181f l     F .text	00000022 _readdir
00000000 l    df *ABS*	00000000 __uClibc_main.c
00000000 l    df *ABS*	00000000 errno.c
00000000 l    df *ABS*	00000000 stdio.c
00000000 l    df *ABS*	00000000 stdio.c
00000000 l    df *ABS*	00000000 stdio.c
00000000 l    df *ABS*	00000000 printf.c
00000000 l    df *ABS*	00000000 printf.c
00000000 l    df *ABS*	00000000 printf.c
00000000 l    df *ABS*	00000000 printf.c
00000000 l    df *ABS*	00000000 printf.c
00000000 l    df *ABS*	00000000 printf.c
00000000 l    df *ABS*	00000000 string.c
00000000 l    df *ABS*	00000000 wstring.c
00000000 l    df *ABS*	00000000 string.c
00000000 l    df *ABS*	00000000 string.c
00000000 l    df *ABS*	00000000 wstring.c
00000000 l    df *ABS*	00000000 wstring.c
00000000 l    df *ABS*	00000000 wstring.c
00000000 l    df *ABS*	00000000 wstring.c
00000000 l    df *ABS*	00000000 termios.c
00000000 l    df *ABS*	00000000 tcgetattr.c
00000000 l    df *ABS*	00000000 sigaction.c
00000000 l    df *ABS*	00000000 stdlib.c
00000000 l    df *ABS*	00000000 stdlib.c
00000000 l    df *ABS*	00000000 stdlib.c
00000000 l    df *ABS*	00000000 atexit.c
00000000 l    df *ABS*	00000000 setenv.c
00000000 l    df *ABS*	00000000 malloc.c
00000000 l    df *ABS*	00000000 free.c
00000000 l    df *ABS*	00000000 realloc.c
00000000 l    df *ABS*	00000000 heap_alloc.c
00000000 l    df *ABS*	00000000 heap_alloc_at.c
00000000 l    df *ABS*	00000000 heap_free.c
00000000 l    df *ABS*	00000000 getcwd.c
00000000 l    df *ABS*	00000000 wait.c
00000000 l    df *ABS*	00000000 _exit.c
00000000 l    df *ABS*	00000000 sbrk.c
00000000 l    df *ABS*	00000000 syscalls.c
00000000 l    df *ABS*	00000000 syscalls.c
00000000 l    df *ABS*	00000000 syscalls.c
00000000 l    df *ABS*	00000000 syscalls.c
00000000 l    df *ABS*	00000000 syscalls.c
00000000 l    df *ABS*	00000000 syscalls.c
00000000 l    df *ABS*	00000000 syscalls.c
00000000 l    df *ABS*	00000000 syscalls.c
00000000 l    df *ABS*	00000000 syscalls.c
00000000 l    df *ABS*	00000000 syscalls.c
00000000 l    df *ABS*	00000000 syscalls.c
00000000 l    df *ABS*	00000000 syscalls.c
00000000 l    df *ABS*	00000000 syscalls.c
00000000 l    df *ABS*	00000000 brk.c
00000000 l    df *ABS*	00000000 ctype.c
00000000 l    df *ABS*	00000000 ctype.c
00000000 l    df *ABS*	00000000 ctype.c
00000000 l    df *ABS*	00000000 stdio.c
00000000 l    df *ABS*	00000000 stdio.c
00000000 l    df *ABS*	00000000 stdio.c
00000000 l    df *ABS*	00000000 stdio.c
00000000 l    df *ABS*	00000000 stdio.c
00000000 l    df *ABS*	00000000 stdio.c
00000000 l    df *ABS*	00000000 printf.c
00000000 l    df *ABS*	00000000 printf.c
00000000 l    df *ABS*	00000000 printf.c
00000000 l    df *ABS*	00000000 printf.c
00000000 l    df *ABS*	00000000 printf.c
00000000 l    df *ABS*	00000000 printf.c
00000000 l    df *ABS*	00000000 string.c
00000000 l    df *ABS*	00000000 wstring.c
00000000 l    df *ABS*	00000000 string.c
00000000 l    df *ABS*	00000000 string.c
00000000 l    df *ABS*	00000000 wstring.c
00000000 l    df *ABS*	00000000 xstatconv.c
00000000 l    df *ABS*	00000000 syscalls.c
00000000 l    df *ABS*	00000000 stdio.c
00000000 l    df *ABS*	00000000 stdio.c
000014ac g     F .text	0000006b test_file_system
00002ff0 g     F .text	00000147 __libc_sigaction
00003635 g     F .text	000000c5 unsetenv
00004401 g     F .text	00000033 ioctl
00001b74 g     F .text	0000002b printf
000072b0 g     O .data	00000004 stdout
000047ba g     F .text	00000323 _stdio_fwrite
00002e04 g     F .text	00000022 strerror
000057d8 g     F .text	00000057 strndup
00004b28 g     F .text	00000207 _uintmaxtostr
00003150 g     F .text	0000001a atol
00007468 g     O .bss	00000004 _h_errno
00004190  w    F .text	00000041 __write
000073c8 g     O .data	00000004 __ctype_b
000033ac g     F .text	0000026e __add_to_environ
00007464  w    O .bss	00000004 errno
0000168e g     F .text	00000028 netbas_inport
000016dd g     F .text	00000026 netbas_module_out
00003c64 g     F .text	0000007c __heap_alloc_at
000042b8  w    F .text	00000041 execve
000016b6 g     F .text	00000027 netbas_module_in
00003d68 g     F .text	0000014c __heap_free
000056f0 g     F .text	0000003f memcpy
000019bc g     F .text	0000005b perror
00004213 g     F .text	0000001e creat
00004ae0 g     F .text	00000045 _stdio_lseek
000059ec g     F .text	00000089 _stdio_adjpos
00004e48 g     F .text	000000bf _ppfs_init
00001a18 g     F .text	00000043 puts
000045dc g     F .text	00000032 tolower
000038a4 g     F .text	00000057 malloc
00002f38 g     F .text	0000002d isatty
00002f18  w    F .text	0000001f __strerror_r
00001acc g     F .text	0000007f vsnprintf
00001614 g     F .text	00000052 netbas_log
000073cc g     O .data	00000004 __C_ctype_tolower
0000188b g     F .text	0000002b netbas_closedir
00001841 g     F .text	0000004a readdir
000094bc g     O .bss	00000004 ___brk_addr
00001428 g     F .text	00000046 sigh
00005730 g     F .text	00000036 mempcpy
00004610 g     F .text	000000b5 fflush
0000414c g     F .text	00000041 __libc_read
00005da0 g     O .rodata	00000b5a _string_syserrmsgs
00003742 g     F .text	0000007e putenv
000058f0  w    F .text	00000041 lseek
000073c0 g     O .data	00000004 __malloc_heap
000036fa g     F .text	00000048 clearenv
00007458 g     O .bss	00000004 __environ
00002f18 g     F .text	0000001f _glibc_strerror_r
0000316c g     F .text	0000001b strtol
00002dd8 g     F .text	00000029 strnlen
0000450c g     F .text	0000003b uname
000043c0 g     F .text	00000041 __syscall_ioctl
00007468  w    O .bss	00000004 h_errno
000044a8 g     F .text	0000001c wait4
000094b4 g     O .bss	00000004 __exit_cleanup
00004190  w    F .text	00000041 write
000094c0 g     O .bss	00000004 environ
00001b4c g     F .text	00000028 fprintf
00004704 g     F .text	00000048 fputs_unlocked
000072b8 g     O .data	00000004 _stdio_openlist
00005934 g     F .text	000000b7 fseeko
000018d9 g     F .text	00000005 __set_h_errno
00001518 g     F .text	00000028 tell
00005934 g     F .text	000000b7 fseek
00001744 g     F .text	00000015 netbas_setup
000072ac g     O .data	00000004 stdin
00004058  w    F .text	0000001f wait
0000745c g     O .bss	00000004 __progname
00001000 g     F .text	0000001b _start
0000177b g     F .text	00000023 video_stat
0000414c  w    F .text	00000041 read
00005798 g     F .text	0000003e strncmp
0000361a g     F .text	0000001b setenv
0000179e g     F .text	00000081 netbas_opendir
00002d4c g     F .text	00000061 strcasecmp
00003a1c g     F .text	0000013a realloc
00001703 g     F .text	00000020 netbas_reboot
000013fc g     F .text	0000002c sigact
0000411c  w    F .text	0000002f fork
00002ff0  w    F .text	00000147 sigaction
0000190c g     F .text	00000027 __uClibc_init
00004d30 g     F .text	0000005c _store_inttype
0000199e g     F .text	0000001b __uClibc_main
000040b0 g     F .text	0000006b sbrk
0000427c g     F .text	0000003b __libc_close
00005768  w    F .text	0000002f index
000073d4 g       *ABS*	00000000 __bss_start
000041d4 g     F .text	0000003f __libc_open
00002d24 g     F .text	00000025 memset
0000101c g     F .text	0000035e main
00004548 g     F .text	00000046 __syscall_rt_sigaction
00005830 g     F .text	000000bf __xstat_conv
00002f68 g     F .text	0000007c tcgetattr
00006c00 g     O .rodata	00000300 __C_ctype_tolower_data
0000179e g     F .text	00000081 opendir
00001470 g     F .text	0000003b load_modules
00002e28 g     F .text	000000ee _susv3_strerror_r
00000000  w      *UND*	00000000 __h_errno_location
00004384 g     F .text	0000003b dup
00003f50 g     F .text	000000cf getcwd
00006900 g     O .rodata	00000300 __C_ctype_b_data
000018b6 g     F .text	00000023 netbas_ioctl
00001ba0 g     F .text	00000027 sprintf
00005730  w    F .text	00000036 __mempcpy
00001759 g     F .text	00000022 mouse_stat
00001a5c g     F .text	00000015 _stdio_term
000072b4 g     O .data	00000004 stderr
000073c4 g     O .data	00000004 __C_ctype_b
00001666 g     F .text	00000028 netbas_outport
00004f64 g     F .text	0000025a _ppfs_setargs
0000411c g     F .text	0000002f __libc_fork
000046c8 g     F .text	00000039 fputc
000058f0 g     F .text	00000041 __libc_lseek
00001540 g     F .text	000000d1 report
00004058 g     F .text	0000001f __libc_wait
00004610 g     F .text	000000b5 fflush_unlocked
0000446d g     F .text	00000038 stat
000073d4 g       *ABS*	00000000 _edata
000094c4 g       *ABS*	00000000 _end
00004f08 g     F .text	0000005c _ppfs_prepargs
00004434 g     F .text	00000039 __syscall_stat
00002394 g     F .text	0000098e _fpmaxtostr
00000000  w      *UND*	00000000 __errno_location
00003188 g     F .text	000001ec _stdlib_strto_l
00003374 g     F .text	00000038 exit
00001a71 g     F .text	00000058 _stdio_init
00001841 g     F .text	0000004a netbas_readdir
00003b58 g     F .text	00000085 __heap_alloc
00004590 g     F .text	0000004b brk
00007464 g     O .bss	00000004 _errno
00003150 g     F .text	0000001a atoi
00004078 g     F .text	00000038 _exit
00002db0 g     F .text	00000026 strlen
00001933 g     F .text	0000006b __uClibc_start_main
000041d4  w    F .text	0000003f open
00004190 g     F .text	00000041 __libc_write
0000525e g     F .text	00000491 _ppfs_parsespec
00005768 g     F .text	0000002f strchr
00004704 g     F .text	00000048 fputs
0000188b g     F .text	0000002b closedir
000046c8 g     F .text	00000039 fputc_unlocked
000042fc g     F .text	00000042 setuid
000073d0 g     O .data	00000004 __ctype_tolower
0000427c  w    F .text	0000003b close
0000221f g     F .text	00000175 vfprintf
00004d8c g     F .text	000000b9 _load_inttype
000039bd g     F .text	0000001b free


Disassembly of section .text:

00001000 <_start>:
    1000:	59                   	pop    %ecx
    1001:	89 e3                	mov    %esp,%ebx
    1003:	89 e0                	mov    %esp,%eax
    1005:	89 ca                	mov    %ecx,%edx
    1007:	8d 44 90 04          	lea    0x4(%eax,%edx,4),%eax
    100b:	31 ed                	xor    %ebp,%ebp
    100d:	55                   	push   %ebp
    100e:	55                   	push   %ebp
    100f:	55                   	push   %ebp
    1010:	89 e5                	mov    %esp,%ebp
    1012:	50                   	push   %eax
    1013:	53                   	push   %ebx
    1014:	51                   	push   %ecx
    1015:	e8 84 09 00 00       	call   199e <__uClibc_main>
    101a:	f4                   	hlt    
    101b:	90                   	nop    

0000101c <main>:
    101c:	55                   	push   %ebp
    101d:	89 e5                	mov    %esp,%ebp
    101f:	57                   	push   %edi
    1020:	56                   	push   %esi
    1021:	53                   	push   %ebx
    1022:	81 ec 0c 05 00 00    	sub    $0x50c,%esp
    1028:	8b 75 08             	mov    0x8(%ebp),%esi
    102b:	31 db                	xor    %ebx,%ebx
    102d:	83 e4 f0             	and    $0xfffffff0,%esp
    1030:	39 f3                	cmp    %esi,%ebx
    1032:	8b 7d 0c             	mov    0xc(%ebp),%edi
    1035:	c7 85 f0 fa ff ff 00 	movl   $0x0,0xfffffaf0(%ebp)
    103c:	00 00 00 
    103f:	c7 85 ec fa ff ff 01 	movl   $0x1,0xfffffaec(%ebp)
    1046:	00 00 00 
    1049:	0f 8c e9 02 00 00    	jl     1338 <main+0x31c>
    104f:	8d 95 58 fe ff ff    	lea    0xfffffe58(%ebp),%edx
    1055:	83 ec 0c             	sub    $0xc,%esp
    1058:	52                   	push   %edx
    1059:	e8 ae 34 00 00       	call   450c <uname>
    105e:	e8 e1 06 00 00       	call   1744 <netbas_setup>
    1063:	59                   	pop    %ecx
    1064:	5b                   	pop    %ebx
    1065:	6a 00                	push   $0x0
    1067:	68 dc 5a 00 00       	push   $0x5adc
    106c:	c7 05 e0 73 00 00 00 	movl   $0x0,0x73e0
    1073:	00 00 00 
    1076:	e8 59 31 00 00       	call   41d4 <__libc_open>
    107b:	89 c6                	mov    %eax,%esi
    107d:	89 04 24             	mov    %eax,(%esp,1)
    1080:	e8 ff 32 00 00       	call   4384 <dup>
    1085:	89 34 24             	mov    %esi,(%esp,1)
    1088:	e8 f7 32 00 00       	call   4384 <dup>
    108d:	58                   	pop    %eax
    108e:	5a                   	pop    %edx
    108f:	68 00 02 00 00       	push   $0x200
    1094:	68 00 70 00 00       	push   $0x7000
    1099:	e8 b2 2e 00 00       	call   3f50 <getcwd>
    109e:	31 db                	xor    %ebx,%ebx
    10a0:	c7 04 24 00 00 00 00 	movl   $0x0,(%esp,1)
    10a7:	e8 50 32 00 00       	call   42fc <setuid>
    10ac:	83 c4 10             	add    $0x10,%esp
    10af:	8b 14 9d 00 72 00 00 	mov    0x7200(,%ebx,4),%edx
    10b6:	31 f6                	xor    %esi,%esi
    10b8:	85 d2                	test   %edx,%edx
    10ba:	74 29                	je     10e5 <main+0xc9>
    10bc:	83 ec 08             	sub    $0x8,%esp
    10bf:	8d 8d 98 fd ff ff    	lea    0xfffffd98(%ebp),%ecx
    10c5:	51                   	push   %ecx
    10c6:	52                   	push   %edx
    10c7:	e8 a1 33 00 00       	call   446d <stat>
    10cc:	83 c4 10             	add    $0x10,%esp
    10cf:	85 c0                	test   %eax,%eax
    10d1:	0f 84 55 02 00 00    	je     132c <main+0x310>
    10d7:	89 da                	mov    %ebx,%edx
    10d9:	8b 3c 95 00 72 00 00 	mov    0x7200(,%edx,4),%edi
    10e0:	43                   	inc    %ebx
    10e1:	85 ff                	test   %edi,%edi
    10e3:	75 ca                	jne    10af <main+0x93>
    10e5:	a1 20 72 00 00       	mov    0x7220,%eax
    10ea:	31 db                	xor    %ebx,%ebx
    10ec:	85 c0                	test   %eax,%eax
    10ee:	8d 95 38 fd ff ff    	lea    0xfffffd38(%ebp),%edx
    10f4:	0f 85 0f 02 00 00    	jne    1309 <main+0x2ed>
    10fa:	8b 8d f0 fa ff ff    	mov    0xfffffaf0(%ebp),%ecx
    1100:	89 34 8d e4 73 00 00 	mov    %esi,0x73e4(,%ecx,4)
    1107:	8b 3d e4 73 00 00    	mov    0x73e4,%edi
    110d:	be a5 5a 00 00       	mov    $0x5aa5,%esi
    1112:	b9 0d 00 00 00       	mov    $0xd,%ecx
    1117:	fc                   	cld    
    1118:	f3 a6                	repz cmpsb %es:(%edi),%ds:(%esi)
    111a:	0f 85 d4 01 00 00    	jne    12f4 <main+0x2d8>
    1120:	c7 05 e8 73 00 00 86 	movl   $0x5a86,0x73e8
    1127:	5a 00 00 
    112a:	c7 85 f0 fa ff ff 02 	movl   $0x2,0xfffffaf0(%ebp)
    1131:	00 00 00 
    1134:	c7 05 e0 73 00 00 01 	movl   $0x1,0x73e0
    113b:	00 00 00 
    113e:	83 ec 0c             	sub    $0xc,%esp
    1141:	68 e0 5b 00 00       	push   $0x5be0
    1146:	8b 85 f0 fa ff ff    	mov    0xfffffaf0(%ebp),%eax
    114c:	c7 04 85 e4 73 00 00 	movl   $0x0,0x73e4(,%eax,4)
    1153:	00 00 00 00 
    1157:	31 db                	xor    %ebx,%ebx
    1159:	e8 e4 25 00 00       	call   3742 <putenv>
    115e:	8d bd a8 fc ff ff    	lea    0xfffffca8(%ebp),%edi
    1164:	c7 04 24 e9 5a 00 00 	movl   $0x5ae9,(%esp,1)
    116b:	e8 d2 25 00 00       	call   3742 <putenv>
    1170:	c7 04 24 f4 5a 00 00 	movl   $0x5af4,(%esp,1)
    1177:	e8 c6 25 00 00       	call   3742 <putenv>
    117c:	c7 04 24 00 5b 00 00 	movl   $0x5b00,(%esp,1)
    1183:	e8 ba 25 00 00       	call   3742 <putenv>
    1188:	c7 04 24 10 5b 00 00 	movl   $0x5b10,(%esp,1)
    118f:	e8 ae 25 00 00       	call   3742 <putenv>
    1194:	c7 04 24 1b 5b 00 00 	movl   $0x5b1b,(%esp,1)
    119b:	e8 a2 25 00 00       	call   3742 <putenv>
    11a0:	83 c4 10             	add    $0x10,%esp
    11a3:	50                   	push   %eax
    11a4:	6a 00                	push   $0x0
    11a6:	57                   	push   %edi
    11a7:	53                   	push   %ebx
    11a8:	43                   	inc    %ebx
    11a9:	c7 85 a8 fc ff ff 01 	movl   $0x1,0xfffffca8(%ebp)
    11b0:	00 00 00 
    11b3:	c7 85 2c fd ff ff 00 	movl   $0x40000000,0xfffffd2c(%ebp)
    11ba:	00 00 40 
    11bd:	e8 2e 1e 00 00       	call   2ff0 <__libc_sigaction>
    11c2:	83 c4 10             	add    $0x10,%esp
    11c5:	83 fb 1f             	cmp    $0x1f,%ebx
    11c8:	7e d9                	jle    11a3 <main+0x187>
    11ca:	57                   	push   %edi
    11cb:	6a 00                	push   $0x0
    11cd:	8d b5 18 fc ff ff    	lea    0xfffffc18(%ebp),%esi
    11d3:	56                   	push   %esi
    11d4:	6a 11                	push   $0x11
    11d6:	c7 85 18 fc ff ff 00 	movl   $0x0,0xfffffc18(%ebp)
    11dd:	00 00 00 
    11e0:	c7 85 9c fc ff ff 00 	movl   $0x40000000,0xfffffc9c(%ebp)
    11e7:	00 00 40 
    11ea:	e8 01 1e 00 00       	call   2ff0 <__libc_sigaction>
    11ef:	8b 1d e0 73 00 00    	mov    0x73e0,%ebx
    11f5:	83 c4 10             	add    $0x10,%esp
    11f8:	85 db                	test   %ebx,%ebx
    11fa:	75 0e                	jne    120a <main+0x1ee>
    11fc:	8b 95 ec fa ff ff    	mov    0xfffffaec(%ebp),%edx
    1202:	85 d2                	test   %edx,%edx
    1204:	0f 85 d0 00 00 00    	jne    12da <main+0x2be>
    120a:	83 ec 0c             	sub    $0xc,%esp
    120d:	68 2a 5b 00 00       	push   $0x5b2a
    1212:	e8 01 08 00 00       	call   1a18 <puts>
    1217:	83 c4 10             	add    $0x10,%esp
    121a:	8d bd 88 fb ff ff    	lea    0xfffffb88(%ebp),%edi
    1220:	8d b5 f8 fa ff ff    	lea    0xfffffaf8(%ebp),%esi
    1226:	31 db                	xor    %ebx,%ebx
    1228:	51                   	push   %ecx
    1229:	6a 00                	push   $0x0
    122b:	57                   	push   %edi
    122c:	53                   	push   %ebx
    122d:	43                   	inc    %ebx
    122e:	c7 85 88 fb ff ff 28 	movl   $0x1428,0xfffffb88(%ebp)
    1235:	14 00 00 
    1238:	c7 85 0c fc ff ff 00 	movl   $0x40000000,0xfffffc0c(%ebp)
    123f:	00 00 40 
    1242:	e8 a9 1d 00 00       	call   2ff0 <__libc_sigaction>
    1247:	83 c4 10             	add    $0x10,%esp
    124a:	83 fb 1f             	cmp    $0x1f,%ebx
    124d:	7e d9                	jle    1228 <main+0x20c>
    124f:	52                   	push   %edx
    1250:	6a 00                	push   $0x0
    1252:	56                   	push   %esi
    1253:	6a 11                	push   $0x11
    1255:	c7 85 f8 fa ff ff 00 	movl   $0x0,0xfffffaf8(%ebp)
    125c:	00 00 00 
    125f:	c7 85 7c fb ff ff 00 	movl   $0x40000000,0xfffffb7c(%ebp)
    1266:	00 00 40 
    1269:	e8 82 1d 00 00       	call   2ff0 <__libc_sigaction>
    126e:	8b 0d e0 73 00 00    	mov    0x73e0,%ecx
    1274:	83 c4 10             	add    $0x10,%esp
    1277:	85 c9                	test   %ecx,%ecx
    1279:	75 13                	jne    128e <main+0x272>
    127b:	8b 95 f0 fa ff ff    	mov    0xfffffaf0(%ebp),%edx
    1281:	bb e4 73 00 00       	mov    $0x73e4,%ebx
    1286:	c7 44 93 fc 00 00 00 	movl   $0x0,0xfffffffc(%ebx,%edx,4)
    128d:	00 
    128e:	83 ec 0c             	sub    $0xc,%esp
    1291:	68 e4 73 00 00       	push   $0x73e4
    1296:	e8 e1 00 00 00       	call   137c <prog_execute>
    129b:	83 c4 10             	add    $0x10,%esp
    129e:	85 c0                	test   %eax,%eax
    12a0:	0f 85 ca 00 00 00    	jne    1370 <main+0x354>
    12a6:	83 ec 0c             	sub    $0xc,%esp
    12a9:	68 3c 5b 00 00       	push   $0x5b3c
    12ae:	e8 65 07 00 00       	call   1a18 <puts>
    12b3:	83 c4 0c             	add    $0xc,%esp
    12b6:	6a 01                	push   $0x1
    12b8:	8d 8d f7 fa ff ff    	lea    0xfffffaf7(%ebp),%ecx
    12be:	51                   	push   %ecx
    12bf:	6a 00                	push   $0x0
    12c1:	e8 86 2e 00 00       	call   414c <__libc_read>
    12c6:	c7 04 24 57 5b 00 00 	movl   $0x5b57,(%esp,1)
    12cd:	e8 46 07 00 00       	call   1a18 <puts>
    12d2:	83 c4 10             	add    $0x10,%esp
    12d5:	e9 4c ff ff ff       	jmp    1226 <main+0x20a>
    12da:	83 ec 0c             	sub    $0xc,%esp
    12dd:	68 e4 73 00 00       	push   $0x73e4
    12e2:	e8 95 00 00 00       	call   137c <prog_execute>
    12e7:	83 c4 10             	add    $0x10,%esp
    12ea:	85 c0                	test   %eax,%eax
    12ec:	0f 84 28 ff ff ff    	je     121a <main+0x1fe>
    12f2:	eb 7c                	jmp    1370 <main+0x354>
    12f4:	89 1d e8 73 00 00    	mov    %ebx,0x73e8
    12fa:	c7 85 f0 fa ff ff 02 	movl   $0x2,0xfffffaf0(%ebp)
    1301:	00 00 00 
    1304:	e9 35 fe ff ff       	jmp    113e <main+0x122>
    1309:	83 ec 08             	sub    $0x8,%esp
    130c:	52                   	push   %edx
    130d:	50                   	push   %eax
    130e:	e8 5a 31 00 00       	call   446d <stat>
    1313:	83 c4 10             	add    $0x10,%esp
    1316:	85 c0                	test   %eax,%eax
    1318:	0f 85 dc fd ff ff    	jne    10fa <main+0xde>
    131e:	31 ff                	xor    %edi,%edi
    1320:	8b 1c bd 20 72 00 00 	mov    0x7220(,%edi,4),%ebx
    1327:	e9 ce fd ff ff       	jmp    10fa <main+0xde>
    132c:	8b 34 9d 00 72 00 00 	mov    0x7200(,%ebx,4),%esi
    1333:	e9 ad fd ff ff       	jmp    10e5 <main+0xc9>
    1338:	83 ec 08             	sub    $0x8,%esp
    133b:	68 6a 5b 00 00       	push   $0x5b6a
    1340:	ff 34 9f             	pushl  (%edi,%ebx,4)
    1343:	e8 04 1a 00 00       	call   2d4c <strcasecmp>
    1348:	83 c4 10             	add    $0x10,%esp
    134b:	85 c0                	test   %eax,%eax
    134d:	74 0a                	je     1359 <main+0x33d>
    134f:	43                   	inc    %ebx
    1350:	39 f3                	cmp    %esi,%ebx
    1352:	7c e4                	jl     1338 <main+0x31c>
    1354:	e9 f6 fc ff ff       	jmp    104f <main+0x33>
    1359:	83 ec 0c             	sub    $0xc,%esp
    135c:	ff 74 9f 04          	pushl  0x4(%edi,%ebx,4)
    1360:	e8 eb 1d 00 00       	call   3150 <atoi>
    1365:	89 85 ec fa ff ff    	mov    %eax,0xfffffaec(%ebp)
    136b:	83 c4 10             	add    $0x10,%esp
    136e:	eb df                	jmp    134f <main+0x333>
    1370:	83 ec 0c             	sub    $0xc,%esp
    1373:	6a 01                	push   $0x1
    1375:	e8 fa 1f 00 00       	call   3374 <exit>
    137a:	89 f6                	mov    %esi,%esi

0000137c <prog_execute>:
    137c:	55                   	push   %ebp
    137d:	89 e5                	mov    %esp,%ebp
    137f:	56                   	push   %esi
    1380:	53                   	push   %ebx
    1381:	83 ec 10             	sub    $0x10,%esp
    1384:	8b 75 08             	mov    0x8(%ebp),%esi
    1387:	8b 1e                	mov    (%esi),%ebx
    1389:	85 db                	test   %ebx,%ebx
    138b:	c7 45 f4 00 00 00 00 	movl   $0x0,0xfffffff4(%ebp)
    1392:	74 4c                	je     13e0 <prog_execute+0x64>
    1394:	e8 83 2d 00 00       	call   411c <__libc_fork>
    1399:	85 c0                	test   %eax,%eax
    139b:	74 33                	je     13d0 <prog_execute+0x54>
    139d:	85 c0                	test   %eax,%eax
    139f:	7e 18                	jle    13b9 <prog_execute+0x3d>
    13a1:	83 ec 0c             	sub    $0xc,%esp
    13a4:	8d 55 f4             	lea    0xfffffff4(%ebp),%edx
    13a7:	52                   	push   %edx
    13a8:	e8 ab 2c 00 00       	call   4058 <__libc_wait>
    13ad:	83 c4 10             	add    $0x10,%esp
    13b0:	31 c0                	xor    %eax,%eax
    13b2:	8d 65 f8             	lea    0xfffffff8(%ebp),%esp
    13b5:	5b                   	pop    %ebx
    13b6:	5e                   	pop    %esi
    13b7:	c9                   	leave  
    13b8:	c3                   	ret    
    13b9:	83 ec 0c             	sub    $0xc,%esp
    13bc:	68 6f 5b 00 00       	push   $0x5b6f
    13c1:	e8 f6 05 00 00       	call   19bc <perror>
    13c6:	b8 ff ff ff ff       	mov    $0xffffffff,%eax
    13cb:	eb e5                	jmp    13b2 <prog_execute+0x36>
    13cd:	8d 76 00             	lea    0x0(%esi),%esi
    13d0:	50                   	push   %eax
    13d1:	ff 35 c0 94 00 00    	pushl  0x94c0
    13d7:	56                   	push   %esi
    13d8:	53                   	push   %ebx
    13d9:	e8 da 2e 00 00       	call   42b8 <execve>
    13de:	eb cd                	jmp    13ad <prog_execute+0x31>
    13e0:	83 ec 0c             	sub    $0xc,%esp
    13e3:	68 82 5b 00 00       	push   $0x5b82
    13e8:	e8 2b 06 00 00       	call   1a18 <puts>
    13ed:	c7 04 24 01 00 00 00 	movl   $0x1,(%esp,1)
    13f4:	e8 7b 1f 00 00       	call   3374 <exit>
    13f9:	8d 76 00             	lea    0x0(%esi),%esi

000013fc <sigact>:
    13fc:	55                   	push   %ebp
    13fd:	89 e5                	mov    %esp,%ebp
    13ff:	81 ec 9c 00 00 00    	sub    $0x9c,%esp
    1405:	8b 55 0c             	mov    0xc(%ebp),%edx
    1408:	6a 00                	push   $0x0
    140a:	89 95 68 ff ff ff    	mov    %edx,0xffffff68(%ebp)
    1410:	8d 95 68 ff ff ff    	lea    0xffffff68(%ebp),%edx
    1416:	52                   	push   %edx
    1417:	ff 75 08             	pushl  0x8(%ebp)
    141a:	c7 45 ec 00 00 00 40 	movl   $0x40000000,0xffffffec(%ebp)
    1421:	e8 ca 1b 00 00       	call   2ff0 <__libc_sigaction>
    1426:	c9                   	leave  
    1427:	c3                   	ret    

00001428 <sigh>:
    1428:	55                   	push   %ebp
    1429:	89 e5                	mov    %esp,%ebp
    142b:	57                   	push   %edi
    142c:	53                   	push   %ebx
    142d:	81 ec 04 10 00 00    	sub    $0x1004,%esp
    1433:	ff 75 08             	pushl  0x8(%ebp)
    1436:	68 9a 5b 00 00       	push   $0x5b9a
    143b:	8d 9d f8 ef ff ff    	lea    0xffffeff8(%ebp),%ebx
    1441:	53                   	push   %ebx
    1442:	e8 59 07 00 00       	call   1ba0 <sprintf>
    1447:	89 df                	mov    %ebx,%edi
    1449:	fc                   	cld    
    144a:	31 c0                	xor    %eax,%eax
    144c:	b9 ff ff ff ff       	mov    $0xffffffff,%ecx
    1451:	f2 ae                	repnz scas %es:(%edi),%al
    1453:	f7 d1                	not    %ecx
    1455:	83 c4 0c             	add    $0xc,%esp
    1458:	49                   	dec    %ecx
    1459:	51                   	push   %ecx
    145a:	53                   	push   %ebx
    145b:	6a 01                	push   $0x1
    145d:	e8 2e 2d 00 00       	call   4190 <__libc_write>
    1462:	c7 04 24 00 00 00 00 	movl   $0x0,(%esp,1)
    1469:	e8 06 1f 00 00       	call   3374 <exit>
    146e:	89 f6                	mov    %esi,%esi

00001470 <load_modules>:
    1470:	55                   	push   %ebp
    1471:	89 e5                	mov    %esp,%ebp
    1473:	53                   	push   %ebx
    1474:	83 ec 0c             	sub    $0xc,%esp
    1477:	6a 00                	push   $0x0
    1479:	68 b2 5b 00 00       	push   $0x5bb2
    147e:	e8 51 2d 00 00       	call   41d4 <__libc_open>
    1483:	89 c3                	mov    %eax,%ebx
    1485:	83 c4 10             	add    $0x10,%esp
    1488:	85 db                	test   %ebx,%ebx
    148a:	b8 ff ff ff ff       	mov    $0xffffffff,%eax
    148f:	78 15                	js     14a6 <load_modules+0x36>
    1491:	50                   	push   %eax
    1492:	6a 00                	push   $0x0
    1494:	6a 01                	push   $0x1
    1496:	53                   	push   %ebx
    1497:	e8 65 2f 00 00       	call   4401 <ioctl>
    149c:	89 1c 24             	mov    %ebx,(%esp,1)
    149f:	e8 d8 2d 00 00       	call   427c <__libc_close>
    14a4:	31 c0                	xor    %eax,%eax
    14a6:	8b 5d fc             	mov    0xfffffffc(%ebp),%ebx
    14a9:	c9                   	leave  
    14aa:	c3                   	ret    
    14ab:	90                   	nop    

000014ac <test_file_system>:
    14ac:	55                   	push   %ebp
    14ad:	89 e5                	mov    %esp,%ebp
    14af:	56                   	push   %esi
    14b0:	53                   	push   %ebx
    14b1:	81 ec 08 02 00 00    	sub    $0x208,%esp
    14b7:	6a 00                	push   $0x0
    14b9:	68 bb 5b 00 00       	push   $0x5bbb
    14be:	e8 11 2d 00 00       	call   41d4 <__libc_open>
    14c3:	89 c6                	mov    %eax,%esi
    14c5:	c7 04 24 00 5c 00 00 	movl   $0x5c00,(%esp,1)
    14cc:	e8 a3 06 00 00       	call   1b74 <printf>
    14d1:	83 c4 10             	add    $0x10,%esp
    14d4:	85 f6                	test   %esi,%esi
    14d6:	78 30                	js     1508 <test_file_system+0x5c>
    14d8:	51                   	push   %ecx
    14d9:	68 00 02 00 00       	push   $0x200
    14de:	8d 9d f8 fd ff ff    	lea    0xfffffdf8(%ebp),%ebx
    14e4:	53                   	push   %ebx
    14e5:	56                   	push   %esi
    14e6:	e8 61 2c 00 00       	call   414c <__libc_read>
    14eb:	58                   	pop    %eax
    14ec:	5a                   	pop    %edx
    14ed:	53                   	push   %ebx
    14ee:	68 40 5c 00 00       	push   $0x5c40
    14f3:	e8 7c 06 00 00       	call   1b74 <printf>
    14f8:	89 34 24             	mov    %esi,(%esp,1)
    14fb:	e8 7c 2d 00 00       	call   427c <__libc_close>
    1500:	8d 65 f8             	lea    0xfffffff8(%ebp),%esp
    1503:	5b                   	pop    %ebx
    1504:	5e                   	pop    %esi
    1505:	c9                   	leave  
    1506:	c3                   	ret    
    1507:	90                   	nop    
    1508:	83 ec 0c             	sub    $0xc,%esp
    150b:	68 cb 5b 00 00       	push   $0x5bcb
    1510:	e8 03 05 00 00       	call   1a18 <puts>
    1515:	eb e9                	jmp    1500 <test_file_system+0x54>
    1517:	90                   	nop    

00001518 <tell>:
    1518:	55                   	push   %ebp
    1519:	89 e5                	mov    %esp,%ebp
    151b:	57                   	push   %edi
    151c:	83 ec 08             	sub    $0x8,%esp
    151f:	8b 55 0c             	mov    0xc(%ebp),%edx
    1522:	89 d7                	mov    %edx,%edi
    1524:	fc                   	cld    
    1525:	31 c0                	xor    %eax,%eax
    1527:	b9 ff ff ff ff       	mov    $0xffffffff,%ecx
    152c:	f2 ae                	repnz scas %es:(%edi),%al
    152e:	f7 d1                	not    %ecx
    1530:	49                   	dec    %ecx
    1531:	51                   	push   %ecx
    1532:	52                   	push   %edx
    1533:	ff 75 08             	pushl  0x8(%ebp)
    1536:	e8 55 2c 00 00       	call   4190 <__libc_write>
    153b:	8b 7d fc             	mov    0xfffffffc(%ebp),%edi
    153e:	c9                   	leave  
    153f:	c3                   	ret    

00001540 <report>:
    1540:	55                   	push   %ebp
    1541:	89 e5                	mov    %esp,%ebp
    1543:	57                   	push   %edi
    1544:	56                   	push   %esi
    1545:	53                   	push   %ebx
    1546:	83 ec 10             	sub    $0x10,%esp
    1549:	8b 15 64 74 00 00    	mov    0x7464,%edx
    154f:	31 db                	xor    %ebx,%ebx
    1551:	89 55 f0             	mov    %edx,0xfffffff0(%ebp)
    1554:	ba d1 5b 00 00       	mov    $0x5bd1,%edx
    1559:	89 d7                	mov    %edx,%edi
    155b:	fc                   	cld    
    155c:	88 d8                	mov    %bl,%al
    155e:	b9 ff ff ff ff       	mov    $0xffffffff,%ecx
    1563:	f2 ae                	repnz scas %es:(%edi),%al
    1565:	f7 d1                	not    %ecx
    1567:	49                   	dec    %ecx
    1568:	51                   	push   %ecx
    1569:	52                   	push   %edx
    156a:	8b 75 0c             	mov    0xc(%ebp),%esi
    156d:	ff 75 08             	pushl  0x8(%ebp)
    1570:	e8 1b 2c 00 00       	call   4190 <__libc_write>
    1575:	89 f7                	mov    %esi,%edi
    1577:	fc                   	cld    
    1578:	88 d8                	mov    %bl,%al
    157a:	b9 ff ff ff ff       	mov    $0xffffffff,%ecx
    157f:	f2 ae                	repnz scas %es:(%edi),%al
    1581:	f7 d1                	not    %ecx
    1583:	83 c4 0c             	add    $0xc,%esp
    1586:	49                   	dec    %ecx
    1587:	51                   	push   %ecx
    1588:	56                   	push   %esi
    1589:	ff 75 08             	pushl  0x8(%ebp)
    158c:	be d5 5b 00 00       	mov    $0x5bd5,%esi
    1591:	e8 fa 2b 00 00       	call   4190 <__libc_write>
    1596:	89 f7                	mov    %esi,%edi
    1598:	fc                   	cld    
    1599:	88 d8                	mov    %bl,%al
    159b:	b9 ff ff ff ff       	mov    $0xffffffff,%ecx
    15a0:	f2 ae                	repnz scas %es:(%edi),%al
    15a2:	f7 d1                	not    %ecx
    15a4:	83 c4 0c             	add    $0xc,%esp
    15a7:	49                   	dec    %ecx
    15a8:	51                   	push   %ecx
    15a9:	56                   	push   %esi
    15aa:	ff 75 08             	pushl  0x8(%ebp)
    15ad:	e8 de 2b 00 00       	call   4190 <__libc_write>
    15b2:	5e                   	pop    %esi
    15b3:	ff 75 f0             	pushl  0xfffffff0(%ebp)
    15b6:	e8 49 18 00 00       	call   2e04 <strerror>
    15bb:	89 45 ec             	mov    %eax,0xffffffec(%ebp)
    15be:	89 c6                	mov    %eax,%esi
    15c0:	fc                   	cld    
    15c1:	89 c7                	mov    %eax,%edi
    15c3:	b9 ff ff ff ff       	mov    $0xffffffff,%ecx
    15c8:	88 d8                	mov    %bl,%al
    15ca:	f2 ae                	repnz scas %es:(%edi),%al
    15cc:	f7 d1                	not    %ecx
    15ce:	83 c4 0c             	add    $0xc,%esp
    15d1:	49                   	dec    %ecx
    15d2:	51                   	push   %ecx
    15d3:	56                   	push   %esi
    15d4:	ff 75 08             	pushl  0x8(%ebp)
    15d7:	be b0 5b 00 00       	mov    $0x5bb0,%esi
    15dc:	e8 af 2b 00 00       	call   4190 <__libc_write>
    15e1:	89 f7                	mov    %esi,%edi
    15e3:	88 d8                	mov    %bl,%al
    15e5:	fc                   	cld    
    15e6:	b9 ff ff ff ff       	mov    $0xffffffff,%ecx
    15eb:	f2 ae                	repnz scas %es:(%edi),%al
    15ed:	f7 d1                	not    %ecx
    15ef:	83 c4 0c             	add    $0xc,%esp
    15f2:	49                   	dec    %ecx
    15f3:	51                   	push   %ecx
    15f4:	56                   	push   %esi
    15f5:	ff 75 08             	pushl  0x8(%ebp)
    15f8:	e8 93 2b 00 00       	call   4190 <__libc_write>
    15fd:	8b 55 f0             	mov    0xfffffff0(%ebp),%edx
    1600:	89 15 64 74 00 00    	mov    %edx,0x7464
    1606:	83 c4 10             	add    $0x10,%esp
    1609:	8d 65 f4             	lea    0xfffffff4(%ebp),%esp
    160c:	5b                   	pop    %ebx
    160d:	5e                   	pop    %esi
    160e:	5f                   	pop    %edi
    160f:	c9                   	leave  
    1610:	c3                   	ret    
    1611:	90                   	nop    
    1612:	90                   	nop    
    1613:	90                   	nop    

00001614 <netbas_log>:
    1614:	55                   	push   %ebp
    1615:	89 e5                	mov    %esp,%ebp
    1617:	81 ec 18 04 00 00    	sub    $0x418,%esp
    161d:	8d 45 10             	lea    0x10(%ebp),%eax
    1620:	89 45 ec             	mov    %eax,0xffffffec(%ebp)
    1623:	ff 75 ec             	pushl  0xffffffec(%ebp)
    1626:	ff 75 0c             	pushl  0xc(%ebp)
    1629:	68 00 04 00 00       	push   $0x400
    162e:	8d 85 e8 fb ff ff    	lea    0xfffffbe8(%ebp),%eax
    1634:	50                   	push   %eax
    1635:	e8 92 04 00 00       	call   1acc <vsnprintf>
    163a:	83 c4 10             	add    $0x10,%esp
    163d:	89 45 f4             	mov    %eax,0xfffffff4(%ebp)
    1640:	83 ec 08             	sub    $0x8,%esp
    1643:	6a 00                	push   $0x0
    1645:	6a 00                	push   $0x0
    1647:	ff 75 f4             	pushl  0xfffffff4(%ebp)
    164a:	8d 85 e8 fb ff ff    	lea    0xfffffbe8(%ebp),%eax
    1650:	50                   	push   %eax
    1651:	ff 75 08             	pushl  0x8(%ebp)
    1654:	6a 09                	push   $0x9
    1656:	e8 83 02 00 00       	call   18de <netbas_system_call>
    165b:	83 c4 20             	add    $0x20,%esp
    165e:	89 45 f0             	mov    %eax,0xfffffff0(%ebp)
    1661:	8b 45 f0             	mov    0xfffffff0(%ebp),%eax
    1664:	c9                   	leave  
    1665:	c3                   	ret    

00001666 <netbas_outport>:
    1666:	55                   	push   %ebp
    1667:	89 e5                	mov    %esp,%ebp
    1669:	83 ec 08             	sub    $0x8,%esp
    166c:	83 ec 08             	sub    $0x8,%esp
    166f:	6a 00                	push   $0x0
    1671:	6a 00                	push   $0x0
    1673:	ff 75 10             	pushl  0x10(%ebp)
    1676:	ff 75 0c             	pushl  0xc(%ebp)
    1679:	ff 75 08             	pushl  0x8(%ebp)
    167c:	6a 03                	push   $0x3
    167e:	e8 5b 02 00 00       	call   18de <netbas_system_call>
    1683:	83 c4 20             	add    $0x20,%esp
    1686:	89 45 fc             	mov    %eax,0xfffffffc(%ebp)
    1689:	8b 45 fc             	mov    0xfffffffc(%ebp),%eax
    168c:	c9                   	leave  
    168d:	c3                   	ret    

0000168e <netbas_inport>:
    168e:	55                   	push   %ebp
    168f:	89 e5                	mov    %esp,%ebp
    1691:	83 ec 08             	sub    $0x8,%esp
    1694:	83 ec 08             	sub    $0x8,%esp
    1697:	6a 00                	push   $0x0
    1699:	6a 00                	push   $0x0
    169b:	ff 75 10             	pushl  0x10(%ebp)
    169e:	ff 75 0c             	pushl  0xc(%ebp)
    16a1:	ff 75 08             	pushl  0x8(%ebp)
    16a4:	6a 04                	push   $0x4
    16a6:	e8 33 02 00 00       	call   18de <netbas_system_call>
    16ab:	83 c4 20             	add    $0x20,%esp
    16ae:	89 45 fc             	mov    %eax,0xfffffffc(%ebp)
    16b1:	8b 45 fc             	mov    0xfffffffc(%ebp),%eax
    16b4:	c9                   	leave  
    16b5:	c3                   	ret    

000016b6 <netbas_module_in>:
    16b6:	55                   	push   %ebp
    16b7:	89 e5                	mov    %esp,%ebp
    16b9:	83 ec 08             	sub    $0x8,%esp
    16bc:	83 ec 08             	sub    $0x8,%esp
    16bf:	6a 00                	push   $0x0
    16c1:	6a 00                	push   $0x0
    16c3:	6a 00                	push   $0x0
    16c5:	ff 75 0c             	pushl  0xc(%ebp)
    16c8:	ff 75 08             	pushl  0x8(%ebp)
    16cb:	6a 42                	push   $0x42
    16cd:	e8 0c 02 00 00       	call   18de <netbas_system_call>
    16d2:	83 c4 20             	add    $0x20,%esp
    16d5:	89 45 fc             	mov    %eax,0xfffffffc(%ebp)
    16d8:	8b 45 fc             	mov    0xfffffffc(%ebp),%eax
    16db:	c9                   	leave  
    16dc:	c3                   	ret    

000016dd <netbas_module_out>:
    16dd:	55                   	push   %ebp
    16de:	89 e5                	mov    %esp,%ebp
    16e0:	83 ec 08             	sub    $0x8,%esp
    16e3:	83 ec 08             	sub    $0x8,%esp
    16e6:	6a 00                	push   $0x0
    16e8:	6a 00                	push   $0x0
    16ea:	6a 00                	push   $0x0
    16ec:	6a 00                	push   $0x0
    16ee:	ff 75 08             	pushl  0x8(%ebp)
    16f1:	6a 43                	push   $0x43
    16f3:	e8 e6 01 00 00       	call   18de <netbas_system_call>
    16f8:	83 c4 20             	add    $0x20,%esp
    16fb:	89 45 fc             	mov    %eax,0xfffffffc(%ebp)
    16fe:	8b 45 fc             	mov    0xfffffffc(%ebp),%eax
    1701:	c9                   	leave  
    1702:	c3                   	ret    

00001703 <netbas_reboot>:
    1703:	55                   	push   %ebp
    1704:	89 e5                	mov    %esp,%ebp
    1706:	83 ec 08             	sub    $0x8,%esp
    1709:	83 ec 08             	sub    $0x8,%esp
    170c:	6a 00                	push   $0x0
    170e:	6a 00                	push   $0x0
    1710:	6a 00                	push   $0x0
    1712:	6a 00                	push   $0x0
    1714:	ff 75 08             	pushl  0x8(%ebp)
    1717:	6a 4c                	push   $0x4c
    1719:	e8 c0 01 00 00       	call   18de <netbas_system_call>
    171e:	83 c4 20             	add    $0x20,%esp
    1721:	c9                   	leave  
    1722:	c3                   	ret    

00001723 <_opendir>:
    1723:	55                   	push   %ebp
    1724:	89 e5                	mov    %esp,%ebp
    1726:	83 ec 08             	sub    $0x8,%esp
    1729:	83 ec 08             	sub    $0x8,%esp
    172c:	6a 00                	push   $0x0
    172e:	6a 00                	push   $0x0
    1730:	6a 00                	push   $0x0
    1732:	ff 75 0c             	pushl  0xc(%ebp)
    1735:	ff 75 08             	pushl  0x8(%ebp)
    1738:	6a 05                	push   $0x5
    173a:	e8 9f 01 00 00       	call   18de <netbas_system_call>
    173f:	83 c4 20             	add    $0x20,%esp
    1742:	c9                   	leave  
    1743:	c3                   	ret    

00001744 <netbas_setup>:
    1744:	55                   	push   %ebp
    1745:	89 e5                	mov    %esp,%ebp
    1747:	83 ec 04             	sub    $0x4,%esp
    174a:	b8 00 00 00 00       	mov    $0x0,%eax
    174f:	cd 80                	int    $0x80
    1751:	89 45 fc             	mov    %eax,0xfffffffc(%ebp)
    1754:	8b 45 fc             	mov    0xfffffffc(%ebp),%eax
    1757:	c9                   	leave  
    1758:	c3                   	ret    

00001759 <mouse_stat>:
    1759:	55                   	push   %ebp
    175a:	89 e5                	mov    %esp,%ebp
    175c:	83 ec 08             	sub    $0x8,%esp
    175f:	83 ec 08             	sub    $0x8,%esp
    1762:	6a 00                	push   $0x0
    1764:	6a 00                	push   $0x0
    1766:	ff 75 10             	pushl  0x10(%ebp)
    1769:	ff 75 0c             	pushl  0xc(%ebp)
    176c:	ff 75 08             	pushl  0x8(%ebp)
    176f:	6a 51                	push   $0x51
    1771:	e8 68 01 00 00       	call   18de <netbas_system_call>
    1776:	83 c4 20             	add    $0x20,%esp
    1779:	c9                   	leave  
    177a:	c3                   	ret    

0000177b <video_stat>:
    177b:	55                   	push   %ebp
    177c:	89 e5                	mov    %esp,%ebp
    177e:	83 ec 08             	sub    $0x8,%esp
    1781:	83 ec 08             	sub    $0x8,%esp
    1784:	6a 00                	push   $0x0
    1786:	ff 75 14             	pushl  0x14(%ebp)
    1789:	ff 75 10             	pushl  0x10(%ebp)
    178c:	ff 75 0c             	pushl  0xc(%ebp)
    178f:	ff 75 08             	pushl  0x8(%ebp)
    1792:	6a 50                	push   $0x50
    1794:	e8 45 01 00 00       	call   18de <netbas_system_call>
    1799:	83 c4 20             	add    $0x20,%esp
    179c:	c9                   	leave  
    179d:	c3                   	ret    

0000179e <netbas_opendir>:
    179e:	55                   	push   %ebp
    179f:	89 e5                	mov    %esp,%ebp
    17a1:	83 ec 18             	sub    $0x18,%esp
    17a4:	83 ec 08             	sub    $0x8,%esp
    17a7:	6a 00                	push   $0x0
    17a9:	ff 75 08             	pushl  0x8(%ebp)
    17ac:	e8 72 ff ff ff       	call   1723 <_opendir>
    17b1:	83 c4 10             	add    $0x10,%esp
    17b4:	89 45 f4             	mov    %eax,0xfffffff4(%ebp)
    17b7:	8b 45 f4             	mov    0xfffffff4(%ebp),%eax
    17ba:	85 c0                	test   %eax,%eax
    17bc:	79 09                	jns    17c7 <netbas_opendir+0x29>
    17be:	c7 45 fc 00 00 00 00 	movl   $0x0,0xfffffffc(%ebp)
    17c5:	eb 53                	jmp    181a <netbas_opendir+0x7c>
    17c7:	83 ec 0c             	sub    $0xc,%esp
    17ca:	68 38 01 00 00       	push   $0x138
    17cf:	e8 d0 20 00 00       	call   38a4 <malloc>
    17d4:	83 c4 10             	add    $0x10,%esp
    17d7:	89 45 f8             	mov    %eax,0xfffffff8(%ebp)
    17da:	8b 45 f8             	mov    0xfffffff8(%ebp),%eax
    17dd:	85 c0                	test   %eax,%eax
    17df:	75 2b                	jne    180c <netbas_opendir+0x6e>
    17e1:	83 7d f8 00          	cmpl   $0x0,0xfffffff8(%ebp)
    17e5:	74 0e                	je     17f5 <netbas_opendir+0x57>
    17e7:	83 ec 0c             	sub    $0xc,%esp
    17ea:	ff 75 f8             	pushl  0xfffffff8(%ebp)
    17ed:	e8 cb 21 00 00       	call   39bd <free>
    17f2:	83 c4 10             	add    $0x10,%esp
    17f5:	83 ec 0c             	sub    $0xc,%esp
    17f8:	ff 75 f4             	pushl  0xfffffff4(%ebp)
    17fb:	e8 7c 2a 00 00       	call   427c <__libc_close>
    1800:	83 c4 10             	add    $0x10,%esp
    1803:	c7 45 fc 00 00 00 00 	movl   $0x0,0xfffffffc(%ebp)
    180a:	eb 0e                	jmp    181a <netbas_opendir+0x7c>
    180c:	8b 55 f4             	mov    0xfffffff4(%ebp),%edx
    180f:	8b 45 f8             	mov    0xfffffff8(%ebp),%eax
    1812:	89 10                	mov    %edx,(%eax)
    1814:	8b 45 f8             	mov    0xfffffff8(%ebp),%eax
    1817:	89 45 fc             	mov    %eax,0xfffffffc(%ebp)
    181a:	8b 45 fc             	mov    0xfffffffc(%ebp),%eax
    181d:	c9                   	leave  
    181e:	c3                   	ret    

0000181f <_readdir>:
    181f:	55                   	push   %ebp
    1820:	89 e5                	mov    %esp,%ebp
    1822:	83 ec 08             	sub    $0x8,%esp
    1825:	83 ec 08             	sub    $0x8,%esp
    1828:	6a 00                	push   $0x0
    182a:	6a 00                	push   $0x0
    182c:	ff 75 10             	pushl  0x10(%ebp)
    182f:	ff 75 0c             	pushl  0xc(%ebp)
    1832:	ff 75 08             	pushl  0x8(%ebp)
    1835:	6a 34                	push   $0x34
    1837:	e8 a2 00 00 00       	call   18de <netbas_system_call>
    183c:	83 c4 20             	add    $0x20,%esp
    183f:	c9                   	leave  
    1840:	c3                   	ret    

00001841 <netbas_readdir>:
    1841:	55                   	push   %ebp
    1842:	89 e5                	mov    %esp,%ebp
    1844:	83 ec 18             	sub    $0x18,%esp
    1847:	8b 45 08             	mov    0x8(%ebp),%eax
    184a:	8b 00                	mov    (%eax),%eax
    184c:	89 45 f8             	mov    %eax,0xfffffff8(%ebp)
    184f:	8b 45 08             	mov    0x8(%ebp),%eax
    1852:	83 c0 04             	add    $0x4,%eax
    1855:	89 45 f4             	mov    %eax,0xfffffff4(%ebp)
    1858:	83 ec 04             	sub    $0x4,%esp
    185b:	68 32 01 00 00       	push   $0x132
    1860:	ff 75 f4             	pushl  0xfffffff4(%ebp)
    1863:	ff 75 f8             	pushl  0xfffffff8(%ebp)
    1866:	e8 b4 ff ff ff       	call   181f <_readdir>
    186b:	83 c4 10             	add    $0x10,%esp
    186e:	89 45 fc             	mov    %eax,0xfffffffc(%ebp)
    1871:	83 7d fc 00          	cmpl   $0x0,0xfffffffc(%ebp)
    1875:	79 09                	jns    1880 <netbas_readdir+0x3f>
    1877:	c7 45 f0 00 00 00 00 	movl   $0x0,0xfffffff0(%ebp)
    187e:	eb 06                	jmp    1886 <netbas_readdir+0x45>
    1880:	8b 45 f4             	mov    0xfffffff4(%ebp),%eax
    1883:	89 45 f0             	mov    %eax,0xfffffff0(%ebp)
    1886:	8b 45 f0             	mov    0xfffffff0(%ebp),%eax
    1889:	c9                   	leave  
    188a:	c3                   	ret    

0000188b <closedir>:
    188b:	55                   	push   %ebp
    188c:	89 e5                	mov    %esp,%ebp
    188e:	83 ec 08             	sub    $0x8,%esp
    1891:	83 ec 0c             	sub    $0xc,%esp
    1894:	8b 45 08             	mov    0x8(%ebp),%eax
    1897:	ff 30                	pushl  (%eax)
    1899:	e8 de 29 00 00       	call   427c <__libc_close>
    189e:	83 c4 10             	add    $0x10,%esp
    18a1:	83 ec 0c             	sub    $0xc,%esp
    18a4:	ff 75 08             	pushl  0x8(%ebp)
    18a7:	e8 11 21 00 00       	call   39bd <free>
    18ac:	83 c4 10             	add    $0x10,%esp
    18af:	b8 00 00 00 00       	mov    $0x0,%eax
    18b4:	c9                   	leave  
    18b5:	c3                   	ret    

000018b6 <netbas_ioctl>:
    18b6:	55                   	push   %ebp
    18b7:	89 e5                	mov    %esp,%ebp
    18b9:	83 ec 08             	sub    $0x8,%esp
    18bc:	83 ec 08             	sub    $0x8,%esp
    18bf:	6a 00                	push   $0x0
    18c1:	ff 75 14             	pushl  0x14(%ebp)
    18c4:	ff 75 10             	pushl  0x10(%ebp)
    18c7:	ff 75 0c             	pushl  0xc(%ebp)
    18ca:	ff 75 08             	pushl  0x8(%ebp)
    18cd:	6a 36                	push   $0x36
    18cf:	e8 0a 00 00 00       	call   18de <netbas_system_call>
    18d4:	83 c4 20             	add    $0x20,%esp
    18d7:	c9                   	leave  
    18d8:	c3                   	ret    

000018d9 <__set_h_errno>:
    18d9:	55                   	push   %ebp
    18da:	89 e5                	mov    %esp,%ebp
    18dc:	c9                   	leave  
    18dd:	c3                   	ret    

000018de <netbas_system_call>:
    18de:	55                   	push   %ebp
    18df:	89 e5                	mov    %esp,%ebp
    18e1:	57                   	push   %edi
    18e2:	56                   	push   %esi
    18e3:	53                   	push   %ebx
    18e4:	83 ec 04             	sub    $0x4,%esp
    18e7:	8b 45 08             	mov    0x8(%ebp),%eax
    18ea:	8b 5d 0c             	mov    0xc(%ebp),%ebx
    18ed:	8b 4d 10             	mov    0x10(%ebp),%ecx
    18f0:	8b 55 14             	mov    0x14(%ebp),%edx
    18f3:	8b 75 18             	mov    0x18(%ebp),%esi
    18f6:	8b 7d 1c             	mov    0x1c(%ebp),%edi
    18f9:	cd 60                	int    $0x60
    18fb:	89 45 f0             	mov    %eax,0xfffffff0(%ebp)
    18fe:	8b 45 f0             	mov    0xfffffff0(%ebp),%eax
    1901:	83 c4 04             	add    $0x4,%esp
    1904:	5b                   	pop    %ebx
    1905:	5e                   	pop    %esi
    1906:	5f                   	pop    %edi
    1907:	c9                   	leave  
    1908:	c3                   	ret    
    1909:	90                   	nop    
    190a:	90                   	nop    
    190b:	90                   	nop    

0000190c <__uClibc_init>:
    190c:	55                   	push   %ebp
    190d:	89 e5                	mov    %esp,%ebp
    190f:	83 ec 08             	sub    $0x8,%esp
    1912:	83 3d 60 74 00 00 00 	cmpl   $0x0,0x7460
    1919:	74 02                	je     191d <__uClibc_init+0x11>
    191b:	eb 14                	jmp    1931 <__uClibc_init+0x25>
    191d:	ff 05 60 74 00 00    	incl   0x7460
    1923:	b8 71 1a 00 00       	mov    $0x1a71,%eax
    1928:	85 c0                	test   %eax,%eax
    192a:	74 05                	je     1931 <__uClibc_init+0x25>
    192c:	e8 40 01 00 00       	call   1a71 <_stdio_init>
    1931:	c9                   	leave  
    1932:	c3                   	ret    

00001933 <__uClibc_start_main>:
    1933:	55                   	push   %ebp
    1934:	89 e5                	mov    %esp,%ebp
    1936:	83 ec 08             	sub    $0x8,%esp
    1939:	83 3d 58 74 00 00 00 	cmpl   $0x0,0x7458
    1940:	75 08                	jne    194a <__uClibc_start_main+0x17>
    1942:	8b 45 10             	mov    0x10(%ebp),%eax
    1945:	a3 58 74 00 00       	mov    %eax,0x7458
    194a:	e8 bd ff ff ff       	call   190c <__uClibc_init>
    194f:	8b 45 0c             	mov    0xc(%ebp),%eax
    1952:	8b 00                	mov    (%eax),%eax
    1954:	a3 5c 74 00 00       	mov    %eax,0x745c
    1959:	b8 00 00 00 00       	mov    $0x0,%eax
    195e:	85 c0                	test   %eax,%eax
    1960:	74 0b                	je     196d <__uClibc_start_main+0x3a>
    1962:	e8 99 e6 ff ff       	call   0 <_start-0x1000>
    1967:	c7 00 00 00 00 00    	movl   $0x0,(%eax)
    196d:	b8 00 00 00 00       	mov    $0x0,%eax
    1972:	85 c0                	test   %eax,%eax
    1974:	74 0b                	je     1981 <__uClibc_start_main+0x4e>
    1976:	e8 85 e6 ff ff       	call   0 <_start-0x1000>
    197b:	c7 00 00 00 00 00    	movl   $0x0,(%eax)
    1981:	83 ec 0c             	sub    $0xc,%esp
    1984:	83 ec 08             	sub    $0x8,%esp
    1987:	ff 75 10             	pushl  0x10(%ebp)
    198a:	ff 75 0c             	pushl  0xc(%ebp)
    198d:	ff 75 08             	pushl  0x8(%ebp)
    1990:	e8 87 f6 ff ff       	call   101c <main>
    1995:	83 c4 14             	add    $0x14,%esp
    1998:	50                   	push   %eax
    1999:	e8 d6 19 00 00       	call   3374 <exit>

0000199e <__uClibc_main>:
    199e:	55                   	push   %ebp
    199f:	89 e5                	mov    %esp,%ebp
    19a1:	83 ec 08             	sub    $0x8,%esp
    19a4:	83 ec 0c             	sub    $0xc,%esp
    19a7:	6a 00                	push   $0x0
    19a9:	6a 00                	push   $0x0
    19ab:	ff 75 10             	pushl  0x10(%ebp)
    19ae:	ff 75 0c             	pushl  0xc(%ebp)
    19b1:	ff 75 08             	pushl  0x8(%ebp)
    19b4:	e8 7a ff ff ff       	call   1933 <__uClibc_start_main>
    19b9:	90                   	nop    
    19ba:	90                   	nop    
    19bb:	90                   	nop    

000019bc <perror>:
    19bc:	55                   	push   %ebp
    19bd:	89 e5                	mov    %esp,%ebp
    19bf:	83 ec 58             	sub    $0x58,%esp
    19c2:	c7 45 b4 5f 5c 00 00 	movl   $0x5c5f,0xffffffb4(%ebp)
    19c9:	83 7d 08 00          	cmpl   $0x0,0x8(%ebp)
    19cd:	74 08                	je     19d7 <perror+0x1b>
    19cf:	8b 45 08             	mov    0x8(%ebp),%eax
    19d2:	80 38 00             	cmpb   $0x0,(%eax)
    19d5:	75 0a                	jne    19e1 <perror+0x25>
    19d7:	83 45 b4 02          	addl   $0x2,0xffffffb4(%ebp)
    19db:	8b 45 b4             	mov    0xffffffb4(%ebp),%eax
    19de:	89 45 08             	mov    %eax,0x8(%ebp)
    19e1:	83 ec 0c             	sub    $0xc,%esp
    19e4:	83 ec 08             	sub    $0x8,%esp
    19e7:	6a 40                	push   $0x40
    19e9:	8d 45 b8             	lea    0xffffffb8(%ebp),%eax
    19ec:	50                   	push   %eax
    19ed:	ff 35 64 74 00 00    	pushl  0x7464
    19f3:	e8 20 15 00 00       	call   2f18 <_glibc_strerror_r>
    19f8:	83 c4 14             	add    $0x14,%esp
    19fb:	50                   	push   %eax
    19fc:	ff 75 b4             	pushl  0xffffffb4(%ebp)
    19ff:	ff 75 08             	pushl  0x8(%ebp)
    1a02:	68 62 5c 00 00       	push   $0x5c62
    1a07:	ff 35 b4 72 00 00    	pushl  0x72b4
    1a0d:	e8 3a 01 00 00       	call   1b4c <fprintf>
    1a12:	83 c4 20             	add    $0x20,%esp
    1a15:	c9                   	leave  
    1a16:	c3                   	ret    
    1a17:	90                   	nop    

00001a18 <puts>:
    1a18:	55                   	push   %ebp
    1a19:	89 e5                	mov    %esp,%ebp
    1a1b:	53                   	push   %ebx
    1a1c:	83 ec 04             	sub    $0x4,%esp
    1a1f:	8b 45 08             	mov    0x8(%ebp),%eax
    1a22:	8b 1d b0 72 00 00    	mov    0x72b0,%ebx
    1a28:	83 ec 08             	sub    $0x8,%esp
    1a2b:	53                   	push   %ebx
    1a2c:	50                   	push   %eax
    1a2d:	e8 d2 2c 00 00       	call   4704 <fputs>
    1a32:	83 c4 10             	add    $0x10,%esp
    1a35:	40                   	inc    %eax
    1a36:	89 45 f8             	mov    %eax,0xfffffff8(%ebp)
    1a39:	83 ec 08             	sub    $0x8,%esp
    1a3c:	53                   	push   %ebx
    1a3d:	6a 0a                	push   $0xa
    1a3f:	e8 84 2c 00 00       	call   46c8 <fputc>
    1a44:	83 c4 10             	add    $0x10,%esp
    1a47:	83 f8 ff             	cmp    $0xffffffff,%eax
    1a4a:	75 07                	jne    1a53 <puts+0x3b>
    1a4c:	c7 45 f8 ff ff ff ff 	movl   $0xffffffff,0xfffffff8(%ebp)
    1a53:	8b 45 f8             	mov    0xfffffff8(%ebp),%eax
    1a56:	8b 5d fc             	mov    0xfffffffc(%ebp),%ebx
    1a59:	c9                   	leave  
    1a5a:	c3                   	ret    
    1a5b:	90                   	nop    

00001a5c <_stdio_term>:
    1a5c:	55                   	push   %ebp
    1a5d:	89 e5                	mov    %esp,%ebp
    1a5f:	83 ec 08             	sub    $0x8,%esp
    1a62:	83 ec 0c             	sub    $0xc,%esp
    1a65:	6a 00                	push   $0x0
    1a67:	e8 a4 2b 00 00       	call   4610 <fflush>
    1a6c:	83 c4 10             	add    $0x10,%esp
    1a6f:	c9                   	leave  
    1a70:	c3                   	ret    

00001a71 <_stdio_init>:
    1a71:	55                   	push   %ebp
    1a72:	89 e5                	mov    %esp,%ebp
    1a74:	83 ec 08             	sub    $0x8,%esp
    1a77:	a1 64 74 00 00       	mov    0x7464,%eax
    1a7c:	89 45 fc             	mov    %eax,0xfffffffc(%ebp)
    1a7f:	83 ec 0c             	sub    $0xc,%esp
    1a82:	6a 00                	push   $0x0
    1a84:	e8 af 14 00 00       	call   2f38 <isatty>
    1a89:	83 c4 10             	add    $0x10,%esp
    1a8c:	89 c2                	mov    %eax,%edx
    1a8e:	b8 01 00 00 00       	mov    $0x1,%eax
    1a93:	29 d0                	sub    %edx,%eax
    1a95:	c1 e0 08             	shl    $0x8,%eax
    1a98:	66 31 05 40 72 00 00 	xor    %ax,0x7240
    1a9f:	83 ec 0c             	sub    $0xc,%esp
    1aa2:	6a 01                	push   $0x1
    1aa4:	e8 8f 14 00 00       	call   2f38 <isatty>
    1aa9:	83 c4 10             	add    $0x10,%esp
    1aac:	89 c2                	mov    %eax,%edx
    1aae:	b8 01 00 00 00       	mov    $0x1,%eax
    1ab3:	29 d0                	sub    %edx,%eax
    1ab5:	c1 e0 08             	shl    $0x8,%eax
    1ab8:	66 31 05 64 72 00 00 	xor    %ax,0x7264
    1abf:	8b 45 fc             	mov    0xfffffffc(%ebp),%eax
    1ac2:	a3 64 74 00 00       	mov    %eax,0x7464
    1ac7:	c9                   	leave  
    1ac8:	c3                   	ret    
    1ac9:	90                   	nop    
    1aca:	90                   	nop    
    1acb:	90                   	nop    

00001acc <vsnprintf>:
    1acc:	55                   	push   %ebp
    1acd:	89 e5                	mov    %esp,%ebp
    1acf:	83 ec 48             	sub    $0x48,%esp
    1ad2:	8b 45 08             	mov    0x8(%ebp),%eax
    1ad5:	89 45 d4             	mov    %eax,0xffffffd4(%ebp)
    1ad8:	89 45 e0             	mov    %eax,0xffffffe0(%ebp)
    1adb:	89 45 dc             	mov    %eax,0xffffffdc(%ebp)
    1ade:	89 45 e4             	mov    %eax,0xffffffe4(%ebp)
    1ae1:	b8 ff ff ff ff       	mov    $0xffffffff,%eax
    1ae6:	2b 45 08             	sub    0x8(%ebp),%eax
    1ae9:	39 45 0c             	cmp    %eax,0xc(%ebp)
    1aec:	76 0b                	jbe    1af9 <vsnprintf+0x2d>
    1aee:	b8 ff ff ff ff       	mov    $0xffffffff,%eax
    1af3:	2b 45 08             	sub    0x8(%ebp),%eax
    1af6:	89 45 0c             	mov    %eax,0xc(%ebp)
    1af9:	8b 45 0c             	mov    0xc(%ebp),%eax
    1afc:	03 45 08             	add    0x8(%ebp),%eax
    1aff:	89 45 d8             	mov    %eax,0xffffffd8(%ebp)
    1b02:	8b 45 d8             	mov    0xffffffd8(%ebp),%eax
    1b05:	89 45 e8             	mov    %eax,0xffffffe8(%ebp)
    1b08:	c7 45 cc fe ff ff ff 	movl   $0xfffffffe,0xffffffcc(%ebp)
    1b0f:	66 c7 45 c8 90 20    	movw   $0x2090,0xffffffc8(%ebp)
    1b15:	83 ec 04             	sub    $0x4,%esp
    1b18:	ff 75 14             	pushl  0x14(%ebp)
    1b1b:	ff 75 10             	pushl  0x10(%ebp)
    1b1e:	8d 45 c8             	lea    0xffffffc8(%ebp),%eax
    1b21:	50                   	push   %eax
    1b22:	e8 f8 06 00 00       	call   221f <vfprintf>
    1b27:	83 c4 10             	add    $0x10,%esp
    1b2a:	89 45 c4             	mov    %eax,0xffffffc4(%ebp)
    1b2d:	83 7d 0c 00          	cmpl   $0x0,0xc(%ebp)
    1b31:	74 13                	je     1b46 <vsnprintf+0x7a>
    1b33:	8b 45 dc             	mov    0xffffffdc(%ebp),%eax
    1b36:	3b 45 d8             	cmp    0xffffffd8(%ebp),%eax
    1b39:	75 05                	jne    1b40 <vsnprintf+0x74>
    1b3b:	8d 45 dc             	lea    0xffffffdc(%ebp),%eax
    1b3e:	ff 08                	decl   (%eax)
    1b40:	8b 45 dc             	mov    0xffffffdc(%ebp),%eax
    1b43:	c6 00 00             	movb   $0x0,(%eax)
    1b46:	8b 45 c4             	mov    0xffffffc4(%ebp),%eax
    1b49:	c9                   	leave  
    1b4a:	c3                   	ret    
    1b4b:	90                   	nop    

00001b4c <fprintf>:
    1b4c:	55                   	push   %ebp
    1b4d:	89 e5                	mov    %esp,%ebp
    1b4f:	83 ec 08             	sub    $0x8,%esp
    1b52:	8d 45 10             	lea    0x10(%ebp),%eax
    1b55:	89 45 fc             	mov    %eax,0xfffffffc(%ebp)
    1b58:	83 ec 04             	sub    $0x4,%esp
    1b5b:	ff 75 fc             	pushl  0xfffffffc(%ebp)
    1b5e:	ff 75 0c             	pushl  0xc(%ebp)
    1b61:	ff 75 08             	pushl  0x8(%ebp)
    1b64:	e8 b6 06 00 00       	call   221f <vfprintf>
    1b69:	83 c4 10             	add    $0x10,%esp
    1b6c:	89 45 f8             	mov    %eax,0xfffffff8(%ebp)
    1b6f:	8b 45 f8             	mov    0xfffffff8(%ebp),%eax
    1b72:	c9                   	leave  
    1b73:	c3                   	ret    

00001b74 <printf>:
    1b74:	55                   	push   %ebp
    1b75:	89 e5                	mov    %esp,%ebp
    1b77:	83 ec 08             	sub    $0x8,%esp
    1b7a:	8d 45 0c             	lea    0xc(%ebp),%eax
    1b7d:	89 45 fc             	mov    %eax,0xfffffffc(%ebp)
    1b80:	83 ec 04             	sub    $0x4,%esp
    1b83:	ff 75 fc             	pushl  0xfffffffc(%ebp)
    1b86:	ff 75 08             	pushl  0x8(%ebp)
    1b89:	ff 35 b0 72 00 00    	pushl  0x72b0
    1b8f:	e8 8b 06 00 00       	call   221f <vfprintf>
    1b94:	83 c4 10             	add    $0x10,%esp
    1b97:	89 45 f8             	mov    %eax,0xfffffff8(%ebp)
    1b9a:	8b 45 f8             	mov    0xfffffff8(%ebp),%eax
    1b9d:	c9                   	leave  
    1b9e:	c3                   	ret    
    1b9f:	90                   	nop    

00001ba0 <sprintf>:
    1ba0:	55                   	push   %ebp
    1ba1:	89 e5                	mov    %esp,%ebp
    1ba3:	83 ec 08             	sub    $0x8,%esp
    1ba6:	8d 45 10             	lea    0x10(%ebp),%eax
    1ba9:	89 45 fc             	mov    %eax,0xfffffffc(%ebp)
    1bac:	ff 75 fc             	pushl  0xfffffffc(%ebp)
    1baf:	ff 75 0c             	pushl  0xc(%ebp)
    1bb2:	6a ff                	push   $0xffffffff
    1bb4:	ff 75 08             	pushl  0x8(%ebp)
    1bb7:	e8 10 ff ff ff       	call   1acc <vsnprintf>
    1bbc:	83 c4 10             	add    $0x10,%esp
    1bbf:	89 45 f8             	mov    %eax,0xfffffff8(%ebp)
    1bc2:	8b 45 f8             	mov    0xfffffff8(%ebp),%eax
    1bc5:	c9                   	leave  
    1bc6:	c3                   	ret    
    1bc7:	90                   	nop    
    1bc8:	55                   	push   %ebp
    1bc9:	89 e5                	mov    %esp,%ebp
    1bcb:	83 ec 08             	sub    $0x8,%esp
    1bce:	b0 80                	mov    $0x80,%al
    1bd0:	23 45 0c             	and    0xc(%ebp),%eax
    1bd3:	84 c0                	test   %al,%al
    1bd5:	74 3e                	je     1c15 <sprintf+0x75>
    1bd7:	83 ec 0c             	sub    $0xc,%esp
    1bda:	ff 75 14             	pushl  0x14(%ebp)
    1bdd:	e8 ce 11 00 00       	call   2db0 <strlen>
    1be2:	83 c4 10             	add    $0x10,%esp
    1be5:	89 45 fc             	mov    %eax,0xfffffffc(%ebp)
    1be8:	8b 55 fc             	mov    0xfffffffc(%ebp),%edx
    1beb:	8d 45 10             	lea    0x10(%ebp),%eax
    1bee:	29 10                	sub    %edx,(%eax)
    1bf0:	8b 45 10             	mov    0x10(%ebp),%eax
    1bf3:	85 c0                	test   %eax,%eax
    1bf5:	7e 18                	jle    1c0f <sprintf+0x6f>
    1bf7:	83 ec 04             	sub    $0x4,%esp
    1bfa:	ff 75 10             	pushl  0x10(%ebp)
    1bfd:	8b 45 0c             	mov    0xc(%ebp),%eax
    1c00:	83 e0 7f             	and    $0x7f,%eax
    1c03:	50                   	push   %eax
    1c04:	ff 75 08             	pushl  0x8(%ebp)
    1c07:	e8 1f 00 00 00       	call   1c2b <sprintf+0x8b>
    1c0c:	83 c4 10             	add    $0x10,%esp
    1c0f:	8b 45 fc             	mov    0xfffffffc(%ebp),%eax
    1c12:	89 45 10             	mov    %eax,0x10(%ebp)
    1c15:	83 ec 04             	sub    $0x4,%esp
    1c18:	ff 75 08             	pushl  0x8(%ebp)
    1c1b:	ff 75 10             	pushl  0x10(%ebp)
    1c1e:	ff 75 14             	pushl  0x14(%ebp)
    1c21:	e8 94 2b 00 00       	call   47ba <_stdio_fwrite>
    1c26:	83 c4 10             	add    $0x10,%esp
    1c29:	c9                   	leave  
    1c2a:	c3                   	ret    
    1c2b:	55                   	push   %ebp
    1c2c:	89 e5                	mov    %esp,%ebp
    1c2e:	83 ec 08             	sub    $0x8,%esp
    1c31:	8a 45 0c             	mov    0xc(%ebp),%al
    1c34:	88 45 ff             	mov    %al,0xffffffff(%ebp)
    1c37:	83 7d 10 00          	cmpl   $0x0,0x10(%ebp)
    1c3b:	75 02                	jne    1c3f <sprintf+0x9f>
    1c3d:	eb 1b                	jmp    1c5a <sprintf+0xba>
    1c3f:	83 ec 04             	sub    $0x4,%esp
    1c42:	ff 75 08             	pushl  0x8(%ebp)
    1c45:	6a 01                	push   $0x1
    1c47:	8d 45 ff             	lea    0xffffffff(%ebp),%eax
    1c4a:	50                   	push   %eax
    1c4b:	e8 6a 2b 00 00       	call   47ba <_stdio_fwrite>
    1c50:	83 c4 10             	add    $0x10,%esp
    1c53:	8d 45 10             	lea    0x10(%ebp),%eax
    1c56:	ff 08                	decl   (%eax)
    1c58:	eb dd                	jmp    1c37 <sprintf+0x97>
    1c5a:	c9                   	leave  
    1c5b:	c3                   	ret    
    1c5c:	55                   	push   %ebp
    1c5d:	89 e5                	mov    %esp,%ebp
    1c5f:	81 ec 08 01 00 00    	sub    $0x108,%esp
    1c65:	c7 45 dc 00 00 00 00 	movl   $0x0,0xffffffdc(%ebp)
    1c6c:	c7 45 d8 0b 00 00 00 	movl   $0xb,0xffffffd8(%ebp)
    1c73:	c6 45 d7 20          	movb   $0x20,0xffffffd7(%ebp)
    1c77:	83 ec 0c             	sub    $0xc,%esp
    1c7a:	ff 75 0c             	pushl  0xc(%ebp)
    1c7d:	e8 dc 35 00 00       	call   525e <_ppfs_parsespec>
    1c82:	83 c4 10             	add    $0x10,%esp
    1c85:	83 ec 0c             	sub    $0xc,%esp
    1c88:	ff 75 0c             	pushl  0xc(%ebp)
    1c8b:	e8 d4 32 00 00       	call   4f64 <_ppfs_setargs>
    1c90:	83 c4 10             	add    $0x10,%esp
    1c93:	8b 55 0c             	mov    0xc(%ebp),%edx
    1c96:	0f b6 42 26          	movzbl 0x26(%edx),%eax
    1c9a:	c1 e0 02             	shl    $0x2,%eax
    1c9d:	03 45 0c             	add    0xc(%ebp),%eax
    1ca0:	83 c0 24             	add    $0x24,%eax
    1ca3:	89 45 f0             	mov    %eax,0xfffffff0(%ebp)
    1ca6:	8b 4d 0c             	mov    0xc(%ebp),%ecx
    1ca9:	83 c1 50             	add    $0x50,%ecx
    1cac:	89 8d 38 ff ff ff    	mov    %ecx,0xffffff38(%ebp)
    1cb2:	8b 45 0c             	mov    0xc(%ebp),%eax
    1cb5:	83 78 18 00          	cmpl   $0x0,0x18(%eax)
    1cb9:	7e 21                	jle    1cdc <sprintf+0x13c>
    1cbb:	8b 55 0c             	mov    0xc(%ebp),%edx
    1cbe:	0f b6 42 26          	movzbl 0x26(%edx),%eax
    1cc2:	89 c2                	mov    %eax,%edx
    1cc4:	d1 e2                	shl    %edx
    1cc6:	01 c2                	add    %eax,%edx
    1cc8:	8d 04 95 00 00 00 00 	lea    0x0(,%edx,4),%eax
    1ccf:	01 85 38 ff ff ff    	add    %eax,0xffffff38(%ebp)
    1cd5:	83 ad 38 ff ff ff 0c 	subl   $0xc,0xffffff38(%ebp)
    1cdc:	c7 85 44 ff ff ff 00 	movl   $0x0,0xffffff44(%ebp)
    1ce3:	00 00 00 
    1ce6:	8b 85 44 ff ff ff    	mov    0xffffff44(%ebp),%eax
    1cec:	8b 4d 0c             	mov    0xc(%ebp),%ecx
    1cef:	3b 41 1c             	cmp    0x1c(%ecx),%eax
    1cf2:	7c 02                	jl     1cf6 <sprintf+0x156>
    1cf4:	eb 21                	jmp    1d17 <sprintf+0x177>
    1cf6:	8b 95 44 ff ff ff    	mov    0xffffff44(%ebp),%edx
    1cfc:	8b 85 38 ff ff ff    	mov    0xffffff38(%ebp),%eax
    1d02:	89 44 95 f4          	mov    %eax,0xfffffff4(%ebp,%edx,4)
    1d06:	83 85 38 ff ff ff 0c 	addl   $0xc,0xffffff38(%ebp)
    1d0d:	8d 85 44 ff ff ff    	lea    0xffffff44(%ebp),%eax
    1d13:	ff 00                	incl   (%eax)
    1d15:	eb cf                	jmp    1ce6 <sprintf+0x146>
    1d17:	8b 45 0c             	mov    0xc(%ebp),%eax
    1d1a:	83 78 20 00          	cmpl   $0x0,0x20(%eax)
    1d1e:	75 30                	jne    1d50 <sprintf+0x1b0>
    1d20:	8b 45 10             	mov    0x10(%ebp),%eax
    1d23:	8b 00                	mov    (%eax),%eax
    1d25:	99                   	cltd   
    1d26:	52                   	push   %edx
    1d27:	50                   	push   %eax
    1d28:	8b 55 0c             	mov    0xc(%ebp),%edx
    1d2b:	8b 42 10             	mov    0x10(%edx),%eax
    1d2e:	25 00 0f 00 00       	and    $0xf00,%eax
    1d33:	50                   	push   %eax
    1d34:	8b 45 f4             	mov    0xfffffff4(%ebp),%eax
    1d37:	ff 30                	pushl  (%eax)
    1d39:	e8 f2 2f 00 00       	call   4d30 <_store_inttype>
    1d3e:	83 c4 10             	add    $0x10,%esp
    1d41:	c7 85 3c ff ff ff 00 	movl   $0x0,0xffffff3c(%ebp)
    1d48:	00 00 00 
    1d4b:	e9 c7 04 00 00       	jmp    2217 <sprintf+0x677>
    1d50:	8b 4d 0c             	mov    0xc(%ebp),%ecx
    1d53:	83 79 20 07          	cmpl   $0x7,0x20(%ecx)
    1d57:	0f 87 36 02 00 00    	ja     1f93 <sprintf+0x3f3>
    1d5d:	c7 45 e0 57 00 00 00 	movl   $0x57,0xffffffe0(%ebp)
    1d64:	8b 55 0c             	mov    0xc(%ebp),%edx
    1d67:	8b 42 20             	mov    0x20(%edx),%eax
    1d6a:	05 69 5c 00 00       	add    $0x5c69,%eax
    1d6f:	0f be 00             	movsbl (%eax),%eax
    1d72:	89 45 e8             	mov    %eax,0xffffffe8(%ebp)
    1d75:	8b 45 e8             	mov    0xffffffe8(%ebp),%eax
    1d78:	83 f8 0a             	cmp    $0xa,%eax
    1d7b:	75 2a                	jne    1da7 <sprintf+0x207>
    1d7d:	8b 4d 0c             	mov    0xc(%ebp),%ecx
    1d80:	8b 41 10             	mov    0x10(%ecx),%eax
    1d83:	83 e0 20             	and    $0x20,%eax
    1d86:	85 c0                	test   %eax,%eax
    1d88:	74 07                	je     1d91 <sprintf+0x1f1>
    1d8a:	c7 45 e0 2c 00 00 00 	movl   $0x2c,0xffffffe0(%ebp)
    1d91:	8b 55 0c             	mov    0xc(%ebp),%edx
    1d94:	8b 42 10             	mov    0x10(%edx),%eax
    1d97:	83 e0 40             	and    $0x40,%eax
    1d9a:	85 c0                	test   %eax,%eax
    1d9c:	74 09                	je     1da7 <sprintf+0x207>
    1d9e:	8d 45 e0             	lea    0xffffffe0(%ebp),%eax
    1da1:	81 08 80 00 00 00    	orl    $0x80,(%eax)
    1da7:	8b 4d 0c             	mov    0xc(%ebp),%ecx
    1daa:	83 79 20 05          	cmpl   $0x5,0x20(%ecx)
    1dae:	77 22                	ja     1dd2 <sprintf+0x232>
    1db0:	8b 45 0c             	mov    0xc(%ebp),%eax
    1db3:	83 78 20 03          	cmpl   $0x3,0x20(%eax)
    1db7:	75 07                	jne    1dc0 <sprintf+0x220>
    1db9:	c7 45 e0 37 00 00 00 	movl   $0x37,0xffffffe0(%ebp)
    1dc0:	8b 55 0c             	mov    0xc(%ebp),%edx
    1dc3:	83 7a 20 01          	cmpl   $0x1,0x20(%edx)
    1dc7:	75 0e                	jne    1dd7 <sprintf+0x237>
    1dc9:	c7 45 d8 06 00 00 00 	movl   $0x6,0xffffffd8(%ebp)
    1dd0:	eb 05                	jmp    1dd7 <sprintf+0x237>
    1dd2:	8d 45 e8             	lea    0xffffffe8(%ebp),%eax
    1dd5:	f7 18                	negl   (%eax)
    1dd7:	8b 4d 0c             	mov    0xc(%ebp),%ecx
    1dda:	83 79 04 00          	cmpl   $0x0,0x4(%ecx)
    1dde:	79 09                	jns    1de9 <sprintf+0x249>
    1de0:	8b 55 0c             	mov    0xc(%ebp),%edx
    1de3:	8a 42 14             	mov    0x14(%edx),%al
    1de6:	88 45 d7             	mov    %al,0xffffffd7(%ebp)
    1de9:	83 ec 0c             	sub    $0xc,%esp
    1dec:	ff 75 e0             	pushl  0xffffffe0(%ebp)
    1def:	ff 75 e8             	pushl  0xffffffe8(%ebp)
    1df2:	ff 75 e8             	pushl  0xffffffe8(%ebp)
    1df5:	ff 75 f4             	pushl  0xfffffff4(%ebp)
    1df8:	8b 45 f0             	mov    0xfffffff0(%ebp),%eax
    1dfb:	8b 00                	mov    (%eax),%eax
    1dfd:	25 00 0f 00 00       	and    $0xf00,%eax
    1e02:	50                   	push   %eax
    1e03:	e8 84 2f 00 00       	call   4d8c <_load_inttype>
    1e08:	83 c4 0c             	add    $0xc,%esp
    1e0b:	52                   	push   %edx
    1e0c:	50                   	push   %eax
    1e0d:	8d 85 48 ff ff ff    	lea    0xffffff48(%ebp),%eax
    1e13:	83 c0 7f             	add    $0x7f,%eax
    1e16:	50                   	push   %eax
    1e17:	e8 0c 2d 00 00       	call   4b28 <_uintmaxtostr>
    1e1c:	83 c4 20             	add    $0x20,%esp
    1e1f:	89 85 34 ff ff ff    	mov    %eax,0xffffff34(%ebp)
    1e25:	8b 4d 0c             	mov    0xc(%ebp),%ecx
    1e28:	83 79 20 05          	cmpl   $0x5,0x20(%ecx)
    1e2c:	76 4b                	jbe    1e79 <sprintf+0x2d9>
    1e2e:	8b 85 34 ff ff ff    	mov    0xffffff34(%ebp),%eax
    1e34:	80 38 2d             	cmpb   $0x2d,(%eax)
    1e37:	75 16                	jne    1e4f <sprintf+0x2af>
    1e39:	8b 55 0c             	mov    0xc(%ebp),%edx
    1e3c:	83 4a 10 02          	orl    $0x2,0x10(%edx)
    1e40:	ff 85 34 ff ff ff    	incl   0xffffff34(%ebp)
    1e46:	c7 45 d8 02 00 00 00 	movl   $0x2,0xffffffd8(%ebp)
    1e4d:	eb 2a                	jmp    1e79 <sprintf+0x2d9>
    1e4f:	8b 4d 0c             	mov    0xc(%ebp),%ecx
    1e52:	8b 41 10             	mov    0x10(%ecx),%eax
    1e55:	83 e0 02             	and    $0x2,%eax
    1e58:	85 c0                	test   %eax,%eax
    1e5a:	74 09                	je     1e65 <sprintf+0x2c5>
    1e5c:	c7 45 d8 00 00 00 00 	movl   $0x0,0xffffffd8(%ebp)
    1e63:	eb 14                	jmp    1e79 <sprintf+0x2d9>
    1e65:	8b 55 0c             	mov    0xc(%ebp),%edx
    1e68:	8b 42 10             	mov    0x10(%edx),%eax
    1e6b:	83 e0 01             	and    $0x1,%eax
    1e6e:	85 c0                	test   %eax,%eax
    1e70:	74 07                	je     1e79 <sprintf+0x2d9>
    1e72:	c7 45 d8 04 00 00 00 	movl   $0x4,0xffffffd8(%ebp)
    1e79:	8d 85 48 ff ff ff    	lea    0xffffff48(%ebp),%eax
    1e7f:	2b 85 34 ff ff ff    	sub    0xffffff34(%ebp),%eax
    1e85:	83 c0 7f             	add    $0x7f,%eax
    1e88:	89 45 ec             	mov    %eax,0xffffffec(%ebp)
    1e8b:	8b 4d 0c             	mov    0xc(%ebp),%ecx
    1e8e:	8b 49 04             	mov    0x4(%ecx),%ecx
    1e91:	89 8d 30 ff ff ff    	mov    %ecx,0xffffff30(%ebp)
    1e97:	8b 45 0c             	mov    0xc(%ebp),%eax
    1e9a:	83 78 04 00          	cmpl   $0x0,0x4(%eax)
    1e9e:	79 0a                	jns    1eaa <sprintf+0x30a>
    1ea0:	c7 85 30 ff ff ff 01 	movl   $0x1,0xffffff30(%ebp)
    1ea7:	00 00 00 
    1eaa:	8b 95 30 ff ff ff    	mov    0xffffff30(%ebp),%edx
    1eb0:	89 55 dc             	mov    %edx,0xffffffdc(%ebp)
    1eb3:	8b 4d 0c             	mov    0xc(%ebp),%ecx
    1eb6:	8b 41 10             	mov    0x10(%ecx),%eax
    1eb9:	83 e0 10             	and    $0x10,%eax
    1ebc:	85 c0                	test   %eax,%eax
    1ebe:	74 5b                	je     1f1b <sprintf+0x37b>
    1ec0:	8b 45 0c             	mov    0xc(%ebp),%eax
    1ec3:	83 78 20 02          	cmpl   $0x2,0x20(%eax)
    1ec7:	77 07                	ja     1ed0 <sprintf+0x330>
    1ec9:	c7 45 d8 06 00 00 00 	movl   $0x6,0xffffffd8(%ebp)
    1ed0:	8b 55 0c             	mov    0xc(%ebp),%edx
    1ed3:	83 7a 20 03          	cmpl   $0x3,0x20(%edx)
    1ed7:	75 07                	jne    1ee0 <sprintf+0x340>
    1ed9:	c7 45 d8 09 00 00 00 	movl   $0x9,0xffffffd8(%ebp)
    1ee0:	8b 4d 0c             	mov    0xc(%ebp),%ecx
    1ee3:	83 79 20 04          	cmpl   $0x4,0x20(%ecx)
    1ee7:	75 32                	jne    1f1b <sprintf+0x37b>
    1ee9:	8b 45 dc             	mov    0xffffffdc(%ebp),%eax
    1eec:	3b 45 ec             	cmp    0xffffffec(%ebp),%eax
    1eef:	77 2a                	ja     1f1b <sprintf+0x37b>
    1ef1:	8b 85 34 ff ff ff    	mov    0xffffff34(%ebp),%eax
    1ef7:	80 38 30             	cmpb   $0x30,(%eax)
    1efa:	74 0c                	je     1f08 <sprintf+0x368>
    1efc:	8b 55 ec             	mov    0xffffffec(%ebp),%edx
    1eff:	42                   	inc    %edx
    1f00:	89 95 2c ff ff ff    	mov    %edx,0xffffff2c(%ebp)
    1f06:	eb 0a                	jmp    1f12 <sprintf+0x372>
    1f08:	c7 85 2c ff ff ff 01 	movl   $0x1,0xffffff2c(%ebp)
    1f0f:	00 00 00 
    1f12:	8b 8d 2c ff ff ff    	mov    0xffffff2c(%ebp),%ecx
    1f18:	89 4d dc             	mov    %ecx,0xffffffdc(%ebp)
    1f1b:	8b 85 34 ff ff ff    	mov    0xffffff34(%ebp),%eax
    1f21:	80 38 30             	cmpb   $0x30,(%eax)
    1f24:	75 3d                	jne    1f63 <sprintf+0x3c3>
    1f26:	83 7d d8 05          	cmpl   $0x5,0xffffffd8(%ebp)
    1f2a:	7e 07                	jle    1f33 <sprintf+0x393>
    1f2c:	c7 45 d8 0b 00 00 00 	movl   $0xb,0xffffffd8(%ebp)
    1f33:	8b 55 0c             	mov    0xc(%ebp),%edx
    1f36:	83 7a 20 01          	cmpl   $0x1,0x20(%edx)
    1f3a:	75 1a                	jne    1f56 <sprintf+0x3b6>
    1f3c:	c7 85 34 ff ff ff 7d 	movl   $0x5c7d,0xffffff34(%ebp)
    1f43:	5c 00 00 
    1f46:	c7 45 ec 05 00 00 00 	movl   $0x5,0xffffffec(%ebp)
    1f4d:	c7 45 dc 00 00 00 00 	movl   $0x0,0xffffffdc(%ebp)
    1f54:	eb 0d                	jmp    1f63 <sprintf+0x3c3>
    1f56:	83 7d dc 00          	cmpl   $0x0,0xffffffdc(%ebp)
    1f5a:	75 07                	jne    1f63 <sprintf+0x3c3>
    1f5c:	c7 45 ec 00 00 00 00 	movl   $0x0,0xffffffec(%ebp)
    1f63:	8b 45 dc             	mov    0xffffffdc(%ebp),%eax
    1f66:	3b 45 ec             	cmp    0xffffffec(%ebp),%eax
    1f69:	76 10                	jbe    1f7b <sprintf+0x3db>
    1f6b:	8b 55 ec             	mov    0xffffffec(%ebp),%edx
    1f6e:	8b 45 dc             	mov    0xffffffdc(%ebp),%eax
    1f71:	29 d0                	sub    %edx,%eax
    1f73:	89 85 28 ff ff ff    	mov    %eax,0xffffff28(%ebp)
    1f79:	eb 0a                	jmp    1f85 <sprintf+0x3e5>
    1f7b:	c7 85 28 ff ff ff 00 	movl   $0x0,0xffffff28(%ebp)
    1f82:	00 00 00 
    1f85:	8b 8d 28 ff ff ff    	mov    0xffffff28(%ebp),%ecx
    1f8b:	89 4d dc             	mov    %ecx,0xffffffdc(%ebp)
    1f8e:	e9 5e 01 00 00       	jmp    20f1 <sprintf+0x551>
    1f93:	8b 45 0c             	mov    0xc(%ebp),%eax
    1f96:	83 78 20 0f          	cmpl   $0xf,0x20(%eax)
    1f9a:	0f 87 84 00 00 00    	ja     2024 <sprintf+0x484>
    1fa0:	8b 55 10             	mov    0x10(%ebp),%edx
    1fa3:	89 95 24 ff ff ff    	mov    %edx,0xffffff24(%ebp)
    1fa9:	8b 4d 10             	mov    0x10(%ebp),%ecx
    1fac:	89 8d 20 ff ff ff    	mov    %ecx,0xffffff20(%ebp)
    1fb2:	83 ec 08             	sub    $0x8,%esp
    1fb5:	68 c8 1b 00 00       	push   $0x1bc8
    1fba:	8b 45 0c             	mov    0xc(%ebp),%eax
    1fbd:	83 c0 04             	add    $0x4,%eax
    1fc0:	50                   	push   %eax
    1fc1:	8b 55 0c             	mov    0xc(%ebp),%edx
    1fc4:	8b 42 10             	mov    0x10(%edx),%eax
    1fc7:	25 00 08 00 00       	and    $0x800,%eax
    1fcc:	85 c0                	test   %eax,%eax
    1fce:	74 0d                	je     1fdd <sprintf+0x43d>
    1fd0:	8b 45 f4             	mov    0xfffffff4(%ebp),%eax
    1fd3:	db 28                	fldt   (%eax)
    1fd5:	db bd 08 ff ff ff    	fstpt  0xffffff08(%ebp)
    1fdb:	eb 0b                	jmp    1fe8 <sprintf+0x448>
    1fdd:	8b 45 f4             	mov    0xfffffff4(%ebp),%eax
    1fe0:	dd 00                	fldl   (%eax)
    1fe2:	db bd 08 ff ff ff    	fstpt  0xffffff08(%ebp)
    1fe8:	ff b5 10 ff ff ff    	pushl  0xffffff10(%ebp)
    1fee:	ff b5 0c ff ff ff    	pushl  0xffffff0c(%ebp)
    1ff4:	ff b5 08 ff ff ff    	pushl  0xffffff08(%ebp)
    1ffa:	ff 75 08             	pushl  0x8(%ebp)
    1ffd:	e8 92 03 00 00       	call   2394 <_fpmaxtostr>
    2002:	83 c4 20             	add    $0x20,%esp
    2005:	8b 95 20 ff ff ff    	mov    0xffffff20(%ebp),%edx
    200b:	03 02                	add    (%edx),%eax
    200d:	8b 8d 24 ff ff ff    	mov    0xffffff24(%ebp),%ecx
    2013:	89 01                	mov    %eax,(%ecx)
    2015:	c7 85 3c ff ff ff 00 	movl   $0x0,0xffffff3c(%ebp)
    201c:	00 00 00 
    201f:	e9 f3 01 00 00       	jmp    2217 <sprintf+0x677>
    2024:	8b 45 0c             	mov    0xc(%ebp),%eax
    2027:	83 78 20 11          	cmpl   $0x11,0x20(%eax)
    202b:	77 0f                	ja     203c <sprintf+0x49c>
    202d:	c7 85 3c ff ff ff ff 	movl   $0xffffffff,0xffffff3c(%ebp)
    2034:	ff ff ff 
    2037:	e9 db 01 00 00       	jmp    2217 <sprintf+0x677>
    203c:	8b 55 0c             	mov    0xc(%ebp),%edx
    203f:	83 7a 20 13          	cmpl   $0x13,0x20(%edx)
    2043:	0f 87 99 00 00 00    	ja     20e2 <sprintf+0x542>
    2049:	8b 4d 0c             	mov    0xc(%ebp),%ecx
    204c:	83 79 20 13          	cmpl   $0x13,0x20(%ecx)
    2050:	75 64                	jne    20b6 <sprintf+0x516>
    2052:	8b 45 f4             	mov    0xfffffff4(%ebp),%eax
    2055:	8b 00                	mov    (%eax),%eax
    2057:	89 85 34 ff ff ff    	mov    %eax,0xffffff34(%ebp)
    205d:	83 bd 34 ff ff ff 00 	cmpl   $0x0,0xffffff34(%ebp)
    2064:	74 3d                	je     20a3 <sprintf+0x503>
    2066:	8b 45 0c             	mov    0xc(%ebp),%eax
    2069:	83 78 04 00          	cmpl   $0x0,0x4(%eax)
    206d:	78 0e                	js     207d <sprintf+0x4dd>
    206f:	8b 55 0c             	mov    0xc(%ebp),%edx
    2072:	8b 52 04             	mov    0x4(%edx),%edx
    2075:	89 95 04 ff ff ff    	mov    %edx,0xffffff04(%ebp)
    207b:	eb 0a                	jmp    2087 <sprintf+0x4e7>
    207d:	c7 85 04 ff ff ff ff 	movl   $0xffffffff,0xffffff04(%ebp)
    2084:	ff ff ff 
    2087:	83 ec 08             	sub    $0x8,%esp
    208a:	ff b5 04 ff ff ff    	pushl  0xffffff04(%ebp)
    2090:	ff b5 34 ff ff ff    	pushl  0xffffff34(%ebp)
    2096:	e8 3d 0d 00 00       	call   2dd8 <strnlen>
    209b:	83 c4 10             	add    $0x10,%esp
    209e:	89 45 ec             	mov    %eax,0xffffffec(%ebp)
    20a1:	eb 4e                	jmp    20f1 <sprintf+0x551>
    20a3:	c7 85 34 ff ff ff 83 	movl   $0x5c83,0xffffff34(%ebp)
    20aa:	5c 00 00 
    20ad:	c7 45 ec 06 00 00 00 	movl   $0x6,0xffffffec(%ebp)
    20b4:	eb 3b                	jmp    20f1 <sprintf+0x551>
    20b6:	8d 8d 48 ff ff ff    	lea    0xffffff48(%ebp),%ecx
    20bc:	89 8d 34 ff ff ff    	mov    %ecx,0xffffff34(%ebp)
    20c2:	8b 45 f4             	mov    0xfffffff4(%ebp),%eax
    20c5:	8a 00                	mov    (%eax),%al
    20c7:	8b 95 34 ff ff ff    	mov    0xffffff34(%ebp),%edx
    20cd:	88 02                	mov    %al,(%edx)
    20cf:	8b 8d 34 ff ff ff    	mov    0xffffff34(%ebp),%ecx
    20d5:	c6 41 01 00          	movb   $0x0,0x1(%ecx)
    20d9:	c7 45 ec 01 00 00 00 	movl   $0x1,0xffffffec(%ebp)
    20e0:	eb 0f                	jmp    20f1 <sprintf+0x551>
    20e2:	c7 85 3c ff ff ff ff 	movl   $0xffffffff,0xffffff3c(%ebp)
    20e9:	ff ff ff 
    20ec:	e9 26 01 00 00       	jmp    2217 <sprintf+0x677>
    20f1:	8b 45 dc             	mov    0xffffffdc(%ebp),%eax
    20f4:	03 45 ec             	add    0xffffffec(%ebp),%eax
    20f7:	89 85 40 ff ff ff    	mov    %eax,0xffffff40(%ebp)
    20fd:	83 7d d8 0b          	cmpl   $0xb,0xffffffd8(%ebp)
    2101:	74 30                	je     2133 <sprintf+0x593>
    2103:	83 7d d8 05          	cmpl   $0x5,0xffffffd8(%ebp)
    2107:	7f 0f                	jg     2118 <sprintf+0x578>
    2109:	8b 85 40 ff ff ff    	mov    0xffffff40(%ebp),%eax
    210f:	40                   	inc    %eax
    2110:	89 85 00 ff ff ff    	mov    %eax,0xffffff00(%ebp)
    2116:	eb 0f                	jmp    2127 <sprintf+0x587>
    2118:	8b 95 40 ff ff ff    	mov    0xffffff40(%ebp),%edx
    211e:	83 c2 02             	add    $0x2,%edx
    2121:	89 95 00 ff ff ff    	mov    %edx,0xffffff00(%ebp)
    2127:	8b 8d 00 ff ff ff    	mov    0xffffff00(%ebp),%ecx
    212d:	89 8d 40 ff ff ff    	mov    %ecx,0xffffff40(%ebp)
    2133:	8b 55 0c             	mov    0xc(%ebp),%edx
    2136:	8b 42 08             	mov    0x8(%edx),%eax
    2139:	3b 85 40 ff ff ff    	cmp    0xffffff40(%ebp),%eax
    213f:	76 16                	jbe    2157 <sprintf+0x5b7>
    2141:	8b 95 40 ff ff ff    	mov    0xffffff40(%ebp),%edx
    2147:	8b 4d 0c             	mov    0xc(%ebp),%ecx
    214a:	8b 41 08             	mov    0x8(%ecx),%eax
    214d:	29 d0                	sub    %edx,%eax
    214f:	89 85 fc fe ff ff    	mov    %eax,0xfffffefc(%ebp)
    2155:	eb 0a                	jmp    2161 <sprintf+0x5c1>
    2157:	c7 85 fc fe ff ff 00 	movl   $0x0,0xfffffefc(%ebp)
    215e:	00 00 00 
    2161:	8b 85 fc fe ff ff    	mov    0xfffffefc(%ebp),%eax
    2167:	89 45 e4             	mov    %eax,0xffffffe4(%ebp)
    216a:	8b 4d 10             	mov    0x10(%ebp),%ecx
    216d:	8b 55 10             	mov    0x10(%ebp),%edx
    2170:	8b 45 e4             	mov    0xffffffe4(%ebp),%eax
    2173:	03 85 40 ff ff ff    	add    0xffffff40(%ebp),%eax
    2179:	03 02                	add    (%edx),%eax
    217b:	89 01                	mov    %eax,(%ecx)
    217d:	80 7d d7 30          	cmpb   $0x30,0xffffffd7(%ebp)
    2181:	75 0f                	jne    2192 <sprintf+0x5f2>
    2183:	8b 55 e4             	mov    0xffffffe4(%ebp),%edx
    2186:	8d 45 dc             	lea    0xffffffdc(%ebp),%eax
    2189:	01 10                	add    %edx,(%eax)
    218b:	c7 45 e4 00 00 00 00 	movl   $0x0,0xffffffe4(%ebp)
    2192:	8b 55 0c             	mov    0xc(%ebp),%edx
    2195:	8b 42 10             	mov    0x10(%edx),%eax
    2198:	83 e0 08             	and    $0x8,%eax
    219b:	85 c0                	test   %eax,%eax
    219d:	75 1a                	jne    21b9 <sprintf+0x619>
    219f:	83 ec 04             	sub    $0x4,%esp
    21a2:	ff 75 e4             	pushl  0xffffffe4(%ebp)
    21a5:	6a 20                	push   $0x20
    21a7:	ff 75 08             	pushl  0x8(%ebp)
    21aa:	e8 7c fa ff ff       	call   1c2b <sprintf+0x8b>
    21af:	83 c4 10             	add    $0x10,%esp
    21b2:	c7 45 e4 00 00 00 00 	movl   $0x0,0xffffffe4(%ebp)
    21b9:	83 ec 08             	sub    $0x8,%esp
    21bc:	ff 75 08             	pushl  0x8(%ebp)
    21bf:	b8 71 5c 00 00       	mov    $0x5c71,%eax
    21c4:	03 45 d8             	add    0xffffffd8(%ebp),%eax
    21c7:	50                   	push   %eax
    21c8:	e8 37 25 00 00       	call   4704 <fputs>
    21cd:	83 c4 10             	add    $0x10,%esp
    21d0:	83 ec 04             	sub    $0x4,%esp
    21d3:	ff 75 dc             	pushl  0xffffffdc(%ebp)
    21d6:	6a 30                	push   $0x30
    21d8:	ff 75 08             	pushl  0x8(%ebp)
    21db:	e8 4b fa ff ff       	call   1c2b <sprintf+0x8b>
    21e0:	83 c4 10             	add    $0x10,%esp
    21e3:	83 ec 04             	sub    $0x4,%esp
    21e6:	ff 75 08             	pushl  0x8(%ebp)
    21e9:	ff 75 ec             	pushl  0xffffffec(%ebp)
    21ec:	ff b5 34 ff ff ff    	pushl  0xffffff34(%ebp)
    21f2:	e8 c3 25 00 00       	call   47ba <_stdio_fwrite>
    21f7:	83 c4 10             	add    $0x10,%esp
    21fa:	83 ec 04             	sub    $0x4,%esp
    21fd:	ff 75 e4             	pushl  0xffffffe4(%ebp)
    2200:	6a 20                	push   $0x20
    2202:	ff 75 08             	pushl  0x8(%ebp)
    2205:	e8 21 fa ff ff       	call   1c2b <sprintf+0x8b>
    220a:	83 c4 10             	add    $0x10,%esp
    220d:	c7 85 3c ff ff ff 00 	movl   $0x0,0xffffff3c(%ebp)
    2214:	00 00 00 
    2217:	8b 85 3c ff ff ff    	mov    0xffffff3c(%ebp),%eax
    221d:	c9                   	leave  
    221e:	c3                   	ret    

0000221f <vfprintf>:
    221f:	55                   	push   %ebp
    2220:	89 e5                	mov    %esp,%ebp
    2222:	81 ec d8 00 00 00    	sub    $0xd8,%esp
    2228:	c7 85 34 ff ff ff 00 	movl   $0x0,0xffffff34(%ebp)
    222f:	00 00 00 
    2232:	8b 45 0c             	mov    0xc(%ebp),%eax
    2235:	89 85 2c ff ff ff    	mov    %eax,0xffffff2c(%ebp)
    223b:	83 ec 08             	sub    $0x8,%esp
    223e:	ff 75 0c             	pushl  0xc(%ebp)
    2241:	8d 85 38 ff ff ff    	lea    0xffffff38(%ebp),%eax
    2247:	50                   	push   %eax
    2248:	e8 fb 2b 00 00       	call   4e48 <_ppfs_init>
    224d:	83 c4 10             	add    $0x10,%esp
    2250:	85 c0                	test   %eax,%eax
    2252:	79 35                	jns    2289 <vfprintf+0x6a>
    2254:	83 ec 04             	sub    $0x4,%esp
    2257:	ff 75 08             	pushl  0x8(%ebp)
    225a:	83 ec 04             	sub    $0x4,%esp
    225d:	ff b5 38 ff ff ff    	pushl  0xffffff38(%ebp)
    2263:	e8 48 0b 00 00       	call   2db0 <strlen>
    2268:	83 c4 08             	add    $0x8,%esp
    226b:	50                   	push   %eax
    226c:	ff b5 38 ff ff ff    	pushl  0xffffff38(%ebp)
    2272:	e8 43 25 00 00       	call   47ba <_stdio_fwrite>
    2277:	83 c4 10             	add    $0x10,%esp
    227a:	c7 85 34 ff ff ff ff 	movl   $0xffffffff,0xffffff34(%ebp)
    2281:	ff ff ff 
    2284:	e9 03 01 00 00       	jmp    238c <vfprintf+0x16d>
    2289:	83 ec 08             	sub    $0x8,%esp
    228c:	ff 75 10             	pushl  0x10(%ebp)
    228f:	8d 85 38 ff ff ff    	lea    0xffffff38(%ebp),%eax
    2295:	50                   	push   %eax
    2296:	e8 6d 2c 00 00       	call   4f08 <_ppfs_prepargs>
    229b:	83 c4 10             	add    $0x10,%esp
    229e:	8b 45 0c             	mov    0xc(%ebp),%eax
    22a1:	80 38 00             	cmpb   $0x0,(%eax)
    22a4:	74 0f                	je     22b5 <vfprintf+0x96>
    22a6:	8b 45 0c             	mov    0xc(%ebp),%eax
    22a9:	80 38 25             	cmpb   $0x25,(%eax)
    22ac:	75 02                	jne    22b0 <vfprintf+0x91>
    22ae:	eb 05                	jmp    22b5 <vfprintf+0x96>
    22b0:	ff 45 0c             	incl   0xc(%ebp)
    22b3:	eb e9                	jmp    229e <vfprintf+0x7f>
    22b5:	8b 85 2c ff ff ff    	mov    0xffffff2c(%ebp),%eax
    22bb:	39 45 0c             	cmp    %eax,0xc(%ebp)
    22be:	74 4b                	je     230b <vfprintf+0xec>
    22c0:	83 ec 04             	sub    $0x4,%esp
    22c3:	ff 75 08             	pushl  0x8(%ebp)
    22c6:	8b 45 0c             	mov    0xc(%ebp),%eax
    22c9:	2b 85 2c ff ff ff    	sub    0xffffff2c(%ebp),%eax
    22cf:	50                   	push   %eax
    22d0:	ff b5 2c ff ff ff    	pushl  0xffffff2c(%ebp)
    22d6:	e8 df 24 00 00       	call   47ba <_stdio_fwrite>
    22db:	83 c4 10             	add    $0x10,%esp
    22de:	89 85 30 ff ff ff    	mov    %eax,0xffffff30(%ebp)
    22e4:	8b 85 30 ff ff ff    	mov    0xffffff30(%ebp),%eax
    22ea:	85 c0                	test   %eax,%eax
    22ec:	79 0f                	jns    22fd <vfprintf+0xde>
    22ee:	c7 85 34 ff ff ff ff 	movl   $0xffffffff,0xffffff34(%ebp)
    22f5:	ff ff ff 
    22f8:	e9 8f 00 00 00       	jmp    238c <vfprintf+0x16d>
    22fd:	8b 95 30 ff ff ff    	mov    0xffffff30(%ebp),%edx
    2303:	8d 85 34 ff ff ff    	lea    0xffffff34(%ebp),%eax
    2309:	01 10                	add    %edx,(%eax)
    230b:	8b 45 0c             	mov    0xc(%ebp),%eax
    230e:	80 38 00             	cmpb   $0x0,(%eax)
    2311:	75 02                	jne    2315 <vfprintf+0xf6>
    2313:	eb 77                	jmp    238c <vfprintf+0x16d>
    2315:	8b 45 0c             	mov    0xc(%ebp),%eax
    2318:	80 78 01 25          	cmpb   $0x25,0x1(%eax)
    231c:	74 5a                	je     2378 <vfprintf+0x159>
    231e:	ff 45 0c             	incl   0xc(%ebp)
    2321:	8b 45 0c             	mov    0xc(%ebp),%eax
    2324:	89 85 38 ff ff ff    	mov    %eax,0xffffff38(%ebp)
    232a:	83 ec 04             	sub    $0x4,%esp
    232d:	8d 85 34 ff ff ff    	lea    0xffffff34(%ebp),%eax
    2333:	50                   	push   %eax
    2334:	8d 85 38 ff ff ff    	lea    0xffffff38(%ebp),%eax
    233a:	50                   	push   %eax
    233b:	ff 75 08             	pushl  0x8(%ebp)
    233e:	e8 19 f9 ff ff       	call   1c5c <sprintf+0xbc>
    2343:	83 c4 10             	add    $0x10,%esp
    2346:	89 85 30 ff ff ff    	mov    %eax,0xffffff30(%ebp)
    234c:	83 bd 30 ff ff ff 00 	cmpl   $0x0,0xffffff30(%ebp)
    2353:	79 0c                	jns    2361 <vfprintf+0x142>
    2355:	c7 85 34 ff ff ff ff 	movl   $0xffffffff,0xffffff34(%ebp)
    235c:	ff ff ff 
    235f:	eb 2b                	jmp    238c <vfprintf+0x16d>
    2361:	8b 85 38 ff ff ff    	mov    0xffffff38(%ebp),%eax
    2367:	89 45 0c             	mov    %eax,0xc(%ebp)
    236a:	8b 45 0c             	mov    0xc(%ebp),%eax
    236d:	89 85 2c ff ff ff    	mov    %eax,0xffffff2c(%ebp)
    2373:	e9 26 ff ff ff       	jmp    229e <vfprintf+0x7f>
    2378:	ff 45 0c             	incl   0xc(%ebp)
    237b:	8b 45 0c             	mov    0xc(%ebp),%eax
    237e:	89 85 2c ff ff ff    	mov    %eax,0xffffff2c(%ebp)
    2384:	ff 45 0c             	incl   0xc(%ebp)
    2387:	e9 12 ff ff ff       	jmp    229e <vfprintf+0x7f>
    238c:	8b 85 34 ff ff ff    	mov    0xffffff34(%ebp),%eax
    2392:	c9                   	leave  
    2393:	c3                   	ret    

00002394 <_fpmaxtostr>:
    2394:	55                   	push   %ebp
    2395:	89 e5                	mov    %esp,%ebp
    2397:	53                   	push   %ebx
    2398:	81 ec 14 01 00 00    	sub    $0x114,%esp
    239e:	8b 45 18             	mov    0x18(%ebp),%eax
    23a1:	8b 40 04             	mov    0x4(%eax),%eax
    23a4:	89 45 d8             	mov    %eax,0xffffffd8(%ebp)
    23a7:	8b 45 18             	mov    0x18(%ebp),%eax
    23aa:	8b 00                	mov    (%eax),%eax
    23ac:	89 45 d4             	mov    %eax,0xffffffd4(%ebp)
    23af:	8b 45 18             	mov    0x18(%ebp),%eax
    23b2:	8a 40 08             	mov    0x8(%eax),%al
    23b5:	88 85 16 ff ff ff    	mov    %al,0xffffff16(%ebp)
    23bb:	c6 85 48 ff ff ff 65 	movb   $0x65,0xffffff48(%ebp)
    23c2:	8a 85 16 ff ff ff    	mov    0xffffff16(%ebp),%al
    23c8:	83 c8 20             	or     $0x20,%eax
    23cb:	3c 61                	cmp    $0x61,%al
    23cd:	75 09                	jne    23d8 <_fpmaxtostr+0x44>
    23cf:	8d 85 16 ff ff ff    	lea    0xffffff16(%ebp),%eax
    23d5:	80 00 06             	addb   $0x6,(%eax)
    23d8:	83 7d d4 00          	cmpl   $0x0,0xffffffd4(%ebp)
    23dc:	79 07                	jns    23e5 <_fpmaxtostr+0x51>
    23de:	c7 45 d4 06 00 00 00 	movl   $0x6,0xffffffd4(%ebp)
    23e5:	c6 85 18 ff ff ff 00 	movb   $0x0,0xffffff18(%ebp)
    23ec:	8b 45 18             	mov    0x18(%ebp),%eax
    23ef:	8b 40 0c             	mov    0xc(%eax),%eax
    23f2:	83 e0 02             	and    $0x2,%eax
    23f5:	85 c0                	test   %eax,%eax
    23f7:	74 09                	je     2402 <_fpmaxtostr+0x6e>
    23f9:	c6 85 18 ff ff ff 2b 	movb   $0x2b,0xffffff18(%ebp)
    2400:	eb 14                	jmp    2416 <_fpmaxtostr+0x82>
    2402:	8b 45 18             	mov    0x18(%ebp),%eax
    2405:	8b 40 0c             	mov    0xc(%eax),%eax
    2408:	83 e0 01             	and    $0x1,%eax
    240b:	85 c0                	test   %eax,%eax
    240d:	74 07                	je     2416 <_fpmaxtostr+0x82>
    240f:	c6 85 18 ff ff ff 20 	movb   $0x20,0xffffff18(%ebp)
    2416:	c6 85 19 ff ff ff 00 	movb   $0x0,0xffffff19(%ebp)
    241d:	c7 85 7c ff ff ff 00 	movl   $0x0,0xffffff7c(%ebp)
    2424:	00 00 00 
    2427:	db 6d 0c             	fldt   0xc(%ebp)
    242a:	db 6d 0c             	fldt   0xc(%ebp)
    242d:	d9 c9                	fxch   %st(1)
    242f:	da e9                	fucompp 
    2431:	df e0                	fnstsw %ax
    2433:	80 e4 45             	and    $0x45,%ah
    2436:	80 f4 40             	xor    $0x40,%ah
    2439:	75 02                	jne    243d <_fpmaxtostr+0xa9>
    243b:	eb 0c                	jmp    2449 <_fpmaxtostr+0xb5>
    243d:	c7 85 7c ff ff ff 08 	movl   $0x8,0xffffff7c(%ebp)
    2444:	00 00 00 
    2447:	eb 76                	jmp    24bf <_fpmaxtostr+0x12b>
    2449:	db 6d 0c             	fldt   0xc(%ebp)
    244c:	d9 ee                	fldz   
    244e:	d9 c9                	fxch   %st(1)
    2450:	da e9                	fucompp 
    2452:	df e0                	fnstsw %ax
    2454:	80 e4 45             	and    $0x45,%ah
    2457:	80 fc 40             	cmp    $0x40,%ah
    245a:	74 02                	je     245e <_fpmaxtostr+0xca>
    245c:	eb 27                	jmp    2485 <_fpmaxtostr+0xf1>
    245e:	d9 e8                	fld1   
    2460:	db 6d 0c             	fldt   0xc(%ebp)
    2463:	de f9                	fdivrp %st,%st(1)
    2465:	d9 ee                	fldz   
    2467:	da e9                	fucompp 
    2469:	df e0                	fnstsw %ax
    246b:	f6 c4 45             	test   $0x45,%ah
    246e:	74 02                	je     2472 <_fpmaxtostr+0xde>
    2470:	eb 07                	jmp    2479 <_fpmaxtostr+0xe5>
    2472:	c6 85 18 ff ff ff 2d 	movb   $0x2d,0xffffff18(%ebp)
    2479:	c7 45 e0 ff ff ff ff 	movl   $0xffffffff,0xffffffe0(%ebp)
    2480:	e9 9d 01 00 00       	jmp    2622 <_fpmaxtostr+0x28e>
    2485:	db 6d 0c             	fldt   0xc(%ebp)
    2488:	d9 ee                	fldz   
    248a:	da e9                	fucompp 
    248c:	df e0                	fnstsw %ax
    248e:	f6 c4 45             	test   $0x45,%ah
    2491:	74 02                	je     2495 <_fpmaxtostr+0x101>
    2493:	eb 0e                	jmp    24a3 <_fpmaxtostr+0x10f>
    2495:	c6 85 18 ff ff ff 2d 	movb   $0x2d,0xffffff18(%ebp)
    249c:	8d 45 0c             	lea    0xc(%ebp),%eax
    249f:	80 70 09 80          	xorb   $0x80,0x9(%eax)
    24a3:	db 6d 0c             	fldt   0xc(%ebp)
    24a6:	db 2d 60 5d 00 00    	fldt   0x5d60
    24ac:	de f9                	fdivrp %st,%st(1)
    24ae:	db 6d 0c             	fldt   0xc(%ebp)
    24b1:	da e9                	fucompp 
    24b3:	df e0                	fnstsw %ax
    24b5:	80 e4 45             	and    $0x45,%ah
    24b8:	80 fc 40             	cmp    $0x40,%ah
    24bb:	74 02                	je     24bf <_fpmaxtostr+0x12b>
    24bd:	eb 50                	jmp    250f <_fpmaxtostr+0x17b>
    24bf:	8b 45 18             	mov    0x18(%ebp),%eax
    24c2:	c7 40 10 20 00 00 00 	movl   $0x20,0x10(%eax)
    24c9:	8d 85 68 ff ff ff    	lea    0xffffff68(%ebp),%eax
    24cf:	83 c0 18             	add    $0x18,%eax
    24d2:	89 85 64 ff ff ff    	mov    %eax,0xffffff64(%ebp)
    24d8:	c7 85 74 ff ff ff 70 	movl   $0x70,0xffffff74(%ebp)
    24df:	00 00 00 
    24e2:	c7 85 78 ff ff ff 03 	movl   $0x3,0xffffff78(%ebp)
    24e9:	00 00 00 
    24ec:	80 bd 16 ff ff ff 60 	cmpb   $0x60,0xffffff16(%ebp)
    24f3:	7f 09                	jg     24fe <_fpmaxtostr+0x16a>
    24f5:	8d 85 7c ff ff ff    	lea    0xffffff7c(%ebp),%eax
    24fb:	83 00 04             	addl   $0x4,(%eax)
    24fe:	8d 85 7c ff ff ff    	lea    0xffffff7c(%ebp),%eax
    2504:	81 00 a0 5c 00 00    	addl   $0x5ca0,(%eax)
    250a:	e9 a1 06 00 00       	jmp    2bb0 <_fpmaxtostr+0x81c>
    250f:	c7 45 e0 08 00 00 00 	movl   $0x8,0xffffffe0(%ebp)
    2516:	c7 45 f0 0d 00 00 00 	movl   $0xd,0xfffffff0(%ebp)
    251d:	c7 45 ec 00 10 00 00 	movl   $0x1000,0xffffffec(%ebp)
    2524:	c7 45 dc 00 00 00 00 	movl   $0x0,0xffffffdc(%ebp)
    252b:	db 6d 0c             	fldt   0xc(%ebp)
    252e:	db 2d 70 5d 00 00    	fldt   0x5d70
    2534:	da e9                	fucompp 
    2536:	df e0                	fnstsw %ax
    2538:	f6 c4 45             	test   $0x45,%ah
    253b:	74 02                	je     253f <_fpmaxtostr+0x1ab>
    253d:	eb 07                	jmp    2546 <_fpmaxtostr+0x1b2>
    253f:	c7 45 dc 01 00 00 00 	movl   $0x1,0xffffffdc(%ebp)
    2546:	90                   	nop    
    2547:	8d 45 f0             	lea    0xfffffff0(%ebp),%eax
    254a:	ff 08                	decl   (%eax)
    254c:	83 7d dc 00          	cmpl   $0x0,0xffffffdc(%ebp)
    2550:	74 4c                	je     259e <_fpmaxtostr+0x20a>
    2552:	8b 55 f0             	mov    0xfffffff0(%ebp),%edx
    2555:	89 d0                	mov    %edx,%eax
    2557:	d1 e0                	shl    %eax
    2559:	01 d0                	add    %edx,%eax
    255b:	c1 e0 02             	shl    $0x2,%eax
    255e:	db 6d 0c             	fldt   0xc(%ebp)
    2561:	db a8 c0 5c 00 00    	fldt   0x5cc0(%eax)
    2567:	de c9                	fmulp  %st,%st(1)
    2569:	db 2d 80 5d 00 00    	fldt   0x5d80
    256f:	da e9                	fucompp 
    2571:	df e0                	fnstsw %ax
    2573:	f6 c4 45             	test   $0x45,%ah
    2576:	74 02                	je     257a <_fpmaxtostr+0x1e6>
    2578:	eb 70                	jmp    25ea <_fpmaxtostr+0x256>
    257a:	8b 55 f0             	mov    0xfffffff0(%ebp),%edx
    257d:	89 d0                	mov    %edx,%eax
    257f:	d1 e0                	shl    %eax
    2581:	01 d0                	add    %edx,%eax
    2583:	c1 e0 02             	shl    $0x2,%eax
    2586:	db 6d 0c             	fldt   0xc(%ebp)
    2589:	db a8 c0 5c 00 00    	fldt   0x5cc0(%eax)
    258f:	de c9                	fmulp  %st,%st(1)
    2591:	db 7d 0c             	fstpt  0xc(%ebp)
    2594:	8b 55 ec             	mov    0xffffffec(%ebp),%edx
    2597:	8d 45 e0             	lea    0xffffffe0(%ebp),%eax
    259a:	29 10                	sub    %edx,(%eax)
    259c:	eb 4c                	jmp    25ea <_fpmaxtostr+0x256>
    259e:	8b 55 f0             	mov    0xfffffff0(%ebp),%edx
    25a1:	89 d0                	mov    %edx,%eax
    25a3:	d1 e0                	shl    %eax
    25a5:	01 d0                	add    %edx,%eax
    25a7:	c1 e0 02             	shl    $0x2,%eax
    25aa:	db 6d 0c             	fldt   0xc(%ebp)
    25ad:	db a8 c0 5c 00 00    	fldt   0x5cc0(%eax)
    25b3:	de f9                	fdivrp %st,%st(1)
    25b5:	db 2d 70 5d 00 00    	fldt   0x5d70
    25bb:	d9 c9                	fxch   %st(1)
    25bd:	da e9                	fucompp 
    25bf:	df e0                	fnstsw %ax
    25c1:	f6 c4 05             	test   $0x5,%ah
    25c4:	74 02                	je     25c8 <_fpmaxtostr+0x234>
    25c6:	eb 22                	jmp    25ea <_fpmaxtostr+0x256>
    25c8:	8b 55 f0             	mov    0xfffffff0(%ebp),%edx
    25cb:	89 d0                	mov    %edx,%eax
    25cd:	d1 e0                	shl    %eax
    25cf:	01 d0                	add    %edx,%eax
    25d1:	c1 e0 02             	shl    $0x2,%eax
    25d4:	db 6d 0c             	fldt   0xc(%ebp)
    25d7:	db a8 c0 5c 00 00    	fldt   0x5cc0(%eax)
    25dd:	de f9                	fdivrp %st,%st(1)
    25df:	db 7d 0c             	fstpt  0xc(%ebp)
    25e2:	8b 55 ec             	mov    0xffffffec(%ebp),%edx
    25e5:	8d 45 e0             	lea    0xffffffe0(%ebp),%eax
    25e8:	01 10                	add    %edx,(%eax)
    25ea:	8d 45 ec             	lea    0xffffffec(%ebp),%eax
    25ed:	d1 38                	sarl   (%eax)
    25ef:	83 7d f0 00          	cmpl   $0x0,0xfffffff0(%ebp)
    25f3:	0f 85 4e ff ff ff    	jne    2547 <_fpmaxtostr+0x1b3>
    25f9:	db 6d 0c             	fldt   0xc(%ebp)
    25fc:	db 2d 80 5d 00 00    	fldt   0x5d80
    2602:	d9 c9                	fxch   %st(1)
    2604:	da e9                	fucompp 
    2606:	df e0                	fnstsw %ax
    2608:	f6 c4 05             	test   $0x5,%ah
    260b:	74 02                	je     260f <_fpmaxtostr+0x27b>
    260d:	eb 13                	jmp    2622 <_fpmaxtostr+0x28e>
    260f:	db 6d 0c             	fldt   0xc(%ebp)
    2612:	db 2d c0 5c 00 00    	fldt   0x5cc0
    2618:	de f9                	fdivrp %st,%st(1)
    261a:	db 7d 0c             	fstpt  0xc(%ebp)
    261d:	8d 45 e0             	lea    0xffffffe0(%ebp),%eax
    2620:	ff 00                	incl   (%eax)
    2622:	8d 85 28 ff ff ff    	lea    0xffffff28(%ebp),%eax
    2628:	83 c0 02             	add    $0x2,%eax
    262b:	89 45 cc             	mov    %eax,0xffffffcc(%ebp)
    262e:	c7 45 f0 00 00 00 00 	movl   $0x0,0xfffffff0(%ebp)
    2635:	d9 bd 0c ff ff ff    	fnstcw 0xffffff0c(%ebp)
    263b:	8b 85 0c ff ff ff    	mov    0xffffff0c(%ebp),%eax
    2641:	b4 0c                	mov    $0xc,%ah
    2643:	66 89 85 0a ff ff ff 	mov    %ax,0xffffff0a(%ebp)
    264a:	db 6d 0c             	fldt   0xc(%ebp)
    264d:	d9 ad 0a ff ff ff    	fldcw  0xffffff0a(%ebp)
    2653:	df bd 00 ff ff ff    	fistpll 0xffffff00(%ebp)
    2659:	d9 ad 0c ff ff ff    	fldcw  0xffffff0c(%ebp)
    265f:	8b 85 00 ff ff ff    	mov    0xffffff00(%ebp),%eax
    2665:	8b 95 04 ff ff ff    	mov    0xffffff04(%ebp),%edx
    266b:	89 45 f4             	mov    %eax,0xfffffff4(%ebp)
    266e:	8b 45 f4             	mov    0xfffffff4(%ebp),%eax
    2671:	ba 00 00 00 00       	mov    $0x0,%edx
    2676:	52                   	push   %edx
    2677:	50                   	push   %eax
    2678:	df 2c 24             	fildll (%esp,1)
    267b:	8d 64 24 08          	lea    0x8(%esp,1),%esp
    267f:	db 6d 0c             	fldt   0xc(%ebp)
    2682:	de e1                	fsubp  %st,%st(1)
    2684:	db 2d 80 5d 00 00    	fldt   0x5d80
    268a:	de c9                	fmulp  %st,%st(1)
    268c:	db 7d 0c             	fstpt  0xc(%ebp)
    268f:	8d 45 cc             	lea    0xffffffcc(%ebp),%eax
    2692:	83 00 09             	addl   $0x9,(%eax)
    2695:	c7 45 ec 00 00 00 00 	movl   $0x0,0xffffffec(%ebp)
    269c:	8d 45 ec             	lea    0xffffffec(%ebp),%eax
    269f:	ff 00                	incl   (%eax)
    26a1:	8b 55 ec             	mov    0xffffffec(%ebp),%edx
    26a4:	8b 45 cc             	mov    0xffffffcc(%ebp),%eax
    26a7:	89 c1                	mov    %eax,%ecx
    26a9:	29 d1                	sub    %edx,%ecx
    26ab:	8b 55 f4             	mov    0xfffffff4(%ebp),%edx
    26ae:	c7 85 f4 fe ff ff 0a 	movl   $0xa,0xfffffef4(%ebp)
    26b5:	00 00 00 
    26b8:	89 d0                	mov    %edx,%eax
    26ba:	ba 00 00 00 00       	mov    $0x0,%edx
    26bf:	f7 b5 f4 fe ff ff    	divl   0xfffffef4(%ebp)
    26c5:	8d 42 30             	lea    0x30(%edx),%eax
    26c8:	88 01                	mov    %al,(%ecx)
    26ca:	8b 55 f4             	mov    0xfffffff4(%ebp),%edx
    26cd:	b8 cd cc cc cc       	mov    $0xcccccccd,%eax
    26d2:	f7 e2                	mul    %edx
    26d4:	89 d0                	mov    %edx,%eax
    26d6:	c1 e8 03             	shr    $0x3,%eax
    26d9:	89 45 f4             	mov    %eax,0xfffffff4(%ebp)
    26dc:	83 7d ec 08          	cmpl   $0x8,0xffffffec(%ebp)
    26e0:	7e ba                	jle    269c <_fpmaxtostr+0x308>
    26e2:	8d 45 f0             	lea    0xfffffff0(%ebp),%eax
    26e5:	ff 00                	incl   (%eax)
    26e7:	83 7d f0 02          	cmpl   $0x2,0xfffffff0(%ebp)
    26eb:	0f 8e 59 ff ff ff    	jle    264a <_fpmaxtostr+0x2b6>
    26f1:	80 bd 16 ff ff ff 60 	cmpb   $0x60,0xffffff16(%ebp)
    26f8:	7f 12                	jg     270c <_fpmaxtostr+0x378>
    26fa:	8d 85 48 ff ff ff    	lea    0xffffff48(%ebp),%eax
    2700:	80 28 20             	subb   $0x20,(%eax)
    2703:	8d 85 16 ff ff ff    	lea    0xffffff16(%ebp),%eax
    2709:	80 00 20             	addb   $0x20,(%eax)
    270c:	8a 85 16 ff ff ff    	mov    0xffffff16(%ebp),%al
    2712:	88 85 17 ff ff ff    	mov    %al,0xffffff17(%ebp)
    2718:	80 bd 16 ff ff ff 67 	cmpb   $0x67,0xffffff16(%ebp)
    271f:	75 0b                	jne    272c <_fpmaxtostr+0x398>
    2721:	83 7d d4 00          	cmpl   $0x0,0xffffffd4(%ebp)
    2725:	7e 05                	jle    272c <_fpmaxtostr+0x398>
    2727:	8d 45 d4             	lea    0xffffffd4(%ebp),%eax
    272a:	ff 08                	decl   (%eax)
    272c:	8b 45 d4             	mov    0xffffffd4(%ebp),%eax
    272f:	89 45 e8             	mov    %eax,0xffffffe8(%ebp)
    2732:	80 bd 16 ff ff ff 66 	cmpb   $0x66,0xffffff16(%ebp)
    2739:	75 32                	jne    276d <_fpmaxtostr+0x3d9>
    273b:	8b 55 e0             	mov    0xffffffe0(%ebp),%edx
    273e:	8d 45 e8             	lea    0xffffffe8(%ebp),%eax
    2741:	01 10                	add    %edx,(%eax)
    2743:	83 7d e8 ff          	cmpl   $0xffffffff,0xffffffe8(%ebp)
    2747:	7d 24                	jge    276d <_fpmaxtostr+0x3d9>
    2749:	83 ec 04             	sub    $0x4,%esp
    274c:	6a 15                	push   $0x15
    274e:	6a 30                	push   $0x30
    2750:	8d 85 28 ff ff ff    	lea    0xffffff28(%ebp),%eax
    2756:	50                   	push   %eax
    2757:	e8 c8 05 00 00       	call   2d24 <memset>
    275c:	83 c4 10             	add    $0x10,%esp
    275f:	c7 45 e0 ff ff ff ff 	movl   $0xffffffff,0xffffffe0(%ebp)
    2766:	c7 45 e8 ff ff ff ff 	movl   $0xffffffff,0xffffffe8(%ebp)
    276d:	8d 85 28 ff ff ff    	lea    0xffffff28(%ebp),%eax
    2773:	89 45 cc             	mov    %eax,0xffffffcc(%ebp)
    2776:	8b 45 cc             	mov    0xffffffcc(%ebp),%eax
    2779:	c6 00 00             	movb   $0x0,(%eax)
    277c:	8d 45 cc             	lea    0xffffffcc(%ebp),%eax
    277f:	ff 00                	incl   (%eax)
    2781:	8b 45 cc             	mov    0xffffffcc(%ebp),%eax
    2784:	c6 00 30             	movb   $0x30,(%eax)
    2787:	c7 45 f0 00 00 00 00 	movl   $0x0,0xfffffff0(%ebp)
    278e:	8b 45 cc             	mov    0xffffffcc(%ebp),%eax
    2791:	83 c0 16             	add    $0x16,%eax
    2794:	89 45 c8             	mov    %eax,0xffffffc8(%ebp)
    2797:	83 7d e8 14          	cmpl   $0x14,0xffffffe8(%ebp)
    279b:	7f 1b                	jg     27b8 <_fpmaxtostr+0x424>
    279d:	8b 45 e8             	mov    0xffffffe8(%ebp),%eax
    27a0:	03 45 cc             	add    0xffffffcc(%ebp),%eax
    27a3:	83 c0 02             	add    $0x2,%eax
    27a6:	89 45 c8             	mov    %eax,0xffffffc8(%ebp)
    27a9:	8b 45 c8             	mov    0xffffffc8(%ebp),%eax
    27ac:	80 38 34             	cmpb   $0x34,(%eax)
    27af:	7e 07                	jle    27b8 <_fpmaxtostr+0x424>
    27b1:	c7 45 f0 01 00 00 00 	movl   $0x1,0xfffffff0(%ebp)
    27b8:	90                   	nop    
    27b9:	8d 45 c8             	lea    0xffffffc8(%ebp),%eax
    27bc:	ff 08                	decl   (%eax)
    27be:	8b 55 c8             	mov    0xffffffc8(%ebp),%edx
    27c1:	8a 45 f0             	mov    0xfffffff0(%ebp),%al
    27c4:	00 02                	add    %al,(%edx)
    27c6:	8b 45 c8             	mov    0xffffffc8(%ebp),%eax
    27c9:	80 38 30             	cmpb   $0x30,(%eax)
    27cc:	74 eb                	je     27b9 <_fpmaxtostr+0x425>
    27ce:	8b 45 c8             	mov    0xffffffc8(%ebp),%eax
    27d1:	80 38 39             	cmpb   $0x39,(%eax)
    27d4:	7f e3                	jg     27b9 <_fpmaxtostr+0x425>
    27d6:	8b 45 e0             	mov    0xffffffe0(%ebp),%eax
    27d9:	89 45 e4             	mov    %eax,0xffffffe4(%ebp)
    27dc:	8b 45 c8             	mov    0xffffffc8(%ebp),%eax
    27df:	3b 45 cc             	cmp    0xffffffcc(%ebp),%eax
    27e2:	77 0d                	ja     27f1 <_fpmaxtostr+0x45d>
    27e4:	8d 45 e4             	lea    0xffffffe4(%ebp),%eax
    27e7:	ff 00                	incl   (%eax)
    27e9:	8b 45 cc             	mov    0xffffffcc(%ebp),%eax
    27ec:	89 45 c8             	mov    %eax,0xffffffc8(%ebp)
    27ef:	eb 05                	jmp    27f6 <_fpmaxtostr+0x462>
    27f1:	8d 45 cc             	lea    0xffffffcc(%ebp),%eax
    27f4:	ff 00                	incl   (%eax)
    27f6:	8d 45 c8             	lea    0xffffffc8(%ebp),%eax
    27f9:	ff 00                	incl   (%eax)
    27fb:	8b 45 c8             	mov    0xffffffc8(%ebp),%eax
    27fe:	c6 00 00             	movb   $0x0,(%eax)
    2801:	80 bd 16 ff ff ff 67 	cmpb   $0x67,0xffffff16(%ebp)
    2808:	75 22                	jne    282c <_fpmaxtostr+0x498>
    280a:	83 7d e4 fc          	cmpl   $0xfffffffc,0xffffffe4(%ebp)
    280e:	7c 1c                	jl     282c <_fpmaxtostr+0x498>
    2810:	8b 45 e4             	mov    0xffffffe4(%ebp),%eax
    2813:	3b 45 e8             	cmp    0xffffffe8(%ebp),%eax
    2816:	7f 14                	jg     282c <_fpmaxtostr+0x498>
    2818:	c6 85 16 ff ff ff 66 	movb   $0x66,0xffffff16(%ebp)
    281f:	8b 45 e4             	mov    0xffffffe4(%ebp),%eax
    2822:	8b 55 e8             	mov    0xffffffe8(%ebp),%edx
    2825:	29 c2                	sub    %eax,%edx
    2827:	89 d0                	mov    %edx,%eax
    2829:	89 45 d4             	mov    %eax,0xffffffd4(%ebp)
    282c:	8b 45 e4             	mov    0xffffffe4(%ebp),%eax
    282f:	89 45 e0             	mov    %eax,0xffffffe0(%ebp)
    2832:	80 bd 16 ff ff ff 66 	cmpb   $0x66,0xffffff16(%ebp)
    2839:	74 07                	je     2842 <_fpmaxtostr+0x4ae>
    283b:	c7 45 e4 00 00 00 00 	movl   $0x0,0xffffffe4(%ebp)
    2842:	83 7d e4 00          	cmpl   $0x0,0xffffffe4(%ebp)
    2846:	79 0b                	jns    2853 <_fpmaxtostr+0x4bf>
    2848:	8d 45 cc             	lea    0xffffffcc(%ebp),%eax
    284b:	ff 08                	decl   (%eax)
    284d:	8b 45 cc             	mov    0xffffffcc(%ebp),%eax
    2850:	c6 00 30             	movb   $0x30,(%eax)
    2853:	c7 85 74 ff ff ff b0 	movl   $0xb0,0xffffff74(%ebp)
    285a:	00 00 00 
    285d:	c7 85 78 ff ff ff 01 	movl   $0x1,0xffffff78(%ebp)
    2864:	00 00 00 
    2867:	8d 85 18 ff ff ff    	lea    0xffffff18(%ebp),%eax
    286d:	83 c0 04             	add    $0x4,%eax
    2870:	89 85 7c ff ff ff    	mov    %eax,0xffffff7c(%ebp)
    2876:	8b 45 cc             	mov    0xffffffcc(%ebp),%eax
    2879:	8a 00                	mov    (%eax),%al
    287b:	88 85 1c ff ff ff    	mov    %al,0xffffff1c(%ebp)
    2881:	8d 45 cc             	lea    0xffffffcc(%ebp),%eax
    2884:	ff 00                	incl   (%eax)
    2886:	c6 85 1d ff ff ff 00 	movb   $0x0,0xffffff1d(%ebp)
    288d:	8d 85 68 ff ff ff    	lea    0xffffff68(%ebp),%eax
    2893:	83 c0 18             	add    $0x18,%eax
    2896:	89 85 64 ff ff ff    	mov    %eax,0xffffff64(%ebp)
    289c:	8b 55 cc             	mov    0xffffffcc(%ebp),%edx
    289f:	8b 45 c8             	mov    0xffffffc8(%ebp),%eax
    28a2:	29 d0                	sub    %edx,%eax
    28a4:	89 45 f0             	mov    %eax,0xfffffff0(%ebp)
    28a7:	83 7d e4 00          	cmpl   $0x0,0xffffffe4(%ebp)
    28ab:	0f 88 b6 00 00 00    	js     2967 <_fpmaxtostr+0x5d3>
    28b1:	8b 85 64 ff ff ff    	mov    0xffffff64(%ebp),%eax
    28b7:	c7 00 70 00 00 00    	movl   $0x70,(%eax)
    28bd:	8b 95 64 ff ff ff    	mov    0xffffff64(%ebp),%edx
    28c3:	83 c2 08             	add    $0x8,%edx
    28c6:	8b 45 cc             	mov    0xffffffcc(%ebp),%eax
    28c9:	89 02                	mov    %eax,(%edx)
    28cb:	8b 45 e4             	mov    0xffffffe4(%ebp),%eax
    28ce:	3b 45 f0             	cmp    0xfffffff0(%ebp),%eax
    28d1:	7c 60                	jl     2933 <_fpmaxtostr+0x59f>
    28d3:	8b 95 64 ff ff ff    	mov    0xffffff64(%ebp),%edx
    28d9:	83 c2 04             	add    $0x4,%edx
    28dc:	8b 45 f0             	mov    0xfffffff0(%ebp),%eax
    28df:	89 02                	mov    %eax,(%edx)
    28e1:	8d 85 64 ff ff ff    	lea    0xffffff64(%ebp),%eax
    28e7:	83 00 0c             	addl   $0xc,(%eax)
    28ea:	8b 55 f0             	mov    0xfffffff0(%ebp),%edx
    28ed:	8d 45 e4             	lea    0xffffffe4(%ebp),%eax
    28f0:	29 10                	sub    %edx,(%eax)
    28f2:	c7 45 f0 00 00 00 00 	movl   $0x0,0xfffffff0(%ebp)
    28f9:	83 7d e4 00          	cmpl   $0x0,0xffffffe4(%ebp)
    28fd:	7e 61                	jle    2960 <_fpmaxtostr+0x5cc>
    28ff:	8b 85 64 ff ff ff    	mov    0xffffff64(%ebp),%eax
    2905:	c7 00 b0 00 00 00    	movl   $0xb0,(%eax)
    290b:	8b 95 64 ff ff ff    	mov    0xffffff64(%ebp),%edx
    2911:	83 c2 04             	add    $0x4,%edx
    2914:	8b 45 e4             	mov    0xffffffe4(%ebp),%eax
    2917:	89 02                	mov    %eax,(%edx)
    2919:	8b 85 64 ff ff ff    	mov    0xffffff64(%ebp),%eax
    291f:	83 c0 08             	add    $0x8,%eax
    2922:	c7 00 a3 5c 00 00    	movl   $0x5ca3,(%eax)
    2928:	8d 85 64 ff ff ff    	lea    0xffffff64(%ebp),%eax
    292e:	83 00 0c             	addl   $0xc,(%eax)
    2931:	eb 2d                	jmp    2960 <_fpmaxtostr+0x5cc>
    2933:	83 7d e4 00          	cmpl   $0x0,0xffffffe4(%ebp)
    2937:	7e 27                	jle    2960 <_fpmaxtostr+0x5cc>
    2939:	8b 95 64 ff ff ff    	mov    0xffffff64(%ebp),%edx
    293f:	83 c2 04             	add    $0x4,%edx
    2942:	8b 45 e4             	mov    0xffffffe4(%ebp),%eax
    2945:	89 02                	mov    %eax,(%edx)
    2947:	8d 85 64 ff ff ff    	lea    0xffffff64(%ebp),%eax
    294d:	83 00 0c             	addl   $0xc,(%eax)
    2950:	8b 55 e4             	mov    0xffffffe4(%ebp),%edx
    2953:	8d 45 cc             	lea    0xffffffcc(%ebp),%eax
    2956:	01 10                	add    %edx,(%eax)
    2958:	8b 55 e4             	mov    0xffffffe4(%ebp),%edx
    295b:	8d 45 f0             	lea    0xfffffff0(%ebp),%eax
    295e:	29 10                	sub    %edx,(%eax)
    2960:	c7 45 e4 ff ff ff ff 	movl   $0xffffffff,0xffffffe4(%ebp)
    2967:	8b 45 18             	mov    0x18(%ebp),%eax
    296a:	8b 40 0c             	mov    0xc(%eax),%eax
    296d:	83 e0 10             	and    $0x10,%eax
    2970:	85 c0                	test   %eax,%eax
    2972:	75 17                	jne    298b <_fpmaxtostr+0x5f7>
    2974:	83 7d f0 00          	cmpl   $0x0,0xfffffff0(%ebp)
    2978:	75 11                	jne    298b <_fpmaxtostr+0x5f7>
    297a:	80 bd 17 ff ff ff 67 	cmpb   $0x67,0xffffff17(%ebp)
    2981:	74 3b                	je     29be <_fpmaxtostr+0x62a>
    2983:	83 7d d4 00          	cmpl   $0x0,0xffffffd4(%ebp)
    2987:	7f 02                	jg     298b <_fpmaxtostr+0x5f7>
    2989:	eb 33                	jmp    29be <_fpmaxtostr+0x62a>
    298b:	8b 85 64 ff ff ff    	mov    0xffffff64(%ebp),%eax
    2991:	c7 00 70 00 00 00    	movl   $0x70,(%eax)
    2997:	8b 85 64 ff ff ff    	mov    0xffffff64(%ebp),%eax
    299d:	83 c0 04             	add    $0x4,%eax
    29a0:	c7 00 01 00 00 00    	movl   $0x1,(%eax)
    29a6:	8b 85 64 ff ff ff    	mov    0xffffff64(%ebp),%eax
    29ac:	83 c0 08             	add    $0x8,%eax
    29af:	c7 00 b0 5c 00 00    	movl   $0x5cb0,(%eax)
    29b5:	8d 85 64 ff ff ff    	lea    0xffffff64(%ebp),%eax
    29bb:	83 00 0c             	addl   $0xc,(%eax)
    29be:	8d 45 e4             	lea    0xffffffe4(%ebp),%eax
    29c1:	ff 00                	incl   (%eax)
    29c3:	83 7d e4 00          	cmpl   $0x0,0xffffffe4(%ebp)
    29c7:	79 34                	jns    29fd <_fpmaxtostr+0x669>
    29c9:	8b 85 64 ff ff ff    	mov    0xffffff64(%ebp),%eax
    29cf:	c7 00 b0 00 00 00    	movl   $0xb0,(%eax)
    29d5:	8b 95 64 ff ff ff    	mov    0xffffff64(%ebp),%edx
    29db:	83 c2 04             	add    $0x4,%edx
    29de:	8b 45 e4             	mov    0xffffffe4(%ebp),%eax
    29e1:	f7 d8                	neg    %eax
    29e3:	89 02                	mov    %eax,(%edx)
    29e5:	8b 85 64 ff ff ff    	mov    0xffffff64(%ebp),%eax
    29eb:	83 c0 08             	add    $0x8,%eax
    29ee:	c7 00 a3 5c 00 00    	movl   $0x5ca3,(%eax)
    29f4:	8d 85 64 ff ff ff    	lea    0xffffff64(%ebp),%eax
    29fa:	83 00 0c             	addl   $0xc,(%eax)
    29fd:	83 7d f0 00          	cmpl   $0x0,0xfffffff0(%ebp)
    2a01:	74 31                	je     2a34 <_fpmaxtostr+0x6a0>
    2a03:	8b 85 64 ff ff ff    	mov    0xffffff64(%ebp),%eax
    2a09:	c7 00 70 00 00 00    	movl   $0x70,(%eax)
    2a0f:	8b 95 64 ff ff ff    	mov    0xffffff64(%ebp),%edx
    2a15:	83 c2 04             	add    $0x4,%edx
    2a18:	8b 45 f0             	mov    0xfffffff0(%ebp),%eax
    2a1b:	89 02                	mov    %eax,(%edx)
    2a1d:	8b 95 64 ff ff ff    	mov    0xffffff64(%ebp),%edx
    2a23:	83 c2 08             	add    $0x8,%edx
    2a26:	8b 45 cc             	mov    0xffffffcc(%ebp),%eax
    2a29:	89 02                	mov    %eax,(%edx)
    2a2b:	8d 85 64 ff ff ff    	lea    0xffffff64(%ebp),%eax
    2a31:	83 00 0c             	addl   $0xc,(%eax)
    2a34:	80 bd 17 ff ff ff 67 	cmpb   $0x67,0xffffff17(%ebp)
    2a3b:	75 0f                	jne    2a4c <_fpmaxtostr+0x6b8>
    2a3d:	8b 45 18             	mov    0x18(%ebp),%eax
    2a40:	8b 40 0c             	mov    0xc(%eax),%eax
    2a43:	83 e0 10             	and    $0x10,%eax
    2a46:	85 c0                	test   %eax,%eax
    2a48:	75 02                	jne    2a4c <_fpmaxtostr+0x6b8>
    2a4a:	eb 4d                	jmp    2a99 <_fpmaxtostr+0x705>
    2a4c:	8b 45 e4             	mov    0xffffffe4(%ebp),%eax
    2a4f:	8d 55 f0             	lea    0xfffffff0(%ebp),%edx
    2a52:	29 02                	sub    %eax,(%edx)
    2a54:	8b 45 f0             	mov    0xfffffff0(%ebp),%eax
    2a57:	3b 45 d4             	cmp    0xffffffd4(%ebp),%eax
    2a5a:	7d 3d                	jge    2a99 <_fpmaxtostr+0x705>
    2a5c:	8b 55 f0             	mov    0xfffffff0(%ebp),%edx
    2a5f:	8b 45 d4             	mov    0xffffffd4(%ebp),%eax
    2a62:	29 d0                	sub    %edx,%eax
    2a64:	89 45 f0             	mov    %eax,0xfffffff0(%ebp)
    2a67:	8b 85 64 ff ff ff    	mov    0xffffff64(%ebp),%eax
    2a6d:	c7 00 b0 00 00 00    	movl   $0xb0,(%eax)
    2a73:	8b 95 64 ff ff ff    	mov    0xffffff64(%ebp),%edx
    2a79:	83 c2 04             	add    $0x4,%edx
    2a7c:	8b 45 f0             	mov    0xfffffff0(%ebp),%eax
    2a7f:	89 02                	mov    %eax,(%edx)
    2a81:	8b 85 64 ff ff ff    	mov    0xffffff64(%ebp),%eax
    2a87:	83 c0 08             	add    $0x8,%eax
    2a8a:	c7 00 a3 5c 00 00    	movl   $0x5ca3,(%eax)
    2a90:	8d 85 64 ff ff ff    	lea    0xffffff64(%ebp),%eax
    2a96:	83 00 0c             	addl   $0xc,(%eax)
    2a99:	80 bd 16 ff ff ff 66 	cmpb   $0x66,0xffffff16(%ebp)
    2aa0:	0f 84 0a 01 00 00    	je     2bb0 <_fpmaxtostr+0x81c>
    2aa6:	8d 85 48 ff ff ff    	lea    0xffffff48(%ebp),%eax
    2aac:	83 c0 10             	add    $0x10,%eax
    2aaf:	89 85 10 ff ff ff    	mov    %eax,0xffffff10(%ebp)
    2ab5:	8a 85 48 ff ff ff    	mov    0xffffff48(%ebp),%al
    2abb:	88 85 0f ff ff ff    	mov    %al,0xffffff0f(%ebp)
    2ac1:	c6 85 0e ff ff ff 2b 	movb   $0x2b,0xffffff0e(%ebp)
    2ac8:	83 7d e0 00          	cmpl   $0x0,0xffffffe0(%ebp)
    2acc:	79 0c                	jns    2ada <_fpmaxtostr+0x746>
    2ace:	c6 85 0e ff ff ff 2d 	movb   $0x2d,0xffffff0e(%ebp)
    2ad5:	8d 45 e0             	lea    0xffffffe0(%ebp),%eax
    2ad8:	f7 18                	negl   (%eax)
    2ada:	8d 85 10 ff ff ff    	lea    0xffffff10(%ebp),%eax
    2ae0:	ff 08                	decl   (%eax)
    2ae2:	8b 85 10 ff ff ff    	mov    0xffffff10(%ebp),%eax
    2ae8:	c6 00 00             	movb   $0x0,(%eax)
    2aeb:	c7 45 ec 02 00 00 00 	movl   $0x2,0xffffffec(%ebp)
    2af2:	8d 85 10 ff ff ff    	lea    0xffffff10(%ebp),%eax
    2af8:	ff 08                	decl   (%eax)
    2afa:	8b 9d 10 ff ff ff    	mov    0xffffff10(%ebp),%ebx
    2b00:	8b 4d e0             	mov    0xffffffe0(%ebp),%ecx
    2b03:	b8 67 66 66 66       	mov    $0x66666667,%eax
    2b08:	f7 e9                	imul   %ecx
    2b0a:	c1 fa 02             	sar    $0x2,%edx
    2b0d:	89 c8                	mov    %ecx,%eax
    2b0f:	c1 f8 1f             	sar    $0x1f,%eax
    2b12:	29 c2                	sub    %eax,%edx
    2b14:	89 d0                	mov    %edx,%eax
    2b16:	c1 e0 02             	shl    $0x2,%eax
    2b19:	01 d0                	add    %edx,%eax
    2b1b:	d1 e0                	shl    %eax
    2b1d:	29 c1                	sub    %eax,%ecx
    2b1f:	89 c8                	mov    %ecx,%eax
    2b21:	83 c0 30             	add    $0x30,%eax
    2b24:	88 03                	mov    %al,(%ebx)
    2b26:	8b 4d e0             	mov    0xffffffe0(%ebp),%ecx
    2b29:	b8 67 66 66 66       	mov    $0x66666667,%eax
    2b2e:	f7 e9                	imul   %ecx
    2b30:	c1 fa 02             	sar    $0x2,%edx
    2b33:	89 c8                	mov    %ecx,%eax
    2b35:	c1 f8 1f             	sar    $0x1f,%eax
    2b38:	29 c2                	sub    %eax,%edx
    2b3a:	89 d0                	mov    %edx,%eax
    2b3c:	89 45 e0             	mov    %eax,0xffffffe0(%ebp)
    2b3f:	8d 45 ec             	lea    0xffffffec(%ebp),%eax
    2b42:	ff 00                	incl   (%eax)
    2b44:	83 7d ec 03          	cmpl   $0x3,0xffffffec(%ebp)
    2b48:	7e a8                	jle    2af2 <_fpmaxtostr+0x75e>
    2b4a:	83 7d e0 00          	cmpl   $0x0,0xffffffe0(%ebp)
    2b4e:	75 a2                	jne    2af2 <_fpmaxtostr+0x75e>
    2b50:	8d 85 10 ff ff ff    	lea    0xffffff10(%ebp),%eax
    2b56:	ff 08                	decl   (%eax)
    2b58:	8b 95 10 ff ff ff    	mov    0xffffff10(%ebp),%edx
    2b5e:	8a 85 0e ff ff ff    	mov    0xffffff0e(%ebp),%al
    2b64:	88 02                	mov    %al,(%edx)
    2b66:	8d 85 10 ff ff ff    	lea    0xffffff10(%ebp),%eax
    2b6c:	ff 08                	decl   (%eax)
    2b6e:	8b 95 10 ff ff ff    	mov    0xffffff10(%ebp),%edx
    2b74:	8a 85 0f ff ff ff    	mov    0xffffff0f(%ebp),%al
    2b7a:	88 02                	mov    %al,(%edx)
    2b7c:	8b 85 64 ff ff ff    	mov    0xffffff64(%ebp),%eax
    2b82:	c7 00 70 00 00 00    	movl   $0x70,(%eax)
    2b88:	8b 95 64 ff ff ff    	mov    0xffffff64(%ebp),%edx
    2b8e:	83 c2 04             	add    $0x4,%edx
    2b91:	8b 45 ec             	mov    0xffffffec(%ebp),%eax
    2b94:	89 02                	mov    %eax,(%edx)
    2b96:	8b 95 64 ff ff ff    	mov    0xffffff64(%ebp),%edx
    2b9c:	83 c2 08             	add    $0x8,%edx
    2b9f:	8b 85 10 ff ff ff    	mov    0xffffff10(%ebp),%eax
    2ba5:	89 02                	mov    %eax,(%edx)
    2ba7:	8d 85 64 ff ff ff    	lea    0xffffff64(%ebp),%eax
    2bad:	83 00 0c             	addl   $0xc,(%eax)
    2bb0:	8b 85 64 ff ff ff    	mov    0xffffff64(%ebp),%eax
    2bb6:	89 85 60 ff ff ff    	mov    %eax,0xffffff60(%ebp)
    2bbc:	8d 85 68 ff ff ff    	lea    0xffffff68(%ebp),%eax
    2bc2:	83 c0 10             	add    $0x10,%eax
    2bc5:	89 85 64 ff ff ff    	mov    %eax,0xffffff64(%ebp)
    2bcb:	8b 85 64 ff ff ff    	mov    0xffffff64(%ebp),%eax
    2bd1:	8b 10                	mov    (%eax),%edx
    2bd3:	8d 45 d8             	lea    0xffffffd8(%ebp),%eax
    2bd6:	29 10                	sub    %edx,(%eax)
    2bd8:	8d 85 64 ff ff ff    	lea    0xffffff64(%ebp),%eax
    2bde:	83 00 0c             	addl   $0xc,(%eax)
    2be1:	8b 85 64 ff ff ff    	mov    0xffffff64(%ebp),%eax
    2be7:	3b 85 60 ff ff ff    	cmp    0xffffff60(%ebp),%eax
    2bed:	72 dc                	jb     2bcb <_fpmaxtostr+0x837>
    2bef:	8d 85 68 ff ff ff    	lea    0xffffff68(%ebp),%eax
    2bf5:	89 85 64 ff ff ff    	mov    %eax,0xffffff64(%ebp)
    2bfb:	8b 85 64 ff ff ff    	mov    0xffffff64(%ebp),%eax
    2c01:	c7 00 a0 00 00 00    	movl   $0xa0,(%eax)
    2c07:	8b 95 64 ff ff ff    	mov    0xffffff64(%ebp),%edx
    2c0d:	83 c2 04             	add    $0x4,%edx
    2c10:	80 bd 18 ff ff ff 00 	cmpb   $0x0,0xffffff18(%ebp)
    2c17:	0f 95 c0             	setne  %al
    2c1a:	0f b6 c0             	movzbl %al,%eax
    2c1d:	89 45 f0             	mov    %eax,0xfffffff0(%ebp)
    2c20:	8b 45 f0             	mov    0xfffffff0(%ebp),%eax
    2c23:	89 02                	mov    %eax,(%edx)
    2c25:	8b 95 64 ff ff ff    	mov    0xffffff64(%ebp),%edx
    2c2b:	83 c2 08             	add    $0x8,%edx
    2c2e:	8d 85 18 ff ff ff    	lea    0xffffff18(%ebp),%eax
    2c34:	89 02                	mov    %eax,(%edx)
    2c36:	8b 55 f0             	mov    0xfffffff0(%ebp),%edx
    2c39:	8d 45 d8             	lea    0xffffffd8(%ebp),%eax
    2c3c:	29 10                	sub    %edx,(%eax)
    2c3e:	8b 45 d8             	mov    0xffffffd8(%ebp),%eax
    2c41:	85 c0                	test   %eax,%eax
    2c43:	7e 7e                	jle    2cc3 <_fpmaxtostr+0x92f>
    2c45:	8b 45 18             	mov    0x18(%ebp),%eax
    2c48:	8b 40 0c             	mov    0xc(%eax),%eax
    2c4b:	83 e0 08             	and    $0x8,%eax
    2c4e:	85 c0                	test   %eax,%eax
    2c50:	74 34                	je     2c86 <_fpmaxtostr+0x8f2>
    2c52:	8b 85 60 ff ff ff    	mov    0xffffff60(%ebp),%eax
    2c58:	c7 00 a0 00 00 00    	movl   $0xa0,(%eax)
    2c5e:	8b 95 60 ff ff ff    	mov    0xffffff60(%ebp),%edx
    2c64:	83 c2 04             	add    $0x4,%edx
    2c67:	8b 45 d8             	mov    0xffffffd8(%ebp),%eax
    2c6a:	89 02                	mov    %eax,(%edx)
    2c6c:	8b 85 60 ff ff ff    	mov    0xffffff60(%ebp),%eax
    2c72:	83 c0 08             	add    $0x8,%eax
    2c75:	c7 00 a3 5c 00 00    	movl   $0x5ca3,(%eax)
    2c7b:	8d 85 60 ff ff ff    	lea    0xffffff60(%ebp),%eax
    2c81:	83 00 0c             	addl   $0xc,(%eax)
    2c84:	eb 3d                	jmp    2cc3 <_fpmaxtostr+0x92f>
    2c86:	8b 45 18             	mov    0x18(%ebp),%eax
    2c89:	83 78 10 30          	cmpl   $0x30,0x10(%eax)
    2c8d:	75 1b                	jne    2caa <_fpmaxtostr+0x916>
    2c8f:	8b 8d 64 ff ff ff    	mov    0xffffff64(%ebp),%ecx
    2c95:	83 c1 10             	add    $0x10,%ecx
    2c98:	8b 95 64 ff ff ff    	mov    0xffffff64(%ebp),%edx
    2c9e:	83 c2 10             	add    $0x10,%edx
    2ca1:	8b 45 d8             	mov    0xffffffd8(%ebp),%eax
    2ca4:	03 02                	add    (%edx),%eax
    2ca6:	89 01                	mov    %eax,(%ecx)
    2ca8:	eb 19                	jmp    2cc3 <_fpmaxtostr+0x92f>
    2caa:	8b 8d 64 ff ff ff    	mov    0xffffff64(%ebp),%ecx
    2cb0:	83 c1 04             	add    $0x4,%ecx
    2cb3:	8b 95 64 ff ff ff    	mov    0xffffff64(%ebp),%edx
    2cb9:	83 c2 04             	add    $0x4,%edx
    2cbc:	8b 45 d8             	mov    0xffffffd8(%ebp),%eax
    2cbf:	03 02                	add    (%edx),%eax
    2cc1:	89 01                	mov    %eax,(%ecx)
    2cc3:	c7 45 d0 00 00 00 00 	movl   $0x0,0xffffffd0(%ebp)
    2cca:	8b 85 64 ff ff ff    	mov    0xffffff64(%ebp),%eax
    2cd0:	83 c0 08             	add    $0x8,%eax
    2cd3:	ff 30                	pushl  (%eax)
    2cd5:	8b 85 64 ff ff ff    	mov    0xffffff64(%ebp),%eax
    2cdb:	83 c0 04             	add    $0x4,%eax
    2cde:	ff 30                	pushl  (%eax)
    2ce0:	8b 85 64 ff ff ff    	mov    0xffffff64(%ebp),%eax
    2ce6:	ff 30                	pushl  (%eax)
    2ce8:	ff 75 08             	pushl  0x8(%ebp)
    2ceb:	8b 45 1c             	mov    0x1c(%ebp),%eax
    2cee:	ff d0                	call   *%eax
    2cf0:	83 c4 10             	add    $0x10,%esp
    2cf3:	8b 85 64 ff ff ff    	mov    0xffffff64(%ebp),%eax
    2cf9:	83 c0 04             	add    $0x4,%eax
    2cfc:	8b 10                	mov    (%eax),%edx
    2cfe:	8d 45 d0             	lea    0xffffffd0(%ebp),%eax
    2d01:	01 10                	add    %edx,(%eax)
    2d03:	8d 85 64 ff ff ff    	lea    0xffffff64(%ebp),%eax
    2d09:	83 00 0c             	addl   $0xc,(%eax)
    2d0c:	8b 85 64 ff ff ff    	mov    0xffffff64(%ebp),%eax
    2d12:	3b 85 60 ff ff ff    	cmp    0xffffff60(%ebp),%eax
    2d18:	72 b0                	jb     2cca <_fpmaxtostr+0x936>
    2d1a:	8b 45 d0             	mov    0xffffffd0(%ebp),%eax
    2d1d:	8b 5d fc             	mov    0xfffffffc(%ebp),%ebx
    2d20:	c9                   	leave  
    2d21:	c3                   	ret    
    2d22:	90                   	nop    
    2d23:	90                   	nop    

00002d24 <memset>:
    2d24:	55                   	push   %ebp
    2d25:	89 e5                	mov    %esp,%ebp
    2d27:	57                   	push   %edi
    2d28:	83 ec 08             	sub    $0x8,%esp
    2d2b:	8b 45 0c             	mov    0xc(%ebp),%eax
    2d2e:	8b 7d 08             	mov    0x8(%ebp),%edi
    2d31:	8b 4d 10             	mov    0x10(%ebp),%ecx
    2d34:	f3 aa                	repz stos %al,%es:(%edi)
    2d36:	89 c8                	mov    %ecx,%eax
    2d38:	89 45 f8             	mov    %eax,0xfffffff8(%ebp)
    2d3b:	89 f8                	mov    %edi,%eax
    2d3d:	89 45 f4             	mov    %eax,0xfffffff4(%ebp)
    2d40:	8b 45 08             	mov    0x8(%ebp),%eax
    2d43:	83 c4 08             	add    $0x8,%esp
    2d46:	5f                   	pop    %edi
    2d47:	c9                   	leave  
    2d48:	c3                   	ret    
    2d49:	90                   	nop    
    2d4a:	90                   	nop    
    2d4b:	90                   	nop    

00002d4c <strcasecmp>:
    2d4c:	55                   	push   %ebp
    2d4d:	89 e5                	mov    %esp,%ebp
    2d4f:	53                   	push   %ebx
    2d50:	83 ec 04             	sub    $0x4,%esp
    2d53:	c7 45 f8 00 00 00 00 	movl   $0x0,0xfffffff8(%ebp)
    2d5a:	8b 45 0c             	mov    0xc(%ebp),%eax
    2d5d:	39 45 08             	cmp    %eax,0x8(%ebp)
    2d60:	74 34                	je     2d96 <strcasecmp+0x4a>
    2d62:	83 ec 0c             	sub    $0xc,%esp
    2d65:	8b 55 08             	mov    0x8(%ebp),%edx
    2d68:	0f b6 02             	movzbl (%edx),%eax
    2d6b:	50                   	push   %eax
    2d6c:	e8 6b 18 00 00       	call   45dc <tolower>
    2d71:	83 c4 10             	add    $0x10,%esp
    2d74:	89 c3                	mov    %eax,%ebx
    2d76:	83 ec 0c             	sub    $0xc,%esp
    2d79:	8b 55 0c             	mov    0xc(%ebp),%edx
    2d7c:	0f b6 02             	movzbl (%edx),%eax
    2d7f:	50                   	push   %eax
    2d80:	e8 57 18 00 00       	call   45dc <tolower>
    2d85:	83 c4 10             	add    $0x10,%esp
    2d88:	29 c3                	sub    %eax,%ebx
    2d8a:	89 d8                	mov    %ebx,%eax
    2d8c:	89 45 f8             	mov    %eax,0xfffffff8(%ebp)
    2d8f:	8b 45 f8             	mov    0xfffffff8(%ebp),%eax
    2d92:	85 c0                	test   %eax,%eax
    2d94:	75 0f                	jne    2da5 <strcasecmp+0x59>
    2d96:	ff 45 0c             	incl   0xc(%ebp)
    2d99:	8b 55 08             	mov    0x8(%ebp),%edx
    2d9c:	8a 02                	mov    (%edx),%al
    2d9e:	ff 45 08             	incl   0x8(%ebp)
    2da1:	84 c0                	test   %al,%al
    2da3:	75 b5                	jne    2d5a <strcasecmp+0xe>
    2da5:	8b 45 f8             	mov    0xfffffff8(%ebp),%eax
    2da8:	8b 5d fc             	mov    0xfffffffc(%ebp),%ebx
    2dab:	c9                   	leave  
    2dac:	c3                   	ret    
    2dad:	90                   	nop    
    2dae:	90                   	nop    
    2daf:	90                   	nop    

00002db0 <strlen>:
    2db0:	55                   	push   %ebp
    2db1:	89 e5                	mov    %esp,%ebp
    2db3:	57                   	push   %edi
    2db4:	83 ec 04             	sub    $0x4,%esp
    2db7:	8b 7d 08             	mov    0x8(%ebp),%edi
    2dba:	b8 00 00 00 00       	mov    $0x0,%eax
    2dbf:	b9 ff ff ff ff       	mov    $0xffffffff,%ecx
    2dc4:	f2 ae                	repnz scas %es:(%edi),%al
    2dc6:	f7 d1                	not    %ecx
    2dc8:	49                   	dec    %ecx
    2dc9:	89 f8                	mov    %edi,%eax
    2dcb:	89 45 f8             	mov    %eax,0xfffffff8(%ebp)
    2dce:	89 c8                	mov    %ecx,%eax
    2dd0:	83 c4 04             	add    $0x4,%esp
    2dd3:	5f                   	pop    %edi
    2dd4:	c9                   	leave  
    2dd5:	c3                   	ret    
    2dd6:	90                   	nop    
    2dd7:	90                   	nop    

00002dd8 <strnlen>:
    2dd8:	55                   	push   %ebp
    2dd9:	89 e5                	mov    %esp,%ebp
    2ddb:	83 ec 04             	sub    $0x4,%esp
    2dde:	8b 4d 08             	mov    0x8(%ebp),%ecx
    2de1:	8b 55 0c             	mov    0xc(%ebp),%edx
    2de4:	89 c8                	mov    %ecx,%eax
    2de6:	eb 06                	jmp    2dee <strnlen+0x16>
    2de8:	80 38 00             	cmpb   $0x0,(%eax)
    2deb:	74 07                	je     2df4 <strnlen+0x1c>
    2ded:	40                   	inc    %eax
    2dee:	4a                   	dec    %edx
    2def:	83 fa ff             	cmp    $0xffffffff,%edx
    2df2:	75 f4                	jne    2de8 <strnlen+0x10>
    2df4:	29 c8                	sub    %ecx,%eax
    2df6:	89 c1                	mov    %eax,%ecx
    2df8:	89 d0                	mov    %edx,%eax
    2dfa:	89 45 fc             	mov    %eax,0xfffffffc(%ebp)
    2dfd:	89 c8                	mov    %ecx,%eax
    2dff:	c9                   	leave  
    2e00:	c3                   	ret    
    2e01:	90                   	nop    
    2e02:	90                   	nop    
    2e03:	90                   	nop    

00002e04 <strerror>:
    2e04:	55                   	push   %ebp
    2e05:	89 e5                	mov    %esp,%ebp
    2e07:	83 ec 08             	sub    $0x8,%esp
    2e0a:	83 ec 04             	sub    $0x4,%esp
    2e0d:	6a 32                	push   $0x32
    2e0f:	68 80 94 00 00       	push   $0x9480
    2e14:	ff 75 08             	pushl  0x8(%ebp)
    2e17:	e8 0c 00 00 00       	call   2e28 <_susv3_strerror_r>
    2e1c:	83 c4 10             	add    $0x10,%esp
    2e1f:	b8 80 94 00 00       	mov    $0x9480,%eax
    2e24:	c9                   	leave  
    2e25:	c3                   	ret    
    2e26:	90                   	nop    
    2e27:	90                   	nop    

00002e28 <_susv3_strerror_r>:
    2e28:	55                   	push   %ebp
    2e29:	89 e5                	mov    %esp,%ebp
    2e2b:	83 ec 68             	sub    $0x68,%esp
    2e2e:	c7 45 f0 16 00 00 00 	movl   $0x16,0xfffffff0(%ebp)
    2e35:	8b 45 08             	mov    0x8(%ebp),%eax
    2e38:	89 45 f4             	mov    %eax,0xfffffff4(%ebp)
    2e3b:	83 7d f4 7c          	cmpl   $0x7c,0xfffffff4(%ebp)
    2e3f:	77 32                	ja     2e73 <_susv3_strerror_r+0x4b>
    2e41:	c7 45 a4 a0 5d 00 00 	movl   $0x5da0,0xffffffa4(%ebp)
    2e48:	83 7d f4 00          	cmpl   $0x0,0xfffffff4(%ebp)
    2e4c:	75 02                	jne    2e50 <_susv3_strerror_r+0x28>
    2e4e:	eb 12                	jmp    2e62 <_susv3_strerror_r+0x3a>
    2e50:	8b 45 a4             	mov    0xffffffa4(%ebp),%eax
    2e53:	80 38 00             	cmpb   $0x0,(%eax)
    2e56:	75 05                	jne    2e5d <_susv3_strerror_r+0x35>
    2e58:	8d 45 f4             	lea    0xfffffff4(%ebp),%eax
    2e5b:	ff 08                	decl   (%eax)
    2e5d:	ff 45 a4             	incl   0xffffffa4(%ebp)
    2e60:	eb e6                	jmp    2e48 <_susv3_strerror_r+0x20>
    2e62:	8b 45 a4             	mov    0xffffffa4(%ebp),%eax
    2e65:	80 38 00             	cmpb   $0x0,(%eax)
    2e68:	74 09                	je     2e73 <_susv3_strerror_r+0x4b>
    2e6a:	c7 45 f0 00 00 00 00 	movl   $0x0,0xfffffff0(%ebp)
    2e71:	eb 38                	jmp    2eab <_susv3_strerror_r+0x83>
    2e73:	83 ec 0c             	sub    $0xc,%esp
    2e76:	6a 00                	push   $0x0
    2e78:	6a f6                	push   $0xfffffff6
    2e7a:	8b 45 08             	mov    0x8(%ebp),%eax
    2e7d:	99                   	cltd   
    2e7e:	52                   	push   %edx
    2e7f:	50                   	push   %eax
    2e80:	8d 45 a8             	lea    0xffffffa8(%ebp),%eax
    2e83:	83 c0 31             	add    $0x31,%eax
    2e86:	50                   	push   %eax
    2e87:	e8 9c 1c 00 00       	call   4b28 <_uintmaxtostr>
    2e8c:	83 c4 20             	add    $0x20,%esp
    2e8f:	89 45 a4             	mov    %eax,0xffffffa4(%ebp)
    2e92:	83 6d a4 0e          	subl   $0xe,0xffffffa4(%ebp)
    2e96:	83 ec 04             	sub    $0x4,%esp
    2e99:	6a 0e                	push   $0xe
    2e9b:	68 8c 5d 00 00       	push   $0x5d8c
    2ea0:	ff 75 a4             	pushl  0xffffffa4(%ebp)
    2ea3:	e8 48 28 00 00       	call   56f0 <memcpy>
    2ea8:	83 c4 10             	add    $0x10,%esp
    2eab:	83 7d 0c 00          	cmpl   $0x0,0xc(%ebp)
    2eaf:	75 07                	jne    2eb8 <_susv3_strerror_r+0x90>
    2eb1:	c7 45 10 00 00 00 00 	movl   $0x0,0x10(%ebp)
    2eb8:	83 ec 0c             	sub    $0xc,%esp
    2ebb:	ff 75 a4             	pushl  0xffffffa4(%ebp)
    2ebe:	e8 ed fe ff ff       	call   2db0 <strlen>
    2ec3:	83 c4 10             	add    $0x10,%esp
    2ec6:	40                   	inc    %eax
    2ec7:	89 45 f4             	mov    %eax,0xfffffff4(%ebp)
    2eca:	8b 45 f4             	mov    0xfffffff4(%ebp),%eax
    2ecd:	3b 45 10             	cmp    0x10(%ebp),%eax
    2ed0:	76 0d                	jbe    2edf <_susv3_strerror_r+0xb7>
    2ed2:	8b 45 10             	mov    0x10(%ebp),%eax
    2ed5:	89 45 f4             	mov    %eax,0xfffffff4(%ebp)
    2ed8:	c7 45 f0 22 00 00 00 	movl   $0x22,0xfffffff0(%ebp)
    2edf:	83 7d f4 00          	cmpl   $0x0,0xfffffff4(%ebp)
    2ee3:	74 1e                	je     2f03 <_susv3_strerror_r+0xdb>
    2ee5:	83 ec 04             	sub    $0x4,%esp
    2ee8:	ff 75 f4             	pushl  0xfffffff4(%ebp)
    2eeb:	ff 75 a4             	pushl  0xffffffa4(%ebp)
    2eee:	ff 75 0c             	pushl  0xc(%ebp)
    2ef1:	e8 fa 27 00 00       	call   56f0 <memcpy>
    2ef6:	83 c4 10             	add    $0x10,%esp
    2ef9:	8b 45 f4             	mov    0xfffffff4(%ebp),%eax
    2efc:	03 45 0c             	add    0xc(%ebp),%eax
    2eff:	48                   	dec    %eax
    2f00:	c6 00 00             	movb   $0x0,(%eax)
    2f03:	83 7d f0 00          	cmpl   $0x0,0xfffffff0(%ebp)
    2f07:	74 08                	je     2f11 <_susv3_strerror_r+0xe9>
    2f09:	8b 45 f0             	mov    0xfffffff0(%ebp),%eax
    2f0c:	a3 64 74 00 00       	mov    %eax,0x7464
    2f11:	8b 45 f0             	mov    0xfffffff0(%ebp),%eax
    2f14:	c9                   	leave  
    2f15:	c3                   	ret    
    2f16:	90                   	nop    
    2f17:	90                   	nop    

00002f18 <_glibc_strerror_r>:
    2f18:	55                   	push   %ebp
    2f19:	89 e5                	mov    %esp,%ebp
    2f1b:	83 ec 08             	sub    $0x8,%esp
    2f1e:	83 ec 04             	sub    $0x4,%esp
    2f21:	ff 75 10             	pushl  0x10(%ebp)
    2f24:	ff 75 0c             	pushl  0xc(%ebp)
    2f27:	ff 75 08             	pushl  0x8(%ebp)
    2f2a:	e8 f9 fe ff ff       	call   2e28 <_susv3_strerror_r>
    2f2f:	83 c4 10             	add    $0x10,%esp
    2f32:	8b 45 0c             	mov    0xc(%ebp),%eax
    2f35:	c9                   	leave  
    2f36:	c3                   	ret    
    2f37:	90                   	nop    

00002f38 <isatty>:
    2f38:	55                   	push   %ebp
    2f39:	89 e5                	mov    %esp,%ebp
    2f3b:	83 ec 58             	sub    $0x58,%esp
    2f3e:	83 ec 08             	sub    $0x8,%esp
    2f41:	8d 45 b8             	lea    0xffffffb8(%ebp),%eax
    2f44:	50                   	push   %eax
    2f45:	ff 75 08             	pushl  0x8(%ebp)
    2f48:	e8 1b 00 00 00       	call   2f68 <tcgetattr>
    2f4d:	83 c4 10             	add    $0x10,%esp
    2f50:	89 45 b4             	mov    %eax,0xffffffb4(%ebp)
    2f53:	83 7d b4 00          	cmpl   $0x0,0xffffffb4(%ebp)
    2f57:	0f 94 c0             	sete   %al
    2f5a:	0f b6 c0             	movzbl %al,%eax
    2f5d:	89 45 b4             	mov    %eax,0xffffffb4(%ebp)
    2f60:	8b 45 b4             	mov    0xffffffb4(%ebp),%eax
    2f63:	c9                   	leave  
    2f64:	c3                   	ret    
    2f65:	90                   	nop    
    2f66:	90                   	nop    
    2f67:	90                   	nop    

00002f68 <tcgetattr>:
    2f68:	55                   	push   %ebp
    2f69:	89 e5                	mov    %esp,%ebp
    2f6b:	83 ec 48             	sub    $0x48,%esp
    2f6e:	83 ec 04             	sub    $0x4,%esp
    2f71:	8d 45 c8             	lea    0xffffffc8(%ebp),%eax
    2f74:	50                   	push   %eax
    2f75:	68 01 54 00 00       	push   $0x5401
    2f7a:	ff 75 08             	pushl  0x8(%ebp)
    2f7d:	e8 7f 14 00 00       	call   4401 <ioctl>
    2f82:	83 c4 10             	add    $0x10,%esp
    2f85:	89 45 c4             	mov    %eax,0xffffffc4(%ebp)
    2f88:	8b 55 0c             	mov    0xc(%ebp),%edx
    2f8b:	8b 45 c8             	mov    0xffffffc8(%ebp),%eax
    2f8e:	89 02                	mov    %eax,(%edx)
    2f90:	8b 55 0c             	mov    0xc(%ebp),%edx
    2f93:	8b 45 cc             	mov    0xffffffcc(%ebp),%eax
    2f96:	89 42 04             	mov    %eax,0x4(%edx)
    2f99:	8b 55 0c             	mov    0xc(%ebp),%edx
    2f9c:	8b 45 d0             	mov    0xffffffd0(%ebp),%eax
    2f9f:	89 42 08             	mov    %eax,0x8(%edx)
    2fa2:	8b 55 0c             	mov    0xc(%ebp),%edx
    2fa5:	8b 45 d4             	mov    0xffffffd4(%ebp),%eax
    2fa8:	89 42 0c             	mov    %eax,0xc(%edx)
    2fab:	8b 55 0c             	mov    0xc(%ebp),%edx
    2fae:	8a 45 d8             	mov    0xffffffd8(%ebp),%al
    2fb1:	88 42 10             	mov    %al,0x10(%edx)
    2fb4:	83 ec 04             	sub    $0x4,%esp
    2fb7:	6a 0d                	push   $0xd
    2fb9:	6a 00                	push   $0x0
    2fbb:	83 ec 08             	sub    $0x8,%esp
    2fbe:	6a 13                	push   $0x13
    2fc0:	8d 45 c8             	lea    0xffffffc8(%ebp),%eax
    2fc3:	83 c0 11             	add    $0x11,%eax
    2fc6:	50                   	push   %eax
    2fc7:	8b 45 0c             	mov    0xc(%ebp),%eax
    2fca:	83 c0 11             	add    $0x11,%eax
    2fcd:	50                   	push   %eax
    2fce:	e8 5d 27 00 00       	call   5730 <mempcpy>
    2fd3:	83 c4 14             	add    $0x14,%esp
    2fd6:	50                   	push   %eax
    2fd7:	e8 48 fd ff ff       	call   2d24 <memset>
    2fdc:	83 c4 10             	add    $0x10,%esp
    2fdf:	8b 45 c4             	mov    0xffffffc4(%ebp),%eax
    2fe2:	c9                   	leave  
    2fe3:	c3                   	ret    
    2fe4:	90                   	nop    
    2fe5:	90                   	nop    
    2fe6:	90                   	nop    
    2fe7:	90                   	nop    
    2fe8:	90                   	nop    
    2fe9:	90                   	nop    
    2fea:	90                   	nop    
    2feb:	90                   	nop    
    2fec:	90                   	nop    
    2fed:	90                   	nop    
    2fee:	90                   	nop    
    2fef:	90                   	nop    

00002ff0 <__libc_sigaction>:
    2ff0:	55                   	push   %ebp
    2ff1:	89 e5                	mov    %esp,%ebp
    2ff3:	81 ec 48 01 00 00    	sub    $0x148,%esp
    2ff9:	83 7d 0c 00          	cmpl   $0x0,0xc(%ebp)
    2ffd:	0f 84 81 00 00 00    	je     3084 <__libc_sigaction+0x94>
    3003:	8b 45 0c             	mov    0xc(%ebp),%eax
    3006:	8b 00                	mov    (%eax),%eax
    3008:	89 85 58 ff ff ff    	mov    %eax,0xffffff58(%ebp)
    300e:	83 ec 04             	sub    $0x4,%esp
    3011:	68 80 00 00 00       	push   $0x80
    3016:	8b 45 0c             	mov    0xc(%ebp),%eax
    3019:	83 c0 04             	add    $0x4,%eax
    301c:	50                   	push   %eax
    301d:	8d 85 58 ff ff ff    	lea    0xffffff58(%ebp),%eax
    3023:	83 c0 0c             	add    $0xc,%eax
    3026:	50                   	push   %eax
    3027:	e8 c4 26 00 00       	call   56f0 <memcpy>
    302c:	83 c4 10             	add    $0x10,%esp
    302f:	8b 45 0c             	mov    0xc(%ebp),%eax
    3032:	8b 80 84 00 00 00    	mov    0x84(%eax),%eax
    3038:	89 85 5c ff ff ff    	mov    %eax,0xffffff5c(%ebp)
    303e:	8b 45 0c             	mov    0xc(%ebp),%eax
    3041:	8b 80 84 00 00 00    	mov    0x84(%eax),%eax
    3047:	0d 00 00 00 04       	or     $0x4000000,%eax
    304c:	89 85 5c ff ff ff    	mov    %eax,0xffffff5c(%ebp)
    3052:	8b 45 0c             	mov    0xc(%ebp),%eax
    3055:	8b 80 84 00 00 00    	mov    0x84(%eax),%eax
    305b:	83 e0 04             	and    $0x4,%eax
    305e:	85 c0                	test   %eax,%eax
    3060:	74 0c                	je     306e <__libc_sigaction+0x7e>
    3062:	c7 85 c4 fe ff ff 40 	movl   $0x3140,0xfffffec4(%ebp)
    3069:	31 00 00 
    306c:	eb 0a                	jmp    3078 <__libc_sigaction+0x88>
    306e:	c7 85 c4 fe ff ff 48 	movl   $0x3148,0xfffffec4(%ebp)
    3075:	31 00 00 
    3078:	8b 85 c4 fe ff ff    	mov    0xfffffec4(%ebp),%eax
    307e:	89 85 60 ff ff ff    	mov    %eax,0xffffff60(%ebp)
    3084:	6a 08                	push   $0x8
    3086:	83 7d 10 00          	cmpl   $0x0,0x10(%ebp)
    308a:	74 0e                	je     309a <__libc_sigaction+0xaa>
    308c:	8d 85 c8 fe ff ff    	lea    0xfffffec8(%ebp),%eax
    3092:	89 85 c0 fe ff ff    	mov    %eax,0xfffffec0(%ebp)
    3098:	eb 0a                	jmp    30a4 <__libc_sigaction+0xb4>
    309a:	c7 85 c0 fe ff ff 00 	movl   $0x0,0xfffffec0(%ebp)
    30a1:	00 00 00 
    30a4:	ff b5 c0 fe ff ff    	pushl  0xfffffec0(%ebp)
    30aa:	83 7d 0c 00          	cmpl   $0x0,0xc(%ebp)
    30ae:	74 0e                	je     30be <__libc_sigaction+0xce>
    30b0:	8d 85 58 ff ff ff    	lea    0xffffff58(%ebp),%eax
    30b6:	89 85 bc fe ff ff    	mov    %eax,0xfffffebc(%ebp)
    30bc:	eb 0a                	jmp    30c8 <__libc_sigaction+0xd8>
    30be:	c7 85 bc fe ff ff 00 	movl   $0x0,0xfffffebc(%ebp)
    30c5:	00 00 00 
    30c8:	ff b5 bc fe ff ff    	pushl  0xfffffebc(%ebp)
    30ce:	ff 75 08             	pushl  0x8(%ebp)
    30d1:	e8 72 14 00 00       	call   4548 <__syscall_rt_sigaction>
    30d6:	83 c4 10             	add    $0x10,%esp
    30d9:	89 45 f4             	mov    %eax,0xfffffff4(%ebp)
    30dc:	83 7d 10 00          	cmpl   $0x0,0x10(%ebp)
    30e0:	74 50                	je     3132 <__libc_sigaction+0x142>
    30e2:	83 7d f4 00          	cmpl   $0x0,0xfffffff4(%ebp)
    30e6:	78 4a                	js     3132 <__libc_sigaction+0x142>
    30e8:	8b 55 10             	mov    0x10(%ebp),%edx
    30eb:	8b 85 c8 fe ff ff    	mov    0xfffffec8(%ebp),%eax
    30f1:	89 02                	mov    %eax,(%edx)
    30f3:	83 ec 04             	sub    $0x4,%esp
    30f6:	68 80 00 00 00       	push   $0x80
    30fb:	8d 85 c8 fe ff ff    	lea    0xfffffec8(%ebp),%eax
    3101:	83 c0 0c             	add    $0xc,%eax
    3104:	50                   	push   %eax
    3105:	8b 45 10             	mov    0x10(%ebp),%eax
    3108:	83 c0 04             	add    $0x4,%eax
    310b:	50                   	push   %eax
    310c:	e8 df 25 00 00       	call   56f0 <memcpy>
    3111:	83 c4 10             	add    $0x10,%esp
    3114:	8b 55 10             	mov    0x10(%ebp),%edx
    3117:	8b 85 cc fe ff ff    	mov    0xfffffecc(%ebp),%eax
    311d:	89 82 84 00 00 00    	mov    %eax,0x84(%edx)
    3123:	8b 55 10             	mov    0x10(%ebp),%edx
    3126:	8b 85 d0 fe ff ff    	mov    0xfffffed0(%ebp),%eax
    312c:	89 82 88 00 00 00    	mov    %eax,0x88(%edx)
    3132:	8b 45 f4             	mov    0xfffffff4(%ebp),%eax
    3135:	c9                   	leave  
    3136:	c3                   	ret    
    3137:	89 f6                	mov    %esi,%esi
    3139:	8d bc 27 00 00 00 00 	lea    0x0(%edi,1),%edi
    3140:	b8 ad 00 00 00       	mov    $0xad,%eax
    3145:	cd 80                	int    $0x80
    3147:	90                   	nop    
    3148:	58                   	pop    %eax
    3149:	b8 77 00 00 00       	mov    $0x77,%eax
    314e:	cd 80                	int    $0x80

00003150 <atoi>:
    3150:	55                   	push   %ebp
    3151:	89 e5                	mov    %esp,%ebp
    3153:	83 ec 08             	sub    $0x8,%esp
    3156:	83 ec 04             	sub    $0x4,%esp
    3159:	6a 0a                	push   $0xa
    315b:	6a 00                	push   $0x0
    315d:	ff 75 08             	pushl  0x8(%ebp)
    3160:	e8 07 00 00 00       	call   316c <strtol>
    3165:	83 c4 10             	add    $0x10,%esp
    3168:	c9                   	leave  
    3169:	c3                   	ret    
    316a:	90                   	nop    
    316b:	90                   	nop    

0000316c <strtol>:
    316c:	55                   	push   %ebp
    316d:	89 e5                	mov    %esp,%ebp
    316f:	83 ec 08             	sub    $0x8,%esp
    3172:	6a 01                	push   $0x1
    3174:	ff 75 10             	pushl  0x10(%ebp)
    3177:	ff 75 0c             	pushl  0xc(%ebp)
    317a:	ff 75 08             	pushl  0x8(%ebp)
    317d:	e8 06 00 00 00       	call   3188 <_stdlib_strto_l>
    3182:	83 c4 10             	add    $0x10,%esp
    3185:	c9                   	leave  
    3186:	c3                   	ret    
    3187:	90                   	nop    

00003188 <_stdlib_strto_l>:
    3188:	55                   	push   %ebp
    3189:	89 e5                	mov    %esp,%ebp
    318b:	83 ec 28             	sub    $0x28,%esp
    318e:	8b 45 08             	mov    0x8(%ebp),%eax
    3191:	89 45 f4             	mov    %eax,0xfffffff4(%ebp)
    3194:	8b 55 08             	mov    0x8(%ebp),%edx
    3197:	0f be 02             	movsbl (%edx),%eax
    319a:	8d 14 00             	lea    (%eax,%eax,1),%edx
    319d:	a1 c8 73 00 00       	mov    0x73c8,%eax
    31a2:	0f b7 04 10          	movzwl (%eax,%edx,1),%eax
    31a6:	83 e0 20             	and    $0x20,%eax
    31a9:	85 c0                	test   %eax,%eax
    31ab:	75 02                	jne    31af <_stdlib_strto_l+0x27>
    31ad:	eb 05                	jmp    31b4 <_stdlib_strto_l+0x2c>
    31af:	ff 45 08             	incl   0x8(%ebp)
    31b2:	eb e0                	jmp    3194 <_stdlib_strto_l+0xc>
    31b4:	c6 45 f3 00          	movb   $0x0,0xfffffff3(%ebp)
    31b8:	8b 4d 08             	mov    0x8(%ebp),%ecx
    31bb:	0f be 09             	movsbl (%ecx),%ecx
    31be:	89 4d e8             	mov    %ecx,0xffffffe8(%ebp)
    31c1:	83 7d e8 2b          	cmpl   $0x2b,0xffffffe8(%ebp)
    31c5:	74 0c                	je     31d3 <_stdlib_strto_l+0x4b>
    31c7:	83 7d e8 2d          	cmpl   $0x2d,0xffffffe8(%ebp)
    31cb:	74 02                	je     31cf <_stdlib_strto_l+0x47>
    31cd:	eb 07                	jmp    31d6 <_stdlib_strto_l+0x4e>
    31cf:	c6 45 f3 01          	movb   $0x1,0xfffffff3(%ebp)
    31d3:	ff 45 08             	incl   0x8(%ebp)
    31d6:	8b 45 10             	mov    0x10(%ebp),%eax
    31d9:	83 e0 ef             	and    $0xffffffef,%eax
    31dc:	85 c0                	test   %eax,%eax
    31de:	75 41                	jne    3221 <_stdlib_strto_l+0x99>
    31e0:	8d 45 10             	lea    0x10(%ebp),%eax
    31e3:	83 00 0a             	addl   $0xa,(%eax)
    31e6:	8b 45 08             	mov    0x8(%ebp),%eax
    31e9:	80 38 30             	cmpb   $0x30,(%eax)
    31ec:	75 26                	jne    3214 <_stdlib_strto_l+0x8c>
    31ee:	ff 45 08             	incl   0x8(%ebp)
    31f1:	8b 55 08             	mov    0x8(%ebp),%edx
    31f4:	89 55 f4             	mov    %edx,0xfffffff4(%ebp)
    31f7:	8d 45 10             	lea    0x10(%ebp),%eax
    31fa:	83 28 02             	subl   $0x2,(%eax)
    31fd:	8b 4d 08             	mov    0x8(%ebp),%ecx
    3200:	8a 01                	mov    (%ecx),%al
    3202:	83 c8 20             	or     $0x20,%eax
    3205:	3c 78                	cmp    $0x78,%al
    3207:	75 0b                	jne    3214 <_stdlib_strto_l+0x8c>
    3209:	ff 45 08             	incl   0x8(%ebp)
    320c:	8b 55 10             	mov    0x10(%ebp),%edx
    320f:	8d 45 10             	lea    0x10(%ebp),%eax
    3212:	01 10                	add    %edx,(%eax)
    3214:	83 7d 10 10          	cmpl   $0x10,0x10(%ebp)
    3218:	7e 07                	jle    3221 <_stdlib_strto_l+0x99>
    321a:	c7 45 10 10 00 00 00 	movl   $0x10,0x10(%ebp)
    3221:	c7 45 fc 00 00 00 00 	movl   $0x0,0xfffffffc(%ebp)
    3228:	8b 45 10             	mov    0x10(%ebp),%eax
    322b:	83 e8 02             	sub    $0x2,%eax
    322e:	83 f8 22             	cmp    $0x22,%eax
    3231:	0f 87 da 00 00 00    	ja     3311 <_stdlib_strto_l+0x189>
    3237:	ba ff ff ff ff       	mov    $0xffffffff,%edx
    323c:	8d 45 10             	lea    0x10(%ebp),%eax
    323f:	89 45 d8             	mov    %eax,0xffffffd8(%ebp)
    3242:	89 d0                	mov    %edx,%eax
    3244:	8b 4d d8             	mov    0xffffffd8(%ebp),%ecx
    3247:	ba 00 00 00 00       	mov    $0x0,%edx
    324c:	f7 31                	divl   (%ecx)
    324e:	88 55 f1             	mov    %dl,0xfffffff1(%ebp)
    3251:	ba ff ff ff ff       	mov    $0xffffffff,%edx
    3256:	8d 45 10             	lea    0x10(%ebp),%eax
    3259:	89 45 d8             	mov    %eax,0xffffffd8(%ebp)
    325c:	89 d0                	mov    %edx,%eax
    325e:	8b 4d d8             	mov    0xffffffd8(%ebp),%ecx
    3261:	ba 00 00 00 00       	mov    $0x0,%edx
    3266:	f7 31                	divl   (%ecx)
    3268:	89 45 d8             	mov    %eax,0xffffffd8(%ebp)
    326b:	8b 45 d8             	mov    0xffffffd8(%ebp),%eax
    326e:	89 45 f8             	mov    %eax,0xfffffff8(%ebp)
    3271:	8b 55 08             	mov    0x8(%ebp),%edx
    3274:	8a 02                	mov    (%edx),%al
    3276:	83 e8 30             	sub    $0x30,%eax
    3279:	3c 09                	cmp    $0x9,%al
    327b:	77 0d                	ja     328a <_stdlib_strto_l+0x102>
    327d:	8b 45 08             	mov    0x8(%ebp),%eax
    3280:	8a 08                	mov    (%eax),%cl
    3282:	83 e9 30             	sub    $0x30,%ecx
    3285:	88 4d e7             	mov    %cl,0xffffffe7(%ebp)
    3288:	eb 1d                	jmp    32a7 <_stdlib_strto_l+0x11f>
    328a:	8b 55 08             	mov    0x8(%ebp),%edx
    328d:	80 3a 40             	cmpb   $0x40,(%edx)
    3290:	7e 11                	jle    32a3 <_stdlib_strto_l+0x11b>
    3292:	8b 45 08             	mov    0x8(%ebp),%eax
    3295:	8a 08                	mov    (%eax),%cl
    3297:	83 c9 20             	or     $0x20,%ecx
    329a:	88 4d e7             	mov    %cl,0xffffffe7(%ebp)
    329d:	80 6d e7 57          	subb   $0x57,0xffffffe7(%ebp)
    32a1:	eb 04                	jmp    32a7 <_stdlib_strto_l+0x11f>
    32a3:	c6 45 e7 28          	movb   $0x28,0xffffffe7(%ebp)
    32a7:	8a 55 e7             	mov    0xffffffe7(%ebp),%dl
    32aa:	88 55 f2             	mov    %dl,0xfffffff2(%ebp)
    32ad:	0f b6 45 f2          	movzbl 0xfffffff2(%ebp),%eax
    32b1:	3b 45 10             	cmp    0x10(%ebp),%eax
    32b4:	7c 02                	jl     32b8 <_stdlib_strto_l+0x130>
    32b6:	eb 59                	jmp    3311 <_stdlib_strto_l+0x189>
    32b8:	ff 45 08             	incl   0x8(%ebp)
    32bb:	8b 4d 08             	mov    0x8(%ebp),%ecx
    32be:	89 4d f4             	mov    %ecx,0xfffffff4(%ebp)
    32c1:	8b 45 fc             	mov    0xfffffffc(%ebp),%eax
    32c4:	3b 45 f8             	cmp    0xfffffff8(%ebp),%eax
    32c7:	77 12                	ja     32db <_stdlib_strto_l+0x153>
    32c9:	8b 45 fc             	mov    0xfffffffc(%ebp),%eax
    32cc:	3b 45 f8             	cmp    0xfffffff8(%ebp),%eax
    32cf:	75 28                	jne    32f9 <_stdlib_strto_l+0x171>
    32d1:	8a 45 f2             	mov    0xfffffff2(%ebp),%al
    32d4:	3a 45 f1             	cmp    0xfffffff1(%ebp),%al
    32d7:	77 02                	ja     32db <_stdlib_strto_l+0x153>
    32d9:	eb 1e                	jmp    32f9 <_stdlib_strto_l+0x171>
    32db:	c7 45 fc ff ff ff ff 	movl   $0xffffffff,0xfffffffc(%ebp)
    32e2:	8a 55 14             	mov    0x14(%ebp),%dl
    32e5:	8d 45 f3             	lea    0xfffffff3(%ebp),%eax
    32e8:	20 10                	and    %dl,(%eax)
    32ea:	c7 05 64 74 00 00 22 	movl   $0x22,0x7464
    32f1:	00 00 00 
    32f4:	e9 78 ff ff ff       	jmp    3271 <_stdlib_strto_l+0xe9>
    32f9:	8b 45 fc             	mov    0xfffffffc(%ebp),%eax
    32fc:	89 c2                	mov    %eax,%edx
    32fe:	0f af 55 10          	imul   0x10(%ebp),%edx
    3302:	0f b6 45 f2          	movzbl 0xfffffff2(%ebp),%eax
    3306:	8d 04 10             	lea    (%eax,%edx,1),%eax
    3309:	89 45 fc             	mov    %eax,0xfffffffc(%ebp)
    330c:	e9 60 ff ff ff       	jmp    3271 <_stdlib_strto_l+0xe9>
    3311:	83 7d 0c 00          	cmpl   $0x0,0xc(%ebp)
    3315:	74 08                	je     331f <_stdlib_strto_l+0x197>
    3317:	8b 55 0c             	mov    0xc(%ebp),%edx
    331a:	8b 45 f4             	mov    0xfffffff4(%ebp),%eax
    331d:	89 02                	mov    %eax,(%edx)
    331f:	80 7d f3 00          	cmpb   $0x0,0xfffffff3(%ebp)
    3323:	74 09                	je     332e <_stdlib_strto_l+0x1a6>
    3325:	c7 45 e0 00 00 00 80 	movl   $0x80000000,0xffffffe0(%ebp)
    332c:	eb 07                	jmp    3335 <_stdlib_strto_l+0x1ad>
    332e:	c7 45 e0 ff ff ff 7f 	movl   $0x7fffffff,0xffffffe0(%ebp)
    3335:	8b 45 e0             	mov    0xffffffe0(%ebp),%eax
    3338:	89 45 ec             	mov    %eax,0xffffffec(%ebp)
    333b:	83 7d 14 00          	cmpl   $0x0,0x14(%ebp)
    333f:	74 18                	je     3359 <_stdlib_strto_l+0x1d1>
    3341:	8b 45 fc             	mov    0xfffffffc(%ebp),%eax
    3344:	3b 45 ec             	cmp    0xffffffec(%ebp),%eax
    3347:	76 10                	jbe    3359 <_stdlib_strto_l+0x1d1>
    3349:	8b 45 ec             	mov    0xffffffec(%ebp),%eax
    334c:	89 45 fc             	mov    %eax,0xfffffffc(%ebp)
    334f:	c7 05 64 74 00 00 22 	movl   $0x22,0x7464
    3356:	00 00 00 
    3359:	80 7d f3 00          	cmpb   $0x0,0xfffffff3(%ebp)
    335d:	74 0a                	je     3369 <_stdlib_strto_l+0x1e1>
    335f:	8b 45 fc             	mov    0xfffffffc(%ebp),%eax
    3362:	f7 d8                	neg    %eax
    3364:	89 45 dc             	mov    %eax,0xffffffdc(%ebp)
    3367:	eb 06                	jmp    336f <_stdlib_strto_l+0x1e7>
    3369:	8b 55 fc             	mov    0xfffffffc(%ebp),%edx
    336c:	89 55 dc             	mov    %edx,0xffffffdc(%ebp)
    336f:	8b 45 dc             	mov    0xffffffdc(%ebp),%eax
    3372:	c9                   	leave  
    3373:	c3                   	ret    

00003374 <exit>:
    3374:	55                   	push   %ebp
    3375:	89 e5                	mov    %esp,%ebp
    3377:	83 ec 08             	sub    $0x8,%esp
    337a:	83 3d b4 94 00 00 00 	cmpl   $0x0,0x94b4
    3381:	74 10                	je     3393 <exit+0x1f>
    3383:	83 ec 0c             	sub    $0xc,%esp
    3386:	ff 75 08             	pushl  0x8(%ebp)
    3389:	a1 b4 94 00 00       	mov    0x94b4,%eax
    338e:	ff d0                	call   *%eax
    3390:	83 c4 10             	add    $0x10,%esp
    3393:	b8 5c 1a 00 00       	mov    $0x1a5c,%eax
    3398:	85 c0                	test   %eax,%eax
    339a:	74 05                	je     33a1 <exit+0x2d>
    339c:	e8 bb e6 ff ff       	call   1a5c <_stdio_term>
    33a1:	83 ec 0c             	sub    $0xc,%esp
    33a4:	ff 75 08             	pushl  0x8(%ebp)
    33a7:	e8 cc 0c 00 00       	call   4078 <_exit>

000033ac <__add_to_environ>:
    33ac:	55                   	push   %ebp
    33ad:	89 e5                	mov    %esp,%ebp
    33af:	56                   	push   %esi
    33b0:	53                   	push   %ebx
    33b1:	83 ec 20             	sub    $0x20,%esp
    33b4:	83 ec 0c             	sub    $0xc,%esp
    33b7:	ff 75 08             	pushl  0x8(%ebp)
    33ba:	e8 f1 f9 ff ff       	call   2db0 <strlen>
    33bf:	83 c4 10             	add    $0x10,%esp
    33c2:	89 45 f4             	mov    %eax,0xfffffff4(%ebp)
    33c5:	83 7d 0c 00          	cmpl   $0x0,0xc(%ebp)
    33c9:	74 16                	je     33e1 <__add_to_environ+0x35>
    33cb:	83 ec 0c             	sub    $0xc,%esp
    33ce:	ff 75 0c             	pushl  0xc(%ebp)
    33d1:	e8 da f9 ff ff       	call   2db0 <strlen>
    33d6:	83 c4 10             	add    $0x10,%esp
    33d9:	89 45 dc             	mov    %eax,0xffffffdc(%ebp)
    33dc:	ff 45 dc             	incl   0xffffffdc(%ebp)
    33df:	eb 07                	jmp    33e8 <__add_to_environ+0x3c>
    33e1:	c7 45 dc 00 00 00 00 	movl   $0x0,0xffffffdc(%ebp)
    33e8:	8b 45 dc             	mov    0xffffffdc(%ebp),%eax
    33eb:	89 45 f0             	mov    %eax,0xfffffff0(%ebp)
    33ee:	8b 15 58 74 00 00    	mov    0x7458,%edx
    33f4:	89 55 e4             	mov    %edx,0xffffffe4(%ebp)
    33f7:	c7 45 e0 00 00 00 00 	movl   $0x0,0xffffffe0(%ebp)
    33fe:	83 7d e4 00          	cmpl   $0x0,0xffffffe4(%ebp)
    3402:	74 3c                	je     3440 <__add_to_environ+0x94>
    3404:	8b 45 e4             	mov    0xffffffe4(%ebp),%eax
    3407:	83 38 00             	cmpl   $0x0,(%eax)
    340a:	75 02                	jne    340e <__add_to_environ+0x62>
    340c:	eb 32                	jmp    3440 <__add_to_environ+0x94>
    340e:	83 ec 04             	sub    $0x4,%esp
    3411:	ff 75 f4             	pushl  0xfffffff4(%ebp)
    3414:	ff 75 08             	pushl  0x8(%ebp)
    3417:	8b 55 e4             	mov    0xffffffe4(%ebp),%edx
    341a:	ff 32                	pushl  (%edx)
    341c:	e8 77 23 00 00       	call   5798 <strncmp>
    3421:	83 c4 10             	add    $0x10,%esp
    3424:	85 c0                	test   %eax,%eax
    3426:	75 0f                	jne    3437 <__add_to_environ+0x8b>
    3428:	8b 45 f4             	mov    0xfffffff4(%ebp),%eax
    342b:	8b 55 e4             	mov    0xffffffe4(%ebp),%edx
    342e:	03 02                	add    (%edx),%eax
    3430:	80 38 3d             	cmpb   $0x3d,(%eax)
    3433:	75 02                	jne    3437 <__add_to_environ+0x8b>
    3435:	eb 09                	jmp    3440 <__add_to_environ+0x94>
    3437:	ff 45 e0             	incl   0xffffffe0(%ebp)
    343a:	83 45 e4 04          	addl   $0x4,0xffffffe4(%ebp)
    343e:	eb c4                	jmp    3404 <__add_to_environ+0x58>
    3440:	83 7d e4 00          	cmpl   $0x0,0xffffffe4(%ebp)
    3444:	74 0c                	je     3452 <__add_to_environ+0xa6>
    3446:	8b 45 e4             	mov    0xffffffe4(%ebp),%eax
    3449:	83 38 00             	cmpl   $0x0,(%eax)
    344c:	0f 85 40 01 00 00    	jne    3592 <__add_to_environ+0x1e6>
    3452:	83 ec 08             	sub    $0x8,%esp
    3455:	8b 45 e0             	mov    0xffffffe0(%ebp),%eax
    3458:	c1 e0 02             	shl    $0x2,%eax
    345b:	83 c0 08             	add    $0x8,%eax
    345e:	50                   	push   %eax
    345f:	ff 35 b8 94 00 00    	pushl  0x94b8
    3465:	e8 b2 05 00 00       	call   3a1c <realloc>
    346a:	83 c4 10             	add    $0x10,%esp
    346d:	89 45 ec             	mov    %eax,0xffffffec(%ebp)
    3470:	83 7d ec 00          	cmpl   $0x0,0xffffffec(%ebp)
    3474:	75 0c                	jne    3482 <__add_to_environ+0xd6>
    3476:	c7 45 e8 ff ff ff ff 	movl   $0xffffffff,0xffffffe8(%ebp)
    347d:	e9 8e 01 00 00       	jmp    3610 <__add_to_environ+0x264>
    3482:	83 7d 10 00          	cmpl   $0x0,0x10(%ebp)
    3486:	74 18                	je     34a0 <__add_to_environ+0xf4>
    3488:	8b 45 e0             	mov    0xffffffe0(%ebp),%eax
    348b:	8d 0c 85 00 00 00 00 	lea    0x0(,%eax,4),%ecx
    3492:	8b 55 ec             	mov    0xffffffec(%ebp),%edx
    3495:	8b 45 10             	mov    0x10(%ebp),%eax
    3498:	89 04 0a             	mov    %eax,(%edx,%ecx,1)
    349b:	e9 a9 00 00 00       	jmp    3549 <__add_to_environ+0x19d>
    34a0:	8b 45 e0             	mov    0xffffffe0(%ebp),%eax
    34a3:	8d 1c 85 00 00 00 00 	lea    0x0(,%eax,4),%ebx
    34aa:	8b 75 ec             	mov    0xffffffec(%ebp),%esi
    34ad:	83 ec 0c             	sub    $0xc,%esp
    34b0:	8b 45 f0             	mov    0xfffffff0(%ebp),%eax
    34b3:	03 45 f4             	add    0xfffffff4(%ebp),%eax
    34b6:	40                   	inc    %eax
    34b7:	50                   	push   %eax
    34b8:	e8 e7 03 00 00       	call   38a4 <malloc>
    34bd:	83 c4 10             	add    $0x10,%esp
    34c0:	89 04 1e             	mov    %eax,(%esi,%ebx,1)
    34c3:	8b 45 e0             	mov    0xffffffe0(%ebp),%eax
    34c6:	8d 14 85 00 00 00 00 	lea    0x0(,%eax,4),%edx
    34cd:	8b 45 ec             	mov    0xffffffec(%ebp),%eax
    34d0:	83 3c 10 00          	cmpl   $0x0,(%eax,%edx,1)
    34d4:	75 16                	jne    34ec <__add_to_environ+0x140>
    34d6:	c7 05 64 74 00 00 0c 	movl   $0xc,0x7464
    34dd:	00 00 00 
    34e0:	c7 45 e8 ff ff ff ff 	movl   $0xffffffff,0xffffffe8(%ebp)
    34e7:	e9 24 01 00 00       	jmp    3610 <__add_to_environ+0x264>
    34ec:	83 ec 04             	sub    $0x4,%esp
    34ef:	ff 75 f4             	pushl  0xfffffff4(%ebp)
    34f2:	ff 75 08             	pushl  0x8(%ebp)
    34f5:	8b 45 e0             	mov    0xffffffe0(%ebp),%eax
    34f8:	8d 14 85 00 00 00 00 	lea    0x0(,%eax,4),%edx
    34ff:	8b 45 ec             	mov    0xffffffec(%ebp),%eax
    3502:	ff 34 10             	pushl  (%eax,%edx,1)
    3505:	e8 e6 21 00 00       	call   56f0 <memcpy>
    350a:	83 c4 10             	add    $0x10,%esp
    350d:	8b 45 e0             	mov    0xffffffe0(%ebp),%eax
    3510:	8d 0c 85 00 00 00 00 	lea    0x0(,%eax,4),%ecx
    3517:	8b 55 ec             	mov    0xffffffec(%ebp),%edx
    351a:	8b 45 f4             	mov    0xfffffff4(%ebp),%eax
    351d:	03 04 0a             	add    (%edx,%ecx,1),%eax
    3520:	c6 00 3d             	movb   $0x3d,(%eax)
    3523:	83 ec 04             	sub    $0x4,%esp
    3526:	ff 75 f0             	pushl  0xfffffff0(%ebp)
    3529:	ff 75 0c             	pushl  0xc(%ebp)
    352c:	8b 45 e0             	mov    0xffffffe0(%ebp),%eax
    352f:	8d 0c 85 00 00 00 00 	lea    0x0(,%eax,4),%ecx
    3536:	8b 55 ec             	mov    0xffffffec(%ebp),%edx
    3539:	8b 45 f4             	mov    0xfffffff4(%ebp),%eax
    353c:	03 04 0a             	add    (%edx,%ecx,1),%eax
    353f:	40                   	inc    %eax
    3540:	50                   	push   %eax
    3541:	e8 aa 21 00 00       	call   56f0 <memcpy>
    3546:	83 c4 10             	add    $0x10,%esp
    3549:	a1 58 74 00 00       	mov    0x7458,%eax
    354e:	3b 05 b8 94 00 00    	cmp    0x94b8,%eax
    3554:	74 1b                	je     3571 <__add_to_environ+0x1c5>
    3556:	83 ec 04             	sub    $0x4,%esp
    3559:	8b 45 e0             	mov    0xffffffe0(%ebp),%eax
    355c:	c1 e0 02             	shl    $0x2,%eax
    355f:	50                   	push   %eax
    3560:	ff 35 58 74 00 00    	pushl  0x7458
    3566:	ff 75 ec             	pushl  0xffffffec(%ebp)
    3569:	e8 82 21 00 00       	call   56f0 <memcpy>
    356e:	83 c4 10             	add    $0x10,%esp
    3571:	8b 45 e0             	mov    0xffffffe0(%ebp),%eax
    3574:	c1 e0 02             	shl    $0x2,%eax
    3577:	03 45 ec             	add    0xffffffec(%ebp),%eax
    357a:	83 c0 04             	add    $0x4,%eax
    357d:	c7 00 00 00 00 00    	movl   $0x0,(%eax)
    3583:	8b 45 ec             	mov    0xffffffec(%ebp),%eax
    3586:	a3 58 74 00 00       	mov    %eax,0x7458
    358b:	a3 b8 94 00 00       	mov    %eax,0x94b8
    3590:	eb 77                	jmp    3609 <__add_to_environ+0x25d>
    3592:	83 7d 14 00          	cmpl   $0x0,0x14(%ebp)
    3596:	74 71                	je     3609 <__add_to_environ+0x25d>
    3598:	83 7d 10 00          	cmpl   $0x0,0x10(%ebp)
    359c:	74 08                	je     35a6 <__add_to_environ+0x1fa>
    359e:	8b 45 10             	mov    0x10(%ebp),%eax
    35a1:	89 45 ec             	mov    %eax,0xffffffec(%ebp)
    35a4:	eb 5b                	jmp    3601 <__add_to_environ+0x255>
    35a6:	83 ec 0c             	sub    $0xc,%esp
    35a9:	8b 45 f0             	mov    0xfffffff0(%ebp),%eax
    35ac:	03 45 f4             	add    0xfffffff4(%ebp),%eax
    35af:	40                   	inc    %eax
    35b0:	50                   	push   %eax
    35b1:	e8 ee 02 00 00       	call   38a4 <malloc>
    35b6:	83 c4 10             	add    $0x10,%esp
    35b9:	89 45 ec             	mov    %eax,0xffffffec(%ebp)
    35bc:	83 7d ec 00          	cmpl   $0x0,0xffffffec(%ebp)
    35c0:	75 09                	jne    35cb <__add_to_environ+0x21f>
    35c2:	c7 45 e8 ff ff ff ff 	movl   $0xffffffff,0xffffffe8(%ebp)
    35c9:	eb 45                	jmp    3610 <__add_to_environ+0x264>
    35cb:	83 ec 04             	sub    $0x4,%esp
    35ce:	ff 75 f4             	pushl  0xfffffff4(%ebp)
    35d1:	ff 75 08             	pushl  0x8(%ebp)
    35d4:	ff 75 ec             	pushl  0xffffffec(%ebp)
    35d7:	e8 14 21 00 00       	call   56f0 <memcpy>
    35dc:	83 c4 10             	add    $0x10,%esp
    35df:	8b 45 f4             	mov    0xfffffff4(%ebp),%eax
    35e2:	03 45 ec             	add    0xffffffec(%ebp),%eax
    35e5:	c6 00 3d             	movb   $0x3d,(%eax)
    35e8:	83 ec 04             	sub    $0x4,%esp
    35eb:	ff 75 f0             	pushl  0xfffffff0(%ebp)
    35ee:	ff 75 0c             	pushl  0xc(%ebp)
    35f1:	8b 45 f4             	mov    0xfffffff4(%ebp),%eax
    35f4:	03 45 ec             	add    0xffffffec(%ebp),%eax
    35f7:	40                   	inc    %eax
    35f8:	50                   	push   %eax
    35f9:	e8 f2 20 00 00       	call   56f0 <memcpy>
    35fe:	83 c4 10             	add    $0x10,%esp
    3601:	8b 45 ec             	mov    0xffffffec(%ebp),%eax
    3604:	8b 55 e4             	mov    0xffffffe4(%ebp),%edx
    3607:	89 02                	mov    %eax,(%edx)
    3609:	c7 45 e8 00 00 00 00 	movl   $0x0,0xffffffe8(%ebp)
    3610:	8b 45 e8             	mov    0xffffffe8(%ebp),%eax
    3613:	8d 65 f8             	lea    0xfffffff8(%ebp),%esp
    3616:	5b                   	pop    %ebx
    3617:	5e                   	pop    %esi
    3618:	c9                   	leave  
    3619:	c3                   	ret    

0000361a <setenv>:
    361a:	55                   	push   %ebp
    361b:	89 e5                	mov    %esp,%ebp
    361d:	83 ec 08             	sub    $0x8,%esp
    3620:	ff 75 10             	pushl  0x10(%ebp)
    3623:	6a 00                	push   $0x0
    3625:	ff 75 0c             	pushl  0xc(%ebp)
    3628:	ff 75 08             	pushl  0x8(%ebp)
    362b:	e8 7c fd ff ff       	call   33ac <__add_to_environ>
    3630:	83 c4 10             	add    $0x10,%esp
    3633:	c9                   	leave  
    3634:	c3                   	ret    

00003635 <unsetenv>:
    3635:	55                   	push   %ebp
    3636:	89 e5                	mov    %esp,%ebp
    3638:	83 ec 18             	sub    $0x18,%esp
    363b:	83 7d 08 00          	cmpl   $0x0,0x8(%ebp)
    363f:	74 1e                	je     365f <unsetenv+0x2a>
    3641:	8b 45 08             	mov    0x8(%ebp),%eax
    3644:	80 38 00             	cmpb   $0x0,(%eax)
    3647:	74 16                	je     365f <unsetenv+0x2a>
    3649:	83 ec 08             	sub    $0x8,%esp
    364c:	6a 3d                	push   $0x3d
    364e:	ff 75 08             	pushl  0x8(%ebp)
    3651:	e8 12 21 00 00       	call   5768 <strchr>
    3656:	83 c4 10             	add    $0x10,%esp
    3659:	85 c0                	test   %eax,%eax
    365b:	75 02                	jne    365f <unsetenv+0x2a>
    365d:	eb 16                	jmp    3675 <unsetenv+0x40>
    365f:	c7 05 64 74 00 00 16 	movl   $0x16,0x7464
    3666:	00 00 00 
    3669:	c7 45 f0 ff ff ff ff 	movl   $0xffffffff,0xfffffff0(%ebp)
    3670:	e9 80 00 00 00       	jmp    36f5 <unsetenv+0xc0>
    3675:	83 ec 0c             	sub    $0xc,%esp
    3678:	ff 75 08             	pushl  0x8(%ebp)
    367b:	e8 30 f7 ff ff       	call   2db0 <strlen>
    3680:	83 c4 10             	add    $0x10,%esp
    3683:	89 45 fc             	mov    %eax,0xfffffffc(%ebp)
    3686:	a1 58 74 00 00       	mov    0x7458,%eax
    368b:	89 45 f8             	mov    %eax,0xfffffff8(%ebp)
    368e:	8b 45 f8             	mov    0xfffffff8(%ebp),%eax
    3691:	83 38 00             	cmpl   $0x0,(%eax)
    3694:	75 02                	jne    3698 <unsetenv+0x63>
    3696:	eb 56                	jmp    36ee <unsetenv+0xb9>
    3698:	8b 45 f8             	mov    0xfffffff8(%ebp),%eax
    369b:	83 ec 04             	sub    $0x4,%esp
    369e:	ff 75 fc             	pushl  0xfffffffc(%ebp)
    36a1:	ff 75 08             	pushl  0x8(%ebp)
    36a4:	ff 30                	pushl  (%eax)
    36a6:	e8 ed 20 00 00       	call   5798 <strncmp>
    36ab:	83 c4 10             	add    $0x10,%esp
    36ae:	85 c0                	test   %eax,%eax
    36b0:	75 34                	jne    36e6 <unsetenv+0xb1>
    36b2:	8b 45 f8             	mov    0xfffffff8(%ebp),%eax
    36b5:	8b 55 fc             	mov    0xfffffffc(%ebp),%edx
    36b8:	8b 00                	mov    (%eax),%eax
    36ba:	01 d0                	add    %edx,%eax
    36bc:	80 38 3d             	cmpb   $0x3d,(%eax)
    36bf:	75 25                	jne    36e6 <unsetenv+0xb1>
    36c1:	8b 45 f8             	mov    0xfffffff8(%ebp),%eax
    36c4:	89 45 f4             	mov    %eax,0xfffffff4(%ebp)
    36c7:	8b 55 f4             	mov    0xfffffff4(%ebp),%edx
    36ca:	8b 45 f4             	mov    0xfffffff4(%ebp),%eax
    36cd:	83 c0 04             	add    $0x4,%eax
    36d0:	8b 00                	mov    (%eax),%eax
    36d2:	89 02                	mov    %eax,(%edx)
    36d4:	8b 45 f4             	mov    0xfffffff4(%ebp),%eax
    36d7:	89 c2                	mov    %eax,%edx
    36d9:	8d 45 f4             	lea    0xfffffff4(%ebp),%eax
    36dc:	83 00 04             	addl   $0x4,(%eax)
    36df:	83 3a 00             	cmpl   $0x0,(%edx)
    36e2:	75 e3                	jne    36c7 <unsetenv+0x92>
    36e4:	eb a8                	jmp    368e <unsetenv+0x59>
    36e6:	8d 45 f8             	lea    0xfffffff8(%ebp),%eax
    36e9:	83 00 04             	addl   $0x4,(%eax)
    36ec:	eb a0                	jmp    368e <unsetenv+0x59>
    36ee:	c7 45 f0 00 00 00 00 	movl   $0x0,0xfffffff0(%ebp)
    36f5:	8b 45 f0             	mov    0xfffffff0(%ebp),%eax
    36f8:	c9                   	leave  
    36f9:	c3                   	ret    

000036fa <clearenv>:
    36fa:	55                   	push   %ebp
    36fb:	89 e5                	mov    %esp,%ebp
    36fd:	83 ec 08             	sub    $0x8,%esp
    3700:	a1 58 74 00 00       	mov    0x7458,%eax
    3705:	3b 05 b8 94 00 00    	cmp    0x94b8,%eax
    370b:	75 24                	jne    3731 <clearenv+0x37>
    370d:	83 3d 58 74 00 00 00 	cmpl   $0x0,0x7458
    3714:	74 1b                	je     3731 <clearenv+0x37>
    3716:	83 ec 0c             	sub    $0xc,%esp
    3719:	ff 35 58 74 00 00    	pushl  0x7458
    371f:	e8 99 02 00 00       	call   39bd <free>
    3724:	83 c4 10             	add    $0x10,%esp
    3727:	c7 05 b8 94 00 00 00 	movl   $0x0,0x94b8
    372e:	00 00 00 
    3731:	c7 05 58 74 00 00 00 	movl   $0x0,0x7458
    3738:	00 00 00 
    373b:	b8 00 00 00 00       	mov    $0x0,%eax
    3740:	c9                   	leave  
    3741:	c3                   	ret    

00003742 <putenv>:
    3742:	55                   	push   %ebp
    3743:	89 e5                	mov    %esp,%ebp
    3745:	83 ec 18             	sub    $0x18,%esp
    3748:	83 ec 08             	sub    $0x8,%esp
    374b:	6a 3d                	push   $0x3d
    374d:	ff 75 08             	pushl  0x8(%ebp)
    3750:	e8 13 20 00 00       	call   5768 <strchr>
    3755:	83 c4 10             	add    $0x10,%esp
    3758:	89 45 f8             	mov    %eax,0xfffffff8(%ebp)
    375b:	83 7d f8 00          	cmpl   $0x0,0xfffffff8(%ebp)
    375f:	74 45                	je     37a6 <putenv+0x64>
    3761:	83 ec 08             	sub    $0x8,%esp
    3764:	8b 55 08             	mov    0x8(%ebp),%edx
    3767:	8b 45 f8             	mov    0xfffffff8(%ebp),%eax
    376a:	29 d0                	sub    %edx,%eax
    376c:	50                   	push   %eax
    376d:	ff 75 08             	pushl  0x8(%ebp)
    3770:	e8 63 20 00 00       	call   57d8 <strndup>
    3775:	83 c4 10             	add    $0x10,%esp
    3778:	89 45 f4             	mov    %eax,0xfffffff4(%ebp)
    377b:	6a 01                	push   $0x1
    377d:	ff 75 08             	pushl  0x8(%ebp)
    3780:	6a 00                	push   $0x0
    3782:	ff 75 f4             	pushl  0xfffffff4(%ebp)
    3785:	e8 22 fc ff ff       	call   33ac <__add_to_environ>
    378a:	83 c4 10             	add    $0x10,%esp
    378d:	89 45 fc             	mov    %eax,0xfffffffc(%ebp)
    3790:	83 ec 0c             	sub    $0xc,%esp
    3793:	ff 75 f4             	pushl  0xfffffff4(%ebp)
    3796:	e8 22 02 00 00       	call   39bd <free>
    379b:	83 c4 10             	add    $0x10,%esp
    379e:	8b 45 fc             	mov    0xfffffffc(%ebp),%eax
    37a1:	89 45 f0             	mov    %eax,0xfffffff0(%ebp)
    37a4:	eb 15                	jmp    37bb <putenv+0x79>
    37a6:	83 ec 0c             	sub    $0xc,%esp
    37a9:	ff 75 08             	pushl  0x8(%ebp)
    37ac:	e8 84 fe ff ff       	call   3635 <unsetenv>
    37b1:	83 c4 10             	add    $0x10,%esp
    37b4:	c7 45 f0 00 00 00 00 	movl   $0x0,0xfffffff0(%ebp)
    37bb:	8b 45 f0             	mov    0xfffffff0(%ebp),%eax
    37be:	c9                   	leave  
    37bf:	c3                   	ret    
    37c0:	55                   	push   %ebp
    37c1:	89 e5                	mov    %esp,%ebp
    37c3:	83 ec 18             	sub    $0x18,%esp
    37c6:	83 45 08 08          	addl   $0x8,0x8(%ebp)
    37ca:	83 ec 08             	sub    $0x8,%esp
    37cd:	8d 45 08             	lea    0x8(%ebp),%eax
    37d0:	50                   	push   %eax
    37d1:	ff 75 0c             	pushl  0xc(%ebp)
    37d4:	e8 7f 03 00 00       	call   3b58 <__heap_alloc>
    37d9:	83 c4 10             	add    $0x10,%esp
    37dc:	89 45 fc             	mov    %eax,0xfffffffc(%ebp)
    37df:	83 7d fc 00          	cmpl   $0x0,0xfffffffc(%ebp)
    37e3:	0f 85 a2 00 00 00    	jne    388b <putenv+0x149>
    37e9:	81 7d 08 ff 0f 00 00 	cmpl   $0xfff,0x8(%ebp)
    37f0:	76 14                	jbe    3806 <putenv+0xc4>
    37f2:	8b 45 08             	mov    0x8(%ebp),%eax
    37f5:	05 ff 0f 00 00       	add    $0xfff,%eax
    37fa:	89 45 ec             	mov    %eax,0xffffffec(%ebp)
    37fd:	81 65 ec 00 f0 ff ff 	andl   $0xfffff000,0xffffffec(%ebp)
    3804:	eb 07                	jmp    380d <putenv+0xcb>
    3806:	c7 45 ec 00 10 00 00 	movl   $0x1000,0xffffffec(%ebp)
    380d:	8b 45 ec             	mov    0xffffffec(%ebp),%eax
    3810:	89 45 f4             	mov    %eax,0xfffffff4(%ebp)
    3813:	83 ec 0c             	sub    $0xc,%esp
    3816:	ff 75 f4             	pushl  0xfffffff4(%ebp)
    3819:	e8 92 08 00 00       	call   40b0 <sbrk>
    381e:	83 c4 10             	add    $0x10,%esp
    3821:	89 45 f8             	mov    %eax,0xfffffff8(%ebp)
    3824:	83 7d f8 ff          	cmpl   $0xffffffff,0xfffffff8(%ebp)
    3828:	74 32                	je     385c <putenv+0x11a>
    382a:	8b 55 f8             	mov    0xfffffff8(%ebp),%edx
    382d:	83 c2 07             	add    $0x7,%edx
    3830:	b8 f8 ff ff ff       	mov    $0xfffffff8,%eax
    3835:	21 d0                	and    %edx,%eax
    3837:	89 45 f0             	mov    %eax,0xfffffff0(%ebp)
    383a:	8b 45 f8             	mov    0xfffffff8(%ebp),%eax
    383d:	3b 45 f0             	cmp    0xfffffff0(%ebp),%eax
    3840:	74 1a                	je     385c <putenv+0x11a>
    3842:	83 ec 0c             	sub    $0xc,%esp
    3845:	8b 55 f8             	mov    0xfffffff8(%ebp),%edx
    3848:	8b 45 f0             	mov    0xfffffff0(%ebp),%eax
    384b:	29 d0                	sub    %edx,%eax
    384d:	50                   	push   %eax
    384e:	e8 5d 08 00 00       	call   40b0 <sbrk>
    3853:	83 c4 10             	add    $0x10,%esp
    3856:	8b 45 f0             	mov    0xfffffff0(%ebp),%eax
    3859:	89 45 f8             	mov    %eax,0xfffffff8(%ebp)
    385c:	83 7d f8 ff          	cmpl   $0xffffffff,0xfffffff8(%ebp)
    3860:	74 29                	je     388b <putenv+0x149>
    3862:	83 ec 04             	sub    $0x4,%esp
    3865:	ff 75 f4             	pushl  0xfffffff4(%ebp)
    3868:	ff 75 f8             	pushl  0xfffffff8(%ebp)
    386b:	ff 75 0c             	pushl  0xc(%ebp)
    386e:	e8 f5 04 00 00       	call   3d68 <__heap_free>
    3873:	83 c4 10             	add    $0x10,%esp
    3876:	83 ec 08             	sub    $0x8,%esp
    3879:	8d 45 08             	lea    0x8(%ebp),%eax
    387c:	50                   	push   %eax
    387d:	ff 75 0c             	pushl  0xc(%ebp)
    3880:	e8 d3 02 00 00       	call   3b58 <__heap_alloc>
    3885:	83 c4 10             	add    $0x10,%esp
    3888:	89 45 fc             	mov    %eax,0xfffffffc(%ebp)
    388b:	83 7d fc 00          	cmpl   $0x0,0xfffffffc(%ebp)
    388f:	74 0e                	je     389f <putenv+0x15d>
    3891:	8b 55 fc             	mov    0xfffffffc(%ebp),%edx
    3894:	8b 45 08             	mov    0x8(%ebp),%eax
    3897:	89 02                	mov    %eax,(%edx)
    3899:	8d 45 fc             	lea    0xfffffffc(%ebp),%eax
    389c:	83 00 08             	addl   $0x8,(%eax)
    389f:	8b 45 fc             	mov    0xfffffffc(%ebp),%eax
    38a2:	c9                   	leave  
    38a3:	c3                   	ret    

000038a4 <malloc>:
    38a4:	55                   	push   %ebp
    38a5:	89 e5                	mov    %esp,%ebp
    38a7:	83 ec 08             	sub    $0x8,%esp
    38aa:	83 7d 08 00          	cmpl   $0x0,0x8(%ebp)
    38ae:	75 09                	jne    38b9 <malloc+0x15>
    38b0:	c7 45 f8 00 00 00 00 	movl   $0x0,0xfffffff8(%ebp)
    38b7:	eb 3d                	jmp    38f6 <malloc+0x52>
    38b9:	83 7d 08 f0          	cmpl   $0xfffffff0,0x8(%ebp)
    38bd:	76 02                	jbe    38c1 <malloc+0x1d>
    38bf:	eb 1c                	jmp    38dd <malloc+0x39>
    38c1:	83 ec 08             	sub    $0x8,%esp
    38c4:	68 c0 73 00 00       	push   $0x73c0
    38c9:	ff 75 08             	pushl  0x8(%ebp)
    38cc:	e8 ef fe ff ff       	call   37c0 <putenv+0x7e>
    38d1:	83 c4 10             	add    $0x10,%esp
    38d4:	89 45 fc             	mov    %eax,0xfffffffc(%ebp)
    38d7:	83 7d fc 00          	cmpl   $0x0,0xfffffffc(%ebp)
    38db:	75 13                	jne    38f0 <malloc+0x4c>
    38dd:	c7 05 64 74 00 00 0c 	movl   $0xc,0x7464
    38e4:	00 00 00 
    38e7:	c7 45 f8 00 00 00 00 	movl   $0x0,0xfffffff8(%ebp)
    38ee:	eb 06                	jmp    38f6 <malloc+0x52>
    38f0:	8b 45 fc             	mov    0xfffffffc(%ebp),%eax
    38f3:	89 45 f8             	mov    %eax,0xfffffff8(%ebp)
    38f6:	8b 45 f8             	mov    0xfffffff8(%ebp),%eax
    38f9:	c9                   	leave  
    38fa:	c3                   	ret    
    38fb:	90                   	nop    
    38fc:	55                   	push   %ebp
    38fd:	89 e5                	mov    %esp,%ebp
    38ff:	83 ec 18             	sub    $0x18,%esp
    3902:	83 7d 08 00          	cmpl   $0x0,0x8(%ebp)
    3906:	75 05                	jne    390d <malloc+0x69>
    3908:	e9 ae 00 00 00       	jmp    39bb <malloc+0x117>
    390d:	8b 45 08             	mov    0x8(%ebp),%eax
    3910:	83 e8 08             	sub    $0x8,%eax
    3913:	8b 00                	mov    (%eax),%eax
    3915:	89 45 fc             	mov    %eax,0xfffffffc(%ebp)
    3918:	83 6d 08 08          	subl   $0x8,0x8(%ebp)
    391c:	83 ec 04             	sub    $0x4,%esp
    391f:	ff 75 fc             	pushl  0xfffffffc(%ebp)
    3922:	ff 75 08             	pushl  0x8(%ebp)
    3925:	ff 75 0c             	pushl  0xc(%ebp)
    3928:	e8 3b 04 00 00       	call   3d68 <__heap_free>
    392d:	83 c4 10             	add    $0x10,%esp
    3930:	89 45 f8             	mov    %eax,0xfffffff8(%ebp)
    3933:	8b 45 f8             	mov    0xfffffff8(%ebp),%eax
    3936:	81 38 ff 7f 00 00    	cmpl   $0x7fff,(%eax)
    393c:	77 02                	ja     3940 <malloc+0x9c>
    393e:	eb 7b                	jmp    39bb <malloc+0x117>
    3940:	8b 45 f8             	mov    0xfffffff8(%ebp),%eax
    3943:	8b 10                	mov    (%eax),%edx
    3945:	8b 45 f8             	mov    0xfffffff8(%ebp),%eax
    3948:	29 d0                	sub    %edx,%eax
    394a:	83 c0 0c             	add    $0xc,%eax
    394d:	89 45 f4             	mov    %eax,0xfffffff4(%ebp)
    3950:	8b 45 f8             	mov    0xfffffff8(%ebp),%eax
    3953:	83 c0 0c             	add    $0xc,%eax
    3956:	89 45 f0             	mov    %eax,0xfffffff0(%ebp)
    3959:	83 ec 0c             	sub    $0xc,%esp
    395c:	6a 00                	push   $0x0
    395e:	e8 4d 07 00 00       	call   40b0 <sbrk>
    3963:	83 c4 10             	add    $0x10,%esp
    3966:	39 45 f0             	cmp    %eax,0xfffffff0(%ebp)
    3969:	74 02                	je     396d <malloc+0xc9>
    396b:	eb 4e                	jmp    39bb <malloc+0x117>
    396d:	83 ec 08             	sub    $0x8,%esp
    3970:	ff 75 f8             	pushl  0xfffffff8(%ebp)
    3973:	ff 75 0c             	pushl  0xc(%ebp)
    3976:	e8 5d 00 00 00       	call   39d8 <free+0x1b>
    397b:	83 c4 10             	add    $0x10,%esp
    397e:	8b 45 0c             	mov    0xc(%ebp),%eax
    3981:	83 38 00             	cmpl   $0x0,(%eax)
    3984:	75 1f                	jne    39a5 <malloc+0x101>
    3986:	83 ec 04             	sub    $0x4,%esp
    3989:	68 00 20 00 00       	push   $0x2000
    398e:	ff 75 f4             	pushl  0xfffffff4(%ebp)
    3991:	ff 75 0c             	pushl  0xc(%ebp)
    3994:	e8 cf 03 00 00       	call   3d68 <__heap_free>
    3999:	83 c4 10             	add    $0x10,%esp
    399c:	8d 45 f4             	lea    0xfffffff4(%ebp),%eax
    399f:	81 00 00 20 00 00    	addl   $0x2000,(%eax)
    39a5:	83 ec 0c             	sub    $0xc,%esp
    39a8:	8b 45 f0             	mov    0xfffffff0(%ebp),%eax
    39ab:	8b 55 f4             	mov    0xfffffff4(%ebp),%edx
    39ae:	29 c2                	sub    %eax,%edx
    39b0:	89 d0                	mov    %edx,%eax
    39b2:	50                   	push   %eax
    39b3:	e8 f8 06 00 00       	call   40b0 <sbrk>
    39b8:	83 c4 10             	add    $0x10,%esp
    39bb:	c9                   	leave  
    39bc:	c3                   	ret    

000039bd <free>:
    39bd:	55                   	push   %ebp
    39be:	89 e5                	mov    %esp,%ebp
    39c0:	83 ec 08             	sub    $0x8,%esp
    39c3:	83 ec 08             	sub    $0x8,%esp
    39c6:	68 c0 73 00 00       	push   $0x73c0
    39cb:	ff 75 08             	pushl  0x8(%ebp)
    39ce:	e8 29 ff ff ff       	call   38fc <malloc+0x58>
    39d3:	83 c4 10             	add    $0x10,%esp
    39d6:	c9                   	leave  
    39d7:	c3                   	ret    
    39d8:	55                   	push   %ebp
    39d9:	89 e5                	mov    %esp,%ebp
    39db:	8b 45 0c             	mov    0xc(%ebp),%eax
    39de:	83 78 04 00          	cmpl   $0x0,0x4(%eax)
    39e2:	74 0f                	je     39f3 <free+0x36>
    39e4:	8b 45 0c             	mov    0xc(%ebp),%eax
    39e7:	8b 50 04             	mov    0x4(%eax),%edx
    39ea:	8b 45 0c             	mov    0xc(%ebp),%eax
    39ed:	8b 40 08             	mov    0x8(%eax),%eax
    39f0:	89 42 08             	mov    %eax,0x8(%edx)
    39f3:	8b 45 0c             	mov    0xc(%ebp),%eax
    39f6:	83 78 08 00          	cmpl   $0x0,0x8(%eax)
    39fa:	74 11                	je     3a0d <free+0x50>
    39fc:	8b 45 0c             	mov    0xc(%ebp),%eax
    39ff:	8b 50 08             	mov    0x8(%eax),%edx
    3a02:	8b 45 0c             	mov    0xc(%ebp),%eax
    3a05:	8b 40 04             	mov    0x4(%eax),%eax
    3a08:	89 42 04             	mov    %eax,0x4(%edx)
    3a0b:	eb 0b                	jmp    3a18 <free+0x5b>
    3a0d:	8b 45 08             	mov    0x8(%ebp),%eax
    3a10:	8b 55 0c             	mov    0xc(%ebp),%edx
    3a13:	8b 52 04             	mov    0x4(%edx),%edx
    3a16:	89 10                	mov    %edx,(%eax)
    3a18:	c9                   	leave  
    3a19:	c3                   	ret    
    3a1a:	90                   	nop    
    3a1b:	90                   	nop    

00003a1c <realloc>:
    3a1c:	55                   	push   %ebp
    3a1d:	89 e5                	mov    %esp,%ebp
    3a1f:	83 ec 18             	sub    $0x18,%esp
    3a22:	83 7d 08 00          	cmpl   $0x0,0x8(%ebp)
    3a26:	75 16                	jne    3a3e <realloc+0x22>
    3a28:	83 ec 0c             	sub    $0xc,%esp
    3a2b:	ff 75 0c             	pushl  0xc(%ebp)
    3a2e:	e8 71 fe ff ff       	call   38a4 <malloc>
    3a33:	83 c4 10             	add    $0x10,%esp
    3a36:	89 45 ec             	mov    %eax,0xffffffec(%ebp)
    3a39:	e9 13 01 00 00       	jmp    3b51 <realloc+0x135>
    3a3e:	83 7d 0c 00          	cmpl   $0x0,0xc(%ebp)
    3a42:	75 24                	jne    3a68 <realloc+0x4c>
    3a44:	83 ec 0c             	sub    $0xc,%esp
    3a47:	ff 75 08             	pushl  0x8(%ebp)
    3a4a:	e8 6e ff ff ff       	call   39bd <free>
    3a4f:	83 c4 10             	add    $0x10,%esp
    3a52:	83 ec 0c             	sub    $0xc,%esp
    3a55:	ff 75 0c             	pushl  0xc(%ebp)
    3a58:	e8 47 fe ff ff       	call   38a4 <malloc>
    3a5d:	83 c4 10             	add    $0x10,%esp
    3a60:	89 45 ec             	mov    %eax,0xffffffec(%ebp)
    3a63:	e9 e9 00 00 00       	jmp    3b51 <realloc+0x135>
    3a68:	8b 45 08             	mov    0x8(%ebp),%eax
    3a6b:	83 e8 08             	sub    $0x8,%eax
    3a6e:	89 45 f8             	mov    %eax,0xfffffff8(%ebp)
    3a71:	8b 45 08             	mov    0x8(%ebp),%eax
    3a74:	83 e8 08             	sub    $0x8,%eax
    3a77:	8b 00                	mov    (%eax),%eax
    3a79:	89 45 fc             	mov    %eax,0xfffffffc(%ebp)
    3a7c:	8b 45 0c             	mov    0xc(%ebp),%eax
    3a7f:	83 c0 0f             	add    $0xf,%eax
    3a82:	83 e0 f8             	and    $0xfffffff8,%eax
    3a85:	89 45 0c             	mov    %eax,0xc(%ebp)
    3a88:	8b 45 0c             	mov    0xc(%ebp),%eax
    3a8b:	3b 45 fc             	cmp    0xfffffffc(%ebp),%eax
    3a8e:	0f 86 84 00 00 00    	jbe    3b18 <realloc+0xfc>
    3a94:	8b 55 fc             	mov    0xfffffffc(%ebp),%edx
    3a97:	8b 45 0c             	mov    0xc(%ebp),%eax
    3a9a:	29 d0                	sub    %edx,%eax
    3a9c:	89 45 f4             	mov    %eax,0xfffffff4(%ebp)
    3a9f:	83 ec 04             	sub    $0x4,%esp
    3aa2:	ff 75 f4             	pushl  0xfffffff4(%ebp)
    3aa5:	8b 45 fc             	mov    0xfffffffc(%ebp),%eax
    3aa8:	03 45 f8             	add    0xfffffff8(%ebp),%eax
    3aab:	50                   	push   %eax
    3aac:	68 c0 73 00 00       	push   $0x73c0
    3ab1:	e8 ae 01 00 00       	call   3c64 <__heap_alloc_at>
    3ab6:	83 c4 10             	add    $0x10,%esp
    3ab9:	89 45 f4             	mov    %eax,0xfffffff4(%ebp)
    3abc:	83 7d f4 00          	cmpl   $0x0,0xfffffff4(%ebp)
    3ac0:	74 0d                	je     3acf <realloc+0xb3>
    3ac2:	8b 45 f8             	mov    0xfffffff8(%ebp),%eax
    3ac5:	8b 55 f4             	mov    0xfffffff4(%ebp),%edx
    3ac8:	03 55 fc             	add    0xfffffffc(%ebp),%edx
    3acb:	89 10                	mov    %edx,(%eax)
    3acd:	eb 7c                	jmp    3b4b <realloc+0x12f>
    3acf:	83 ec 0c             	sub    $0xc,%esp
    3ad2:	8b 45 0c             	mov    0xc(%ebp),%eax
    3ad5:	83 e8 08             	sub    $0x8,%eax
    3ad8:	50                   	push   %eax
    3ad9:	e8 c6 fd ff ff       	call   38a4 <malloc>
    3ade:	83 c4 10             	add    $0x10,%esp
    3ae1:	89 45 f0             	mov    %eax,0xfffffff0(%ebp)
    3ae4:	83 7d f0 00          	cmpl   $0x0,0xfffffff0(%ebp)
    3ae8:	74 26                	je     3b10 <realloc+0xf4>
    3aea:	83 ec 04             	sub    $0x4,%esp
    3aed:	8b 45 fc             	mov    0xfffffffc(%ebp),%eax
    3af0:	83 e8 08             	sub    $0x8,%eax
    3af3:	50                   	push   %eax
    3af4:	ff 75 08             	pushl  0x8(%ebp)
    3af7:	ff 75 f0             	pushl  0xfffffff0(%ebp)
    3afa:	e8 f1 1b 00 00       	call   56f0 <memcpy>
    3aff:	83 c4 10             	add    $0x10,%esp
    3b02:	83 ec 0c             	sub    $0xc,%esp
    3b05:	ff 75 08             	pushl  0x8(%ebp)
    3b08:	e8 b0 fe ff ff       	call   39bd <free>
    3b0d:	83 c4 10             	add    $0x10,%esp
    3b10:	8b 45 f0             	mov    0xfffffff0(%ebp),%eax
    3b13:	89 45 08             	mov    %eax,0x8(%ebp)
    3b16:	eb 33                	jmp    3b4b <realloc+0x12f>
    3b18:	8b 45 0c             	mov    0xc(%ebp),%eax
    3b1b:	83 c0 20             	add    $0x20,%eax
    3b1e:	3b 45 fc             	cmp    0xfffffffc(%ebp),%eax
    3b21:	77 28                	ja     3b4b <realloc+0x12f>
    3b23:	83 ec 04             	sub    $0x4,%esp
    3b26:	8b 55 0c             	mov    0xc(%ebp),%edx
    3b29:	8b 45 fc             	mov    0xfffffffc(%ebp),%eax
    3b2c:	29 d0                	sub    %edx,%eax
    3b2e:	50                   	push   %eax
    3b2f:	8b 45 0c             	mov    0xc(%ebp),%eax
    3b32:	03 45 f8             	add    0xfffffff8(%ebp),%eax
    3b35:	50                   	push   %eax
    3b36:	68 c0 73 00 00       	push   $0x73c0
    3b3b:	e8 28 02 00 00       	call   3d68 <__heap_free>
    3b40:	83 c4 10             	add    $0x10,%esp
    3b43:	8b 55 f8             	mov    0xfffffff8(%ebp),%edx
    3b46:	8b 45 0c             	mov    0xc(%ebp),%eax
    3b49:	89 02                	mov    %eax,(%edx)
    3b4b:	8b 45 08             	mov    0x8(%ebp),%eax
    3b4e:	89 45 ec             	mov    %eax,0xffffffec(%ebp)
    3b51:	8b 45 ec             	mov    0xffffffec(%ebp),%eax
    3b54:	c9                   	leave  
    3b55:	c3                   	ret    
    3b56:	90                   	nop    
    3b57:	90                   	nop    

00003b58 <__heap_alloc>:
    3b58:	55                   	push   %ebp
    3b59:	89 e5                	mov    %esp,%ebp
    3b5b:	83 ec 18             	sub    $0x18,%esp
    3b5e:	8b 45 0c             	mov    0xc(%ebp),%eax
    3b61:	8b 00                	mov    (%eax),%eax
    3b63:	89 45 f8             	mov    %eax,0xfffffff8(%ebp)
    3b66:	c7 45 f4 00 00 00 00 	movl   $0x0,0xfffffff4(%ebp)
    3b6d:	8b 45 f8             	mov    0xfffffff8(%ebp),%eax
    3b70:	83 c0 07             	add    $0x7,%eax
    3b73:	83 e0 f8             	and    $0xfffffff8,%eax
    3b76:	89 45 f8             	mov    %eax,0xfffffff8(%ebp)
    3b79:	83 7d f8 0b          	cmpl   $0xb,0xfffffff8(%ebp)
    3b7d:	77 07                	ja     3b86 <__heap_alloc+0x2e>
    3b7f:	c7 45 f8 10 00 00 00 	movl   $0x10,0xfffffff8(%ebp)
    3b86:	8b 45 08             	mov    0x8(%ebp),%eax
    3b89:	8b 00                	mov    (%eax),%eax
    3b8b:	89 45 fc             	mov    %eax,0xfffffffc(%ebp)
    3b8e:	83 7d fc 00          	cmpl   $0x0,0xfffffffc(%ebp)
    3b92:	75 02                	jne    3b96 <__heap_alloc+0x3e>
    3b94:	eb 42                	jmp    3bd8 <__heap_alloc+0x80>
    3b96:	8b 45 fc             	mov    0xfffffffc(%ebp),%eax
    3b99:	8b 00                	mov    (%eax),%eax
    3b9b:	3b 45 f8             	cmp    0xfffffff8(%ebp),%eax
    3b9e:	72 2d                	jb     3bcd <__heap_alloc+0x75>
    3ba0:	8b 45 fc             	mov    0xfffffffc(%ebp),%eax
    3ba3:	8b 10                	mov    (%eax),%edx
    3ba5:	8b 45 fc             	mov    0xfffffffc(%ebp),%eax
    3ba8:	29 d0                	sub    %edx,%eax
    3baa:	83 c0 0c             	add    $0xc,%eax
    3bad:	89 45 f4             	mov    %eax,0xfffffff4(%ebp)
    3bb0:	83 ec 04             	sub    $0x4,%esp
    3bb3:	ff 75 f8             	pushl  0xfffffff8(%ebp)
    3bb6:	ff 75 fc             	pushl  0xfffffffc(%ebp)
    3bb9:	ff 75 08             	pushl  0x8(%ebp)
    3bbc:	e8 1c 00 00 00       	call   3bdd <__heap_alloc+0x85>
    3bc1:	83 c4 10             	add    $0x10,%esp
    3bc4:	89 c2                	mov    %eax,%edx
    3bc6:	8b 45 0c             	mov    0xc(%ebp),%eax
    3bc9:	89 10                	mov    %edx,(%eax)
    3bcb:	eb 0b                	jmp    3bd8 <__heap_alloc+0x80>
    3bcd:	8b 45 fc             	mov    0xfffffffc(%ebp),%eax
    3bd0:	8b 40 04             	mov    0x4(%eax),%eax
    3bd3:	89 45 fc             	mov    %eax,0xfffffffc(%ebp)
    3bd6:	eb b6                	jmp    3b8e <__heap_alloc+0x36>
    3bd8:	8b 45 f4             	mov    0xfffffff4(%ebp),%eax
    3bdb:	c9                   	leave  
    3bdc:	c3                   	ret    
    3bdd:	55                   	push   %ebp
    3bde:	89 e5                	mov    %esp,%ebp
    3be0:	83 ec 08             	sub    $0x8,%esp
    3be3:	8b 45 0c             	mov    0xc(%ebp),%eax
    3be6:	8b 00                	mov    (%eax),%eax
    3be8:	89 45 fc             	mov    %eax,0xfffffffc(%ebp)
    3beb:	8b 45 10             	mov    0x10(%ebp),%eax
    3bee:	83 c0 30             	add    $0x30,%eax
    3bf1:	39 45 fc             	cmp    %eax,0xfffffffc(%ebp)
    3bf4:	73 19                	jae    3c0f <__heap_alloc+0xb7>
    3bf6:	83 ec 08             	sub    $0x8,%esp
    3bf9:	ff 75 0c             	pushl  0xc(%ebp)
    3bfc:	ff 75 08             	pushl  0x8(%ebp)
    3bff:	e8 1d 00 00 00       	call   3c21 <__heap_alloc+0xc9>
    3c04:	83 c4 10             	add    $0x10,%esp
    3c07:	8b 45 fc             	mov    0xfffffffc(%ebp),%eax
    3c0a:	89 45 10             	mov    %eax,0x10(%ebp)
    3c0d:	eb 0d                	jmp    3c1c <__heap_alloc+0xc4>
    3c0f:	8b 4d 0c             	mov    0xc(%ebp),%ecx
    3c12:	8b 55 10             	mov    0x10(%ebp),%edx
    3c15:	8b 45 fc             	mov    0xfffffffc(%ebp),%eax
    3c18:	29 d0                	sub    %edx,%eax
    3c1a:	89 01                	mov    %eax,(%ecx)
    3c1c:	8b 45 10             	mov    0x10(%ebp),%eax
    3c1f:	c9                   	leave  
    3c20:	c3                   	ret    
    3c21:	55                   	push   %ebp
    3c22:	89 e5                	mov    %esp,%ebp
    3c24:	8b 45 0c             	mov    0xc(%ebp),%eax
    3c27:	83 78 04 00          	cmpl   $0x0,0x4(%eax)
    3c2b:	74 0f                	je     3c3c <__heap_alloc+0xe4>
    3c2d:	8b 45 0c             	mov    0xc(%ebp),%eax
    3c30:	8b 50 04             	mov    0x4(%eax),%edx
    3c33:	8b 45 0c             	mov    0xc(%ebp),%eax
    3c36:	8b 40 08             	mov    0x8(%eax),%eax
    3c39:	89 42 08             	mov    %eax,0x8(%edx)
    3c3c:	8b 45 0c             	mov    0xc(%ebp),%eax
    3c3f:	83 78 08 00          	cmpl   $0x0,0x8(%eax)
    3c43:	74 11                	je     3c56 <__heap_alloc+0xfe>
    3c45:	8b 45 0c             	mov    0xc(%ebp),%eax
    3c48:	8b 50 08             	mov    0x8(%eax),%edx
    3c4b:	8b 45 0c             	mov    0xc(%ebp),%eax
    3c4e:	8b 40 04             	mov    0x4(%eax),%eax
    3c51:	89 42 04             	mov    %eax,0x4(%edx)
    3c54:	eb 0b                	jmp    3c61 <__heap_alloc+0x109>
    3c56:	8b 45 08             	mov    0x8(%ebp),%eax
    3c59:	8b 55 0c             	mov    0xc(%ebp),%edx
    3c5c:	8b 52 04             	mov    0x4(%edx),%edx
    3c5f:	89 10                	mov    %edx,(%eax)
    3c61:	c9                   	leave  
    3c62:	c3                   	ret    
    3c63:	90                   	nop    

00003c64 <__heap_alloc_at>:
    3c64:	55                   	push   %ebp
    3c65:	89 e5                	mov    %esp,%ebp
    3c67:	83 ec 18             	sub    $0x18,%esp
    3c6a:	c7 45 f8 00 00 00 00 	movl   $0x0,0xfffffff8(%ebp)
    3c71:	8b 45 10             	mov    0x10(%ebp),%eax
    3c74:	83 c0 07             	add    $0x7,%eax
    3c77:	83 e0 f8             	and    $0xfffffff8,%eax
    3c7a:	89 45 10             	mov    %eax,0x10(%ebp)
    3c7d:	8b 45 08             	mov    0x8(%ebp),%eax
    3c80:	8b 00                	mov    (%eax),%eax
    3c82:	89 45 fc             	mov    %eax,0xfffffffc(%ebp)
    3c85:	83 7d fc 00          	cmpl   $0x0,0xfffffffc(%ebp)
    3c89:	75 02                	jne    3c8d <__heap_alloc_at+0x29>
    3c8b:	eb 4e                	jmp    3cdb <__heap_alloc_at+0x77>
    3c8d:	8b 45 fc             	mov    0xfffffffc(%ebp),%eax
    3c90:	8b 10                	mov    (%eax),%edx
    3c92:	8b 45 fc             	mov    0xfffffffc(%ebp),%eax
    3c95:	29 d0                	sub    %edx,%eax
    3c97:	83 c0 0c             	add    $0xc,%eax
    3c9a:	89 45 f4             	mov    %eax,0xfffffff4(%ebp)
    3c9d:	8b 45 f4             	mov    0xfffffff4(%ebp),%eax
    3ca0:	3b 45 0c             	cmp    0xc(%ebp),%eax
    3ca3:	77 2b                	ja     3cd0 <__heap_alloc_at+0x6c>
    3ca5:	8b 45 f4             	mov    0xfffffff4(%ebp),%eax
    3ca8:	3b 45 0c             	cmp    0xc(%ebp),%eax
    3cab:	75 2e                	jne    3cdb <__heap_alloc_at+0x77>
    3cad:	8b 45 fc             	mov    0xfffffffc(%ebp),%eax
    3cb0:	8b 00                	mov    (%eax),%eax
    3cb2:	3b 45 10             	cmp    0x10(%ebp),%eax
    3cb5:	72 24                	jb     3cdb <__heap_alloc_at+0x77>
    3cb7:	83 ec 04             	sub    $0x4,%esp
    3cba:	ff 75 10             	pushl  0x10(%ebp)
    3cbd:	ff 75 fc             	pushl  0xfffffffc(%ebp)
    3cc0:	ff 75 08             	pushl  0x8(%ebp)
    3cc3:	e8 18 00 00 00       	call   3ce0 <__heap_alloc_at+0x7c>
    3cc8:	83 c4 10             	add    $0x10,%esp
    3ccb:	89 45 f8             	mov    %eax,0xfffffff8(%ebp)
    3cce:	eb 0b                	jmp    3cdb <__heap_alloc_at+0x77>
    3cd0:	8b 45 fc             	mov    0xfffffffc(%ebp),%eax
    3cd3:	8b 40 04             	mov    0x4(%eax),%eax
    3cd6:	89 45 fc             	mov    %eax,0xfffffffc(%ebp)
    3cd9:	eb aa                	jmp    3c85 <__heap_alloc_at+0x21>
    3cdb:	8b 45 f8             	mov    0xfffffff8(%ebp),%eax
    3cde:	c9                   	leave  
    3cdf:	c3                   	ret    
    3ce0:	55                   	push   %ebp
    3ce1:	89 e5                	mov    %esp,%ebp
    3ce3:	83 ec 08             	sub    $0x8,%esp
    3ce6:	8b 45 0c             	mov    0xc(%ebp),%eax
    3ce9:	8b 00                	mov    (%eax),%eax
    3ceb:	89 45 fc             	mov    %eax,0xfffffffc(%ebp)
    3cee:	8b 45 10             	mov    0x10(%ebp),%eax
    3cf1:	83 c0 30             	add    $0x30,%eax
    3cf4:	39 45 fc             	cmp    %eax,0xfffffffc(%ebp)
    3cf7:	73 19                	jae    3d12 <__heap_alloc_at+0xae>
    3cf9:	83 ec 08             	sub    $0x8,%esp
    3cfc:	ff 75 0c             	pushl  0xc(%ebp)
    3cff:	ff 75 08             	pushl  0x8(%ebp)
    3d02:	e8 1d 00 00 00       	call   3d24 <__heap_alloc_at+0xc0>
    3d07:	83 c4 10             	add    $0x10,%esp
    3d0a:	8b 45 fc             	mov    0xfffffffc(%ebp),%eax
    3d0d:	89 45 10             	mov    %eax,0x10(%ebp)
    3d10:	eb 0d                	jmp    3d1f <__heap_alloc_at+0xbb>
    3d12:	8b 4d 0c             	mov    0xc(%ebp),%ecx
    3d15:	8b 55 10             	mov    0x10(%ebp),%edx
    3d18:	8b 45 fc             	mov    0xfffffffc(%ebp),%eax
    3d1b:	29 d0                	sub    %edx,%eax
    3d1d:	89 01                	mov    %eax,(%ecx)
    3d1f:	8b 45 10             	mov    0x10(%ebp),%eax
    3d22:	c9                   	leave  
    3d23:	c3                   	ret    
    3d24:	55                   	push   %ebp
    3d25:	89 e5                	mov    %esp,%ebp
    3d27:	8b 45 0c             	mov    0xc(%ebp),%eax
    3d2a:	83 78 04 00          	cmpl   $0x0,0x4(%eax)
    3d2e:	74 0f                	je     3d3f <__heap_alloc_at+0xdb>
    3d30:	8b 45 0c             	mov    0xc(%ebp),%eax
    3d33:	8b 50 04             	mov    0x4(%eax),%edx
    3d36:	8b 45 0c             	mov    0xc(%ebp),%eax
    3d39:	8b 40 08             	mov    0x8(%eax),%eax
    3d3c:	89 42 08             	mov    %eax,0x8(%edx)
    3d3f:	8b 45 0c             	mov    0xc(%ebp),%eax
    3d42:	83 78 08 00          	cmpl   $0x0,0x8(%eax)
    3d46:	74 11                	je     3d59 <__heap_alloc_at+0xf5>
    3d48:	8b 45 0c             	mov    0xc(%ebp),%eax
    3d4b:	8b 50 08             	mov    0x8(%eax),%edx
    3d4e:	8b 45 0c             	mov    0xc(%ebp),%eax
    3d51:	8b 40 04             	mov    0x4(%eax),%eax
    3d54:	89 42 04             	mov    %eax,0x4(%edx)
    3d57:	eb 0b                	jmp    3d64 <__heap_alloc_at+0x100>
    3d59:	8b 45 08             	mov    0x8(%ebp),%eax
    3d5c:	8b 55 0c             	mov    0xc(%ebp),%edx
    3d5f:	8b 52 04             	mov    0x4(%edx),%edx
    3d62:	89 10                	mov    %edx,(%eax)
    3d64:	c9                   	leave  
    3d65:	c3                   	ret    
    3d66:	90                   	nop    
    3d67:	90                   	nop    

00003d68 <__heap_free>:
    3d68:	55                   	push   %ebp
    3d69:	89 e5                	mov    %esp,%ebp
    3d6b:	83 ec 18             	sub    $0x18,%esp
    3d6e:	8b 45 10             	mov    0x10(%ebp),%eax
    3d71:	03 45 0c             	add    0xc(%ebp),%eax
    3d74:	89 45 f4             	mov    %eax,0xfffffff4(%ebp)
    3d77:	c7 45 f8 00 00 00 00 	movl   $0x0,0xfffffff8(%ebp)
    3d7e:	8b 45 08             	mov    0x8(%ebp),%eax
    3d81:	8b 00                	mov    (%eax),%eax
    3d83:	89 45 fc             	mov    %eax,0xfffffffc(%ebp)
    3d86:	83 7d fc 00          	cmpl   $0x0,0xfffffffc(%ebp)
    3d8a:	75 02                	jne    3d8e <__heap_free+0x26>
    3d8c:	eb 1e                	jmp    3dac <__heap_free+0x44>
    3d8e:	8b 45 fc             	mov    0xfffffffc(%ebp),%eax
    3d91:	83 c0 0c             	add    $0xc,%eax
    3d94:	3b 45 0c             	cmp    0xc(%ebp),%eax
    3d97:	72 02                	jb     3d9b <__heap_free+0x33>
    3d99:	eb 11                	jmp    3dac <__heap_free+0x44>
    3d9b:	8b 45 fc             	mov    0xfffffffc(%ebp),%eax
    3d9e:	89 45 f8             	mov    %eax,0xfffffff8(%ebp)
    3da1:	8b 45 fc             	mov    0xfffffffc(%ebp),%eax
    3da4:	8b 40 04             	mov    0x4(%eax),%eax
    3da7:	89 45 fc             	mov    %eax,0xfffffffc(%ebp)
    3daa:	eb da                	jmp    3d86 <__heap_free+0x1e>
    3dac:	83 7d fc 00          	cmpl   $0x0,0xfffffffc(%ebp)
    3db0:	0f 84 dc 00 00 00    	je     3e92 <__heap_free+0x12a>
    3db6:	8b 45 fc             	mov    0xfffffffc(%ebp),%eax
    3db9:	8b 10                	mov    (%eax),%edx
    3dbb:	8b 45 fc             	mov    0xfffffffc(%ebp),%eax
    3dbe:	29 d0                	sub    %edx,%eax
    3dc0:	83 c0 0c             	add    $0xc,%eax
    3dc3:	3b 45 f4             	cmp    0xfffffff4(%ebp),%eax
    3dc6:	0f 87 c6 00 00 00    	ja     3e92 <__heap_free+0x12a>
    3dcc:	8b 55 fc             	mov    0xfffffffc(%ebp),%edx
    3dcf:	8b 45 10             	mov    0x10(%ebp),%eax
    3dd2:	03 02                	add    (%edx),%eax
    3dd4:	89 45 f0             	mov    %eax,0xfffffff0(%ebp)
    3dd7:	8b 45 fc             	mov    0xfffffffc(%ebp),%eax
    3dda:	8b 10                	mov    (%eax),%edx
    3ddc:	8b 45 fc             	mov    0xfffffffc(%ebp),%eax
    3ddf:	29 d0                	sub    %edx,%eax
    3de1:	83 c0 0c             	add    $0xc,%eax
    3de4:	3b 45 f4             	cmp    0xfffffff4(%ebp),%eax
    3de7:	75 3c                	jne    3e25 <__heap_free+0xbd>
    3de9:	83 7d f8 00          	cmpl   $0x0,0xfffffff8(%ebp)
    3ded:	0f 84 95 00 00 00    	je     3e88 <__heap_free+0x120>
    3df3:	8b 45 f8             	mov    0xfffffff8(%ebp),%eax
    3df6:	83 c0 0c             	add    $0xc,%eax
    3df9:	39 45 0c             	cmp    %eax,0xc(%ebp)
    3dfc:	0f 85 86 00 00 00    	jne    3e88 <__heap_free+0x120>
    3e02:	8b 45 f8             	mov    0xfffffff8(%ebp),%eax
    3e05:	8b 10                	mov    (%eax),%edx
    3e07:	8d 45 f0             	lea    0xfffffff0(%ebp),%eax
    3e0a:	01 10                	add    %edx,(%eax)
    3e0c:	83 ec 04             	sub    $0x4,%esp
    3e0f:	8b 45 f8             	mov    0xfffffff8(%ebp),%eax
    3e12:	ff 70 08             	pushl  0x8(%eax)
    3e15:	ff 75 fc             	pushl  0xfffffffc(%ebp)
    3e18:	ff 75 08             	pushl  0x8(%ebp)
    3e1b:	e8 d3 00 00 00       	call   3ef3 <__heap_free+0x18b>
    3e20:	83 c4 10             	add    $0x10,%esp
    3e23:	eb 63                	jmp    3e88 <__heap_free+0x120>
    3e25:	8b 45 fc             	mov    0xfffffffc(%ebp),%eax
    3e28:	8b 40 04             	mov    0x4(%eax),%eax
    3e2b:	89 45 ec             	mov    %eax,0xffffffec(%ebp)
    3e2e:	83 7d ec 00          	cmpl   $0x0,0xffffffec(%ebp)
    3e32:	74 38                	je     3e6c <__heap_free+0x104>
    3e34:	8b 45 ec             	mov    0xffffffec(%ebp),%eax
    3e37:	8b 10                	mov    (%eax),%edx
    3e39:	8b 45 ec             	mov    0xffffffec(%ebp),%eax
    3e3c:	29 d0                	sub    %edx,%eax
    3e3e:	83 c0 0c             	add    $0xc,%eax
    3e41:	39 45 f4             	cmp    %eax,0xfffffff4(%ebp)
    3e44:	75 26                	jne    3e6c <__heap_free+0x104>
    3e46:	8b 45 ec             	mov    0xffffffec(%ebp),%eax
    3e49:	8b 10                	mov    (%eax),%edx
    3e4b:	8d 45 f0             	lea    0xfffffff0(%ebp),%eax
    3e4e:	01 10                	add    %edx,(%eax)
    3e50:	83 ec 04             	sub    $0x4,%esp
    3e53:	ff 75 f8             	pushl  0xfffffff8(%ebp)
    3e56:	ff 75 ec             	pushl  0xffffffec(%ebp)
    3e59:	ff 75 08             	pushl  0x8(%ebp)
    3e5c:	e8 92 00 00 00       	call   3ef3 <__heap_free+0x18b>
    3e61:	83 c4 10             	add    $0x10,%esp
    3e64:	8b 45 ec             	mov    0xffffffec(%ebp),%eax
    3e67:	89 45 fc             	mov    %eax,0xfffffffc(%ebp)
    3e6a:	eb 1c                	jmp    3e88 <__heap_free+0x120>
    3e6c:	8b 55 10             	mov    0x10(%ebp),%edx
    3e6f:	8d 45 fc             	lea    0xfffffffc(%ebp),%eax
    3e72:	01 10                	add    %edx,(%eax)
    3e74:	ff 75 ec             	pushl  0xffffffec(%ebp)
    3e77:	ff 75 f8             	pushl  0xfffffff8(%ebp)
    3e7a:	ff 75 fc             	pushl  0xfffffffc(%ebp)
    3e7d:	ff 75 08             	pushl  0x8(%ebp)
    3e80:	e8 2f 00 00 00       	call   3eb4 <__heap_free+0x14c>
    3e85:	83 c4 10             	add    $0x10,%esp
    3e88:	8b 55 fc             	mov    0xfffffffc(%ebp),%edx
    3e8b:	8b 45 f0             	mov    0xfffffff0(%ebp),%eax
    3e8e:	89 02                	mov    %eax,(%edx)
    3e90:	eb 1d                	jmp    3eaf <__heap_free+0x147>
    3e92:	83 ec 0c             	sub    $0xc,%esp
    3e95:	ff 75 fc             	pushl  0xfffffffc(%ebp)
    3e98:	ff 75 f8             	pushl  0xfffffff8(%ebp)
    3e9b:	ff 75 10             	pushl  0x10(%ebp)
    3e9e:	ff 75 0c             	pushl  0xc(%ebp)
    3ea1:	ff 75 08             	pushl  0x8(%ebp)
    3ea4:	e8 71 00 00 00       	call   3f1a <__heap_free+0x1b2>
    3ea9:	83 c4 20             	add    $0x20,%esp
    3eac:	89 45 fc             	mov    %eax,0xfffffffc(%ebp)
    3eaf:	8b 45 fc             	mov    0xfffffffc(%ebp),%eax
    3eb2:	c9                   	leave  
    3eb3:	c3                   	ret    
    3eb4:	55                   	push   %ebp
    3eb5:	89 e5                	mov    %esp,%ebp
    3eb7:	8b 55 0c             	mov    0xc(%ebp),%edx
    3eba:	8b 45 14             	mov    0x14(%ebp),%eax
    3ebd:	89 42 04             	mov    %eax,0x4(%edx)
    3ec0:	8b 55 0c             	mov    0xc(%ebp),%edx
    3ec3:	8b 45 10             	mov    0x10(%ebp),%eax
    3ec6:	89 42 08             	mov    %eax,0x8(%edx)
    3ec9:	83 7d 10 00          	cmpl   $0x0,0x10(%ebp)
    3ecd:	74 0b                	je     3eda <__heap_free+0x172>
    3ecf:	8b 55 10             	mov    0x10(%ebp),%edx
    3ed2:	8b 45 0c             	mov    0xc(%ebp),%eax
    3ed5:	89 42 04             	mov    %eax,0x4(%edx)
    3ed8:	eb 08                	jmp    3ee2 <__heap_free+0x17a>
    3eda:	8b 55 08             	mov    0x8(%ebp),%edx
    3edd:	8b 45 0c             	mov    0xc(%ebp),%eax
    3ee0:	89 02                	mov    %eax,(%edx)
    3ee2:	83 7d 14 00          	cmpl   $0x0,0x14(%ebp)
    3ee6:	74 09                	je     3ef1 <__heap_free+0x189>
    3ee8:	8b 55 14             	mov    0x14(%ebp),%edx
    3eeb:	8b 45 0c             	mov    0xc(%ebp),%eax
    3eee:	89 42 08             	mov    %eax,0x8(%edx)
    3ef1:	c9                   	leave  
    3ef2:	c3                   	ret    
    3ef3:	55                   	push   %ebp
    3ef4:	89 e5                	mov    %esp,%ebp
    3ef6:	83 7d 10 00          	cmpl   $0x0,0x10(%ebp)
    3efa:	74 0b                	je     3f07 <__heap_free+0x19f>
    3efc:	8b 55 10             	mov    0x10(%ebp),%edx
    3eff:	8b 45 0c             	mov    0xc(%ebp),%eax
    3f02:	89 42 04             	mov    %eax,0x4(%edx)
    3f05:	eb 08                	jmp    3f0f <__heap_free+0x1a7>
    3f07:	8b 55 08             	mov    0x8(%ebp),%edx
    3f0a:	8b 45 0c             	mov    0xc(%ebp),%eax
    3f0d:	89 02                	mov    %eax,(%edx)
    3f0f:	8b 55 0c             	mov    0xc(%ebp),%edx
    3f12:	8b 45 10             	mov    0x10(%ebp),%eax
    3f15:	89 42 08             	mov    %eax,0x8(%edx)
    3f18:	c9                   	leave  
    3f19:	c3                   	ret    
    3f1a:	55                   	push   %ebp
    3f1b:	89 e5                	mov    %esp,%ebp
    3f1d:	83 ec 08             	sub    $0x8,%esp
    3f20:	8b 45 10             	mov    0x10(%ebp),%eax
    3f23:	03 45 0c             	add    0xc(%ebp),%eax
    3f26:	83 e8 0c             	sub    $0xc,%eax
    3f29:	89 45 fc             	mov    %eax,0xfffffffc(%ebp)
    3f2c:	8b 55 fc             	mov    0xfffffffc(%ebp),%edx
    3f2f:	8b 45 10             	mov    0x10(%ebp),%eax
    3f32:	89 02                	mov    %eax,(%edx)
    3f34:	ff 75 18             	pushl  0x18(%ebp)
    3f37:	ff 75 14             	pushl  0x14(%ebp)
    3f3a:	ff 75 fc             	pushl  0xfffffffc(%ebp)
    3f3d:	ff 75 08             	pushl  0x8(%ebp)
    3f40:	e8 6f ff ff ff       	call   3eb4 <__heap_free+0x14c>
    3f45:	83 c4 10             	add    $0x10,%esp
    3f48:	8b 45 fc             	mov    0xfffffffc(%ebp),%eax
    3f4b:	c9                   	leave  
    3f4c:	c3                   	ret    
    3f4d:	90                   	nop    
    3f4e:	90                   	nop    
    3f4f:	90                   	nop    

00003f50 <getcwd>:
    3f50:	55                   	push   %ebp
    3f51:	89 e5                	mov    %esp,%ebp
    3f53:	83 ec 18             	sub    $0x18,%esp
    3f56:	8b 45 0c             	mov    0xc(%ebp),%eax
    3f59:	89 45 f4             	mov    %eax,0xfffffff4(%ebp)
    3f5c:	83 7d 0c 00          	cmpl   $0x0,0xc(%ebp)
    3f60:	75 23                	jne    3f85 <getcwd+0x35>
    3f62:	83 7d 08 00          	cmpl   $0x0,0x8(%ebp)
    3f66:	74 16                	je     3f7e <getcwd+0x2e>
    3f68:	c7 05 64 74 00 00 16 	movl   $0x16,0x7464
    3f6f:	00 00 00 
    3f72:	c7 45 f0 00 00 00 00 	movl   $0x0,0xfffffff0(%ebp)
    3f79:	e9 9c 00 00 00       	jmp    401a <getcwd+0xca>
    3f7e:	c7 45 f4 00 10 00 00 	movl   $0x1000,0xfffffff4(%ebp)
    3f85:	8b 45 08             	mov    0x8(%ebp),%eax
    3f88:	89 45 f8             	mov    %eax,0xfffffff8(%ebp)
    3f8b:	83 7d 08 00          	cmpl   $0x0,0x8(%ebp)
    3f8f:	75 20                	jne    3fb1 <getcwd+0x61>
    3f91:	83 ec 0c             	sub    $0xc,%esp
    3f94:	ff 75 f4             	pushl  0xfffffff4(%ebp)
    3f97:	e8 08 f9 ff ff       	call   38a4 <malloc>
    3f9c:	83 c4 10             	add    $0x10,%esp
    3f9f:	89 45 f8             	mov    %eax,0xfffffff8(%ebp)
    3fa2:	83 7d f8 00          	cmpl   $0x0,0xfffffff8(%ebp)
    3fa6:	75 09                	jne    3fb1 <getcwd+0x61>
    3fa8:	c7 45 f0 00 00 00 00 	movl   $0x0,0xfffffff0(%ebp)
    3faf:	eb 69                	jmp    401a <getcwd+0xca>
    3fb1:	83 ec 08             	sub    $0x8,%esp
    3fb4:	ff 75 f4             	pushl  0xfffffff4(%ebp)
    3fb7:	ff 75 f8             	pushl  0xfffffff8(%ebp)
    3fba:	e8 60 00 00 00       	call   401f <getcwd+0xcf>
    3fbf:	83 c4 10             	add    $0x10,%esp
    3fc2:	89 45 fc             	mov    %eax,0xfffffffc(%ebp)
    3fc5:	83 7d fc 00          	cmpl   $0x0,0xfffffffc(%ebp)
    3fc9:	78 34                	js     3fff <getcwd+0xaf>
    3fcb:	83 7d 08 00          	cmpl   $0x0,0x8(%ebp)
    3fcf:	75 1a                	jne    3feb <getcwd+0x9b>
    3fd1:	83 7d 0c 00          	cmpl   $0x0,0xc(%ebp)
    3fd5:	75 14                	jne    3feb <getcwd+0x9b>
    3fd7:	83 ec 08             	sub    $0x8,%esp
    3fda:	ff 75 fc             	pushl  0xfffffffc(%ebp)
    3fdd:	ff 75 f8             	pushl  0xfffffff8(%ebp)
    3fe0:	e8 37 fa ff ff       	call   3a1c <realloc>
    3fe5:	83 c4 10             	add    $0x10,%esp
    3fe8:	89 45 08             	mov    %eax,0x8(%ebp)
    3feb:	83 7d 08 00          	cmpl   $0x0,0x8(%ebp)
    3fef:	75 06                	jne    3ff7 <getcwd+0xa7>
    3ff1:	8b 45 f8             	mov    0xfffffff8(%ebp),%eax
    3ff4:	89 45 08             	mov    %eax,0x8(%ebp)
    3ff7:	8b 45 08             	mov    0x8(%ebp),%eax
    3ffa:	89 45 f0             	mov    %eax,0xfffffff0(%ebp)
    3ffd:	eb 1b                	jmp    401a <getcwd+0xca>
    3fff:	83 7d 08 00          	cmpl   $0x0,0x8(%ebp)
    4003:	75 0e                	jne    4013 <getcwd+0xc3>
    4005:	83 ec 0c             	sub    $0xc,%esp
    4008:	ff 75 f8             	pushl  0xfffffff8(%ebp)
    400b:	e8 ad f9 ff ff       	call   39bd <free>
    4010:	83 c4 10             	add    $0x10,%esp
    4013:	c7 45 f0 00 00 00 00 	movl   $0x0,0xfffffff0(%ebp)
    401a:	8b 45 f0             	mov    0xfffffff0(%ebp),%eax
    401d:	c9                   	leave  
    401e:	c3                   	ret    
    401f:	55                   	push   %ebp
    4020:	89 e5                	mov    %esp,%ebp
    4022:	83 ec 04             	sub    $0x4,%esp
    4025:	8b 45 08             	mov    0x8(%ebp),%eax
    4028:	8b 4d 0c             	mov    0xc(%ebp),%ecx
    402b:	53                   	push   %ebx
    402c:	89 c3                	mov    %eax,%ebx
    402e:	b8 b7 00 00 00       	mov    $0xb7,%eax
    4033:	cd 80                	int    $0x80
    4035:	5b                   	pop    %ebx
    4036:	89 45 fc             	mov    %eax,0xfffffffc(%ebp)
    4039:	81 7d fc 00 f0 ff ff 	cmpl   $0xfffff000,0xfffffffc(%ebp)
    4040:	76 11                	jbe    4053 <getcwd+0x103>
    4042:	8b 45 fc             	mov    0xfffffffc(%ebp),%eax
    4045:	f7 d8                	neg    %eax
    4047:	a3 64 74 00 00       	mov    %eax,0x7464
    404c:	c7 45 fc ff ff ff ff 	movl   $0xffffffff,0xfffffffc(%ebp)
    4053:	8b 45 fc             	mov    0xfffffffc(%ebp),%eax
    4056:	c9                   	leave  
    4057:	c3                   	ret    

00004058 <__libc_wait>:
    4058:	55                   	push   %ebp
    4059:	89 e5                	mov    %esp,%ebp
    405b:	83 ec 08             	sub    $0x8,%esp
    405e:	6a 00                	push   $0x0
    4060:	6a 00                	push   $0x0
    4062:	8b 45 08             	mov    0x8(%ebp),%eax
    4065:	89 45 fc             	mov    %eax,0xfffffffc(%ebp)
    4068:	ff 75 fc             	pushl  0xfffffffc(%ebp)
    406b:	6a ff                	push   $0xffffffff
    406d:	e8 36 04 00 00       	call   44a8 <wait4>
    4072:	83 c4 10             	add    $0x10,%esp
    4075:	c9                   	leave  
    4076:	c3                   	ret    
    4077:	90                   	nop    

00004078 <_exit>:
    4078:	55                   	push   %ebp
    4079:	89 e5                	mov    %esp,%ebp
    407b:	57                   	push   %edi
    407c:	83 ec 04             	sub    $0x4,%esp
    407f:	8b 7d 08             	mov    0x8(%ebp),%edi
    4082:	53                   	push   %ebx
    4083:	89 fb                	mov    %edi,%ebx
    4085:	b8 01 00 00 00       	mov    $0x1,%eax
    408a:	cd 80                	int    $0x80
    408c:	5b                   	pop    %ebx
    408d:	89 45 f8             	mov    %eax,0xfffffff8(%ebp)
    4090:	81 7d f8 00 f0 ff ff 	cmpl   $0xfffff000,0xfffffff8(%ebp)
    4097:	76 11                	jbe    40aa <_exit+0x32>
    4099:	8b 45 f8             	mov    0xfffffff8(%ebp),%eax
    409c:	f7 d8                	neg    %eax
    409e:	a3 64 74 00 00       	mov    %eax,0x7464
    40a3:	c7 45 f8 ff ff ff ff 	movl   $0xffffffff,0xfffffff8(%ebp)
    40aa:	83 c4 04             	add    $0x4,%esp
    40ad:	5f                   	pop    %edi
    40ae:	c9                   	leave  
    40af:	c3                   	ret    

000040b0 <sbrk>:
    40b0:	55                   	push   %ebp
    40b1:	89 e5                	mov    %esp,%ebp
    40b3:	83 ec 08             	sub    $0x8,%esp
    40b6:	83 3d bc 94 00 00 00 	cmpl   $0x0,0x94bc
    40bd:	75 1a                	jne    40d9 <sbrk+0x29>
    40bf:	83 ec 0c             	sub    $0xc,%esp
    40c2:	6a 00                	push   $0x0
    40c4:	e8 c7 04 00 00       	call   4590 <brk>
    40c9:	83 c4 10             	add    $0x10,%esp
    40cc:	85 c0                	test   %eax,%eax
    40ce:	79 09                	jns    40d9 <sbrk+0x29>
    40d0:	c7 45 f8 ff ff ff ff 	movl   $0xffffffff,0xfffffff8(%ebp)
    40d7:	eb 3d                	jmp    4116 <sbrk+0x66>
    40d9:	83 7d 08 00          	cmpl   $0x0,0x8(%ebp)
    40dd:	75 0a                	jne    40e9 <sbrk+0x39>
    40df:	a1 bc 94 00 00       	mov    0x94bc,%eax
    40e4:	89 45 f8             	mov    %eax,0xfffffff8(%ebp)
    40e7:	eb 2d                	jmp    4116 <sbrk+0x66>
    40e9:	a1 bc 94 00 00       	mov    0x94bc,%eax
    40ee:	89 45 fc             	mov    %eax,0xfffffffc(%ebp)
    40f1:	83 ec 0c             	sub    $0xc,%esp
    40f4:	8b 45 08             	mov    0x8(%ebp),%eax
    40f7:	03 45 fc             	add    0xfffffffc(%ebp),%eax
    40fa:	50                   	push   %eax
    40fb:	e8 90 04 00 00       	call   4590 <brk>
    4100:	83 c4 10             	add    $0x10,%esp
    4103:	85 c0                	test   %eax,%eax
    4105:	79 09                	jns    4110 <sbrk+0x60>
    4107:	c7 45 f8 ff ff ff ff 	movl   $0xffffffff,0xfffffff8(%ebp)
    410e:	eb 06                	jmp    4116 <sbrk+0x66>
    4110:	8b 45 fc             	mov    0xfffffffc(%ebp),%eax
    4113:	89 45 f8             	mov    %eax,0xfffffff8(%ebp)
    4116:	8b 45 f8             	mov    0xfffffff8(%ebp),%eax
    4119:	c9                   	leave  
    411a:	c3                   	ret    
    411b:	90                   	nop    

0000411c <__libc_fork>:
    411c:	55                   	push   %ebp
    411d:	89 e5                	mov    %esp,%ebp
    411f:	83 ec 04             	sub    $0x4,%esp
    4122:	b8 02 00 00 00       	mov    $0x2,%eax
    4127:	cd 80                	int    $0x80
    4129:	89 45 fc             	mov    %eax,0xfffffffc(%ebp)
    412c:	81 7d fc 00 f0 ff ff 	cmpl   $0xfffff000,0xfffffffc(%ebp)
    4133:	76 11                	jbe    4146 <__libc_fork+0x2a>
    4135:	8b 45 fc             	mov    0xfffffffc(%ebp),%eax
    4138:	f7 d8                	neg    %eax
    413a:	a3 64 74 00 00       	mov    %eax,0x7464
    413f:	c7 45 fc ff ff ff ff 	movl   $0xffffffff,0xfffffffc(%ebp)
    4146:	8b 45 fc             	mov    0xfffffffc(%ebp),%eax
    4149:	c9                   	leave  
    414a:	c3                   	ret    
    414b:	90                   	nop    

0000414c <__libc_read>:
    414c:	55                   	push   %ebp
    414d:	89 e5                	mov    %esp,%ebp
    414f:	57                   	push   %edi
    4150:	83 ec 04             	sub    $0x4,%esp
    4153:	8b 7d 08             	mov    0x8(%ebp),%edi
    4156:	8b 4d 0c             	mov    0xc(%ebp),%ecx
    4159:	8b 55 10             	mov    0x10(%ebp),%edx
    415c:	53                   	push   %ebx
    415d:	89 fb                	mov    %edi,%ebx
    415f:	b8 03 00 00 00       	mov    $0x3,%eax
    4164:	cd 80                	int    $0x80
    4166:	5b                   	pop    %ebx
    4167:	89 45 f8             	mov    %eax,0xfffffff8(%ebp)
    416a:	81 7d f8 00 f0 ff ff 	cmpl   $0xfffff000,0xfffffff8(%ebp)
    4171:	76 11                	jbe    4184 <__libc_read+0x38>
    4173:	8b 45 f8             	mov    0xfffffff8(%ebp),%eax
    4176:	f7 d8                	neg    %eax
    4178:	a3 64 74 00 00       	mov    %eax,0x7464
    417d:	c7 45 f8 ff ff ff ff 	movl   $0xffffffff,0xfffffff8(%ebp)
    4184:	8b 45 f8             	mov    0xfffffff8(%ebp),%eax
    4187:	83 c4 04             	add    $0x4,%esp
    418a:	5f                   	pop    %edi
    418b:	c9                   	leave  
    418c:	c3                   	ret    
    418d:	90                   	nop    
    418e:	90                   	nop    
    418f:	90                   	nop    

00004190 <__libc_write>:
    4190:	55                   	push   %ebp
    4191:	89 e5                	mov    %esp,%ebp
    4193:	57                   	push   %edi
    4194:	83 ec 04             	sub    $0x4,%esp
    4197:	8b 7d 08             	mov    0x8(%ebp),%edi
    419a:	8b 4d 0c             	mov    0xc(%ebp),%ecx
    419d:	8b 55 10             	mov    0x10(%ebp),%edx
    41a0:	53                   	push   %ebx
    41a1:	89 fb                	mov    %edi,%ebx
    41a3:	b8 04 00 00 00       	mov    $0x4,%eax
    41a8:	cd 80                	int    $0x80
    41aa:	5b                   	pop    %ebx
    41ab:	89 45 f8             	mov    %eax,0xfffffff8(%ebp)
    41ae:	81 7d f8 00 f0 ff ff 	cmpl   $0xfffff000,0xfffffff8(%ebp)
    41b5:	76 11                	jbe    41c8 <__libc_write+0x38>
    41b7:	8b 45 f8             	mov    0xfffffff8(%ebp),%eax
    41ba:	f7 d8                	neg    %eax
    41bc:	a3 64 74 00 00       	mov    %eax,0x7464
    41c1:	c7 45 f8 ff ff ff ff 	movl   $0xffffffff,0xfffffff8(%ebp)
    41c8:	8b 45 f8             	mov    0xfffffff8(%ebp),%eax
    41cb:	83 c4 04             	add    $0x4,%esp
    41ce:	5f                   	pop    %edi
    41cf:	c9                   	leave  
    41d0:	c3                   	ret    
    41d1:	90                   	nop    
    41d2:	90                   	nop    
    41d3:	90                   	nop    

000041d4 <__libc_open>:
    41d4:	55                   	push   %ebp
    41d5:	89 e5                	mov    %esp,%ebp
    41d7:	83 ec 08             	sub    $0x8,%esp
    41da:	8b 45 0c             	mov    0xc(%ebp),%eax
    41dd:	83 e0 40             	and    $0x40,%eax
    41e0:	85 c0                	test   %eax,%eax
    41e2:	74 17                	je     41fb <__libc_open+0x27>
    41e4:	8d 45 10             	lea    0x10(%ebp),%eax
    41e7:	89 45 f8             	mov    %eax,0xfffffff8(%ebp)
    41ea:	8d 45 f8             	lea    0xfffffff8(%ebp),%eax
    41ed:	83 00 04             	addl   $0x4,(%eax)
    41f0:	8b 45 f8             	mov    0xfffffff8(%ebp),%eax
    41f3:	83 e8 04             	sub    $0x4,%eax
    41f6:	8b 00                	mov    (%eax),%eax
    41f8:	89 45 fc             	mov    %eax,0xfffffffc(%ebp)
    41fb:	83 ec 04             	sub    $0x4,%esp
    41fe:	0f b7 45 fc          	movzwl 0xfffffffc(%ebp),%eax
    4202:	50                   	push   %eax
    4203:	ff 75 0c             	pushl  0xc(%ebp)
    4206:	ff 75 08             	pushl  0x8(%ebp)
    4209:	e8 23 00 00 00       	call   4231 <creat+0x1e>
    420e:	83 c4 10             	add    $0x10,%esp
    4211:	c9                   	leave  
    4212:	c3                   	ret    

00004213 <creat>:
    4213:	55                   	push   %ebp
    4214:	89 e5                	mov    %esp,%ebp
    4216:	83 ec 08             	sub    $0x8,%esp
    4219:	83 ec 04             	sub    $0x4,%esp
    421c:	ff 75 0c             	pushl  0xc(%ebp)
    421f:	68 41 02 00 00       	push   $0x241
    4224:	ff 75 08             	pushl  0x8(%ebp)
    4227:	e8 a8 ff ff ff       	call   41d4 <__libc_open>
    422c:	83 c4 10             	add    $0x10,%esp
    422f:	c9                   	leave  
    4230:	c3                   	ret    
    4231:	55                   	push   %ebp
    4232:	89 e5                	mov    %esp,%ebp
    4234:	57                   	push   %edi
    4235:	83 ec 08             	sub    $0x8,%esp
    4238:	8b 45 10             	mov    0x10(%ebp),%eax
    423b:	66 89 45 fa          	mov    %ax,0xfffffffa(%ebp)
    423f:	8b 7d 08             	mov    0x8(%ebp),%edi
    4242:	8b 4d 0c             	mov    0xc(%ebp),%ecx
    4245:	66 8b 55 fa          	mov    0xfffffffa(%ebp),%dx
    4249:	53                   	push   %ebx
    424a:	89 fb                	mov    %edi,%ebx
    424c:	b8 05 00 00 00       	mov    $0x5,%eax
    4251:	cd 80                	int    $0x80
    4253:	5b                   	pop    %ebx
    4254:	89 45 f4             	mov    %eax,0xfffffff4(%ebp)
    4257:	81 7d f4 00 f0 ff ff 	cmpl   $0xfffff000,0xfffffff4(%ebp)
    425e:	76 11                	jbe    4271 <creat+0x5e>
    4260:	8b 45 f4             	mov    0xfffffff4(%ebp),%eax
    4263:	f7 d8                	neg    %eax
    4265:	a3 64 74 00 00       	mov    %eax,0x7464
    426a:	c7 45 f4 ff ff ff ff 	movl   $0xffffffff,0xfffffff4(%ebp)
    4271:	8b 45 f4             	mov    0xfffffff4(%ebp),%eax
    4274:	83 c4 08             	add    $0x8,%esp
    4277:	5f                   	pop    %edi
    4278:	c9                   	leave  
    4279:	c3                   	ret    
    427a:	90                   	nop    
    427b:	90                   	nop    

0000427c <__libc_close>:
    427c:	55                   	push   %ebp
    427d:	89 e5                	mov    %esp,%ebp
    427f:	57                   	push   %edi
    4280:	83 ec 04             	sub    $0x4,%esp
    4283:	8b 7d 08             	mov    0x8(%ebp),%edi
    4286:	53                   	push   %ebx
    4287:	89 fb                	mov    %edi,%ebx
    4289:	b8 06 00 00 00       	mov    $0x6,%eax
    428e:	cd 80                	int    $0x80
    4290:	5b                   	pop    %ebx
    4291:	89 45 f8             	mov    %eax,0xfffffff8(%ebp)
    4294:	81 7d f8 00 f0 ff ff 	cmpl   $0xfffff000,0xfffffff8(%ebp)
    429b:	76 11                	jbe    42ae <__libc_close+0x32>
    429d:	8b 45 f8             	mov    0xfffffff8(%ebp),%eax
    42a0:	f7 d8                	neg    %eax
    42a2:	a3 64 74 00 00       	mov    %eax,0x7464
    42a7:	c7 45 f8 ff ff ff ff 	movl   $0xffffffff,0xfffffff8(%ebp)
    42ae:	8b 45 f8             	mov    0xfffffff8(%ebp),%eax
    42b1:	83 c4 04             	add    $0x4,%esp
    42b4:	5f                   	pop    %edi
    42b5:	c9                   	leave  
    42b6:	c3                   	ret    
    42b7:	90                   	nop    

000042b8 <execve>:
    42b8:	55                   	push   %ebp
    42b9:	89 e5                	mov    %esp,%ebp
    42bb:	57                   	push   %edi
    42bc:	83 ec 04             	sub    $0x4,%esp
    42bf:	8b 7d 08             	mov    0x8(%ebp),%edi
    42c2:	8b 4d 0c             	mov    0xc(%ebp),%ecx
    42c5:	8b 55 10             	mov    0x10(%ebp),%edx
    42c8:	53                   	push   %ebx
    42c9:	89 fb                	mov    %edi,%ebx
    42cb:	b8 0b 00 00 00       	mov    $0xb,%eax
    42d0:	cd 80                	int    $0x80
    42d2:	5b                   	pop    %ebx
    42d3:	89 45 f8             	mov    %eax,0xfffffff8(%ebp)
    42d6:	81 7d f8 00 f0 ff ff 	cmpl   $0xfffff000,0xfffffff8(%ebp)
    42dd:	76 11                	jbe    42f0 <execve+0x38>
    42df:	8b 45 f8             	mov    0xfffffff8(%ebp),%eax
    42e2:	f7 d8                	neg    %eax
    42e4:	a3 64 74 00 00       	mov    %eax,0x7464
    42e9:	c7 45 f8 ff ff ff ff 	movl   $0xffffffff,0xfffffff8(%ebp)
    42f0:	8b 45 f8             	mov    0xfffffff8(%ebp),%eax
    42f3:	83 c4 04             	add    $0x4,%esp
    42f6:	5f                   	pop    %edi
    42f7:	c9                   	leave  
    42f8:	c3                   	ret    
    42f9:	90                   	nop    
    42fa:	90                   	nop    
    42fb:	90                   	nop    

000042fc <setuid>:
    42fc:	55                   	push   %ebp
    42fd:	89 e5                	mov    %esp,%ebp
    42ff:	83 ec 08             	sub    $0x8,%esp
    4302:	83 7d 08 ff          	cmpl   $0xffffffff,0x8(%ebp)
    4306:	74 0b                	je     4313 <setuid+0x17>
    4308:	0f b7 45 08          	movzwl 0x8(%ebp),%eax
    430c:	39 45 08             	cmp    %eax,0x8(%ebp)
    430f:	75 02                	jne    4313 <setuid+0x17>
    4311:	eb 13                	jmp    4326 <setuid+0x2a>
    4313:	c7 05 64 74 00 00 16 	movl   $0x16,0x7464
    431a:	00 00 00 
    431d:	c7 45 fc ff ff ff ff 	movl   $0xffffffff,0xfffffffc(%ebp)
    4324:	eb 13                	jmp    4339 <setuid+0x3d>
    4326:	83 ec 0c             	sub    $0xc,%esp
    4329:	0f b7 45 08          	movzwl 0x8(%ebp),%eax
    432d:	50                   	push   %eax
    432e:	e8 0b 00 00 00       	call   433e <setuid+0x42>
    4333:	83 c4 10             	add    $0x10,%esp
    4336:	89 45 fc             	mov    %eax,0xfffffffc(%ebp)
    4339:	8b 45 fc             	mov    0xfffffffc(%ebp),%eax
    433c:	c9                   	leave  
    433d:	c3                   	ret    
    433e:	55                   	push   %ebp
    433f:	89 e5                	mov    %esp,%ebp
    4341:	57                   	push   %edi
    4342:	83 ec 08             	sub    $0x8,%esp
    4345:	8b 45 08             	mov    0x8(%ebp),%eax
    4348:	66 89 45 fa          	mov    %ax,0xfffffffa(%ebp)
    434c:	66 8b 7d fa          	mov    0xfffffffa(%ebp),%di
    4350:	53                   	push   %ebx
    4351:	89 fb                	mov    %edi,%ebx
    4353:	b8 17 00 00 00       	mov    $0x17,%eax
    4358:	cd 80                	int    $0x80
    435a:	5b                   	pop    %ebx
    435b:	89 45 f4             	mov    %eax,0xfffffff4(%ebp)
    435e:	81 7d f4 00 f0 ff ff 	cmpl   $0xfffff000,0xfffffff4(%ebp)
    4365:	76 11                	jbe    4378 <setuid+0x7c>
    4367:	8b 45 f4             	mov    0xfffffff4(%ebp),%eax
    436a:	f7 d8                	neg    %eax
    436c:	a3 64 74 00 00       	mov    %eax,0x7464
    4371:	c7 45 f4 ff ff ff ff 	movl   $0xffffffff,0xfffffff4(%ebp)
    4378:	8b 45 f4             	mov    0xfffffff4(%ebp),%eax
    437b:	83 c4 08             	add    $0x8,%esp
    437e:	5f                   	pop    %edi
    437f:	c9                   	leave  
    4380:	c3                   	ret    
    4381:	90                   	nop    
    4382:	90                   	nop    
    4383:	90                   	nop    

00004384 <dup>:
    4384:	55                   	push   %ebp
    4385:	89 e5                	mov    %esp,%ebp
    4387:	57                   	push   %edi
    4388:	83 ec 04             	sub    $0x4,%esp
    438b:	8b 7d 08             	mov    0x8(%ebp),%edi
    438e:	53                   	push   %ebx
    438f:	89 fb                	mov    %edi,%ebx
    4391:	b8 29 00 00 00       	mov    $0x29,%eax
    4396:	cd 80                	int    $0x80
    4398:	5b                   	pop    %ebx
    4399:	89 45 f8             	mov    %eax,0xfffffff8(%ebp)
    439c:	81 7d f8 00 f0 ff ff 	cmpl   $0xfffff000,0xfffffff8(%ebp)
    43a3:	76 11                	jbe    43b6 <dup+0x32>
    43a5:	8b 45 f8             	mov    0xfffffff8(%ebp),%eax
    43a8:	f7 d8                	neg    %eax
    43aa:	a3 64 74 00 00       	mov    %eax,0x7464
    43af:	c7 45 f8 ff ff ff ff 	movl   $0xffffffff,0xfffffff8(%ebp)
    43b6:	8b 45 f8             	mov    0xfffffff8(%ebp),%eax
    43b9:	83 c4 04             	add    $0x4,%esp
    43bc:	5f                   	pop    %edi
    43bd:	c9                   	leave  
    43be:	c3                   	ret    
    43bf:	90                   	nop    

000043c0 <__syscall_ioctl>:
    43c0:	55                   	push   %ebp
    43c1:	89 e5                	mov    %esp,%ebp
    43c3:	57                   	push   %edi
    43c4:	83 ec 04             	sub    $0x4,%esp
    43c7:	8b 7d 08             	mov    0x8(%ebp),%edi
    43ca:	8b 4d 0c             	mov    0xc(%ebp),%ecx
    43cd:	8b 55 10             	mov    0x10(%ebp),%edx
    43d0:	53                   	push   %ebx
    43d1:	89 fb                	mov    %edi,%ebx
    43d3:	b8 36 00 00 00       	mov    $0x36,%eax
    43d8:	cd 80                	int    $0x80
    43da:	5b                   	pop    %ebx
    43db:	89 45 f8             	mov    %eax,0xfffffff8(%ebp)
    43de:	81 7d f8 00 f0 ff ff 	cmpl   $0xfffff000,0xfffffff8(%ebp)
    43e5:	76 11                	jbe    43f8 <__syscall_ioctl+0x38>
    43e7:	8b 45 f8             	mov    0xfffffff8(%ebp),%eax
    43ea:	f7 d8                	neg    %eax
    43ec:	a3 64 74 00 00       	mov    %eax,0x7464
    43f1:	c7 45 f8 ff ff ff ff 	movl   $0xffffffff,0xfffffff8(%ebp)
    43f8:	8b 45 f8             	mov    0xfffffff8(%ebp),%eax
    43fb:	83 c4 04             	add    $0x4,%esp
    43fe:	5f                   	pop    %edi
    43ff:	c9                   	leave  
    4400:	c3                   	ret    

00004401 <ioctl>:
    4401:	55                   	push   %ebp
    4402:	89 e5                	mov    %esp,%ebp
    4404:	83 ec 08             	sub    $0x8,%esp
    4407:	8d 45 10             	lea    0x10(%ebp),%eax
    440a:	89 45 f8             	mov    %eax,0xfffffff8(%ebp)
    440d:	8d 45 f8             	lea    0xfffffff8(%ebp),%eax
    4410:	83 00 04             	addl   $0x4,(%eax)
    4413:	8b 45 f8             	mov    0xfffffff8(%ebp),%eax
    4416:	83 e8 04             	sub    $0x4,%eax
    4419:	8b 00                	mov    (%eax),%eax
    441b:	89 45 fc             	mov    %eax,0xfffffffc(%ebp)
    441e:	83 ec 04             	sub    $0x4,%esp
    4421:	ff 75 fc             	pushl  0xfffffffc(%ebp)
    4424:	ff 75 0c             	pushl  0xc(%ebp)
    4427:	ff 75 08             	pushl  0x8(%ebp)
    442a:	e8 91 ff ff ff       	call   43c0 <__syscall_ioctl>
    442f:	83 c4 10             	add    $0x10,%esp
    4432:	c9                   	leave  
    4433:	c3                   	ret    

00004434 <__syscall_stat>:
    4434:	55                   	push   %ebp
    4435:	89 e5                	mov    %esp,%ebp
    4437:	83 ec 04             	sub    $0x4,%esp
    443a:	8b 45 08             	mov    0x8(%ebp),%eax
    443d:	8b 4d 0c             	mov    0xc(%ebp),%ecx
    4440:	53                   	push   %ebx
    4441:	89 c3                	mov    %eax,%ebx
    4443:	b8 6a 00 00 00       	mov    $0x6a,%eax
    4448:	cd 80                	int    $0x80
    444a:	5b                   	pop    %ebx
    444b:	89 45 fc             	mov    %eax,0xfffffffc(%ebp)
    444e:	81 7d fc 00 f0 ff ff 	cmpl   $0xfffff000,0xfffffffc(%ebp)
    4455:	76 11                	jbe    4468 <__syscall_stat+0x34>
    4457:	8b 45 fc             	mov    0xfffffffc(%ebp),%eax
    445a:	f7 d8                	neg    %eax
    445c:	a3 64 74 00 00       	mov    %eax,0x7464
    4461:	c7 45 fc ff ff ff ff 	movl   $0xffffffff,0xfffffffc(%ebp)
    4468:	8b 45 fc             	mov    0xfffffffc(%ebp),%eax
    446b:	c9                   	leave  
    446c:	c3                   	ret    

0000446d <stat>:
    446d:	55                   	push   %ebp
    446e:	89 e5                	mov    %esp,%ebp
    4470:	83 ec 58             	sub    $0x58,%esp
    4473:	83 ec 08             	sub    $0x8,%esp
    4476:	8d 45 a8             	lea    0xffffffa8(%ebp),%eax
    4479:	50                   	push   %eax
    447a:	ff 75 08             	pushl  0x8(%ebp)
    447d:	e8 b2 ff ff ff       	call   4434 <__syscall_stat>
    4482:	83 c4 10             	add    $0x10,%esp
    4485:	89 45 f4             	mov    %eax,0xfffffff4(%ebp)
    4488:	83 7d f4 00          	cmpl   $0x0,0xfffffff4(%ebp)
    448c:	75 12                	jne    44a0 <stat+0x33>
    448e:	83 ec 08             	sub    $0x8,%esp
    4491:	ff 75 0c             	pushl  0xc(%ebp)
    4494:	8d 45 a8             	lea    0xffffffa8(%ebp),%eax
    4497:	50                   	push   %eax
    4498:	e8 93 13 00 00       	call   5830 <__xstat_conv>
    449d:	83 c4 10             	add    $0x10,%esp
    44a0:	8b 45 f4             	mov    0xfffffff4(%ebp),%eax
    44a3:	c9                   	leave  
    44a4:	c3                   	ret    
    44a5:	90                   	nop    
    44a6:	90                   	nop    
    44a7:	90                   	nop    

000044a8 <wait4>:
    44a8:	55                   	push   %ebp
    44a9:	89 e5                	mov    %esp,%ebp
    44ab:	83 ec 08             	sub    $0x8,%esp
    44ae:	ff 75 14             	pushl  0x14(%ebp)
    44b1:	ff 75 10             	pushl  0x10(%ebp)
    44b4:	ff 75 0c             	pushl  0xc(%ebp)
    44b7:	ff 75 08             	pushl  0x8(%ebp)
    44ba:	e8 05 00 00 00       	call   44c4 <wait4+0x1c>
    44bf:	83 c4 10             	add    $0x10,%esp
    44c2:	c9                   	leave  
    44c3:	c3                   	ret    
    44c4:	55                   	push   %ebp
    44c5:	89 e5                	mov    %esp,%ebp
    44c7:	57                   	push   %edi
    44c8:	56                   	push   %esi
    44c9:	83 ec 04             	sub    $0x4,%esp
    44cc:	8b 7d 08             	mov    0x8(%ebp),%edi
    44cf:	8b 4d 0c             	mov    0xc(%ebp),%ecx
    44d2:	8b 55 10             	mov    0x10(%ebp),%edx
    44d5:	8b 75 14             	mov    0x14(%ebp),%esi
    44d8:	53                   	push   %ebx
    44d9:	89 fb                	mov    %edi,%ebx
    44db:	b8 72 00 00 00       	mov    $0x72,%eax
    44e0:	cd 80                	int    $0x80
    44e2:	5b                   	pop    %ebx
    44e3:	89 45 f4             	mov    %eax,0xfffffff4(%ebp)
    44e6:	81 7d f4 00 f0 ff ff 	cmpl   $0xfffff000,0xfffffff4(%ebp)
    44ed:	76 11                	jbe    4500 <wait4+0x58>
    44ef:	8b 45 f4             	mov    0xfffffff4(%ebp),%eax
    44f2:	f7 d8                	neg    %eax
    44f4:	a3 64 74 00 00       	mov    %eax,0x7464
    44f9:	c7 45 f4 ff ff ff ff 	movl   $0xffffffff,0xfffffff4(%ebp)
    4500:	8b 45 f4             	mov    0xfffffff4(%ebp),%eax
    4503:	83 c4 04             	add    $0x4,%esp
    4506:	5e                   	pop    %esi
    4507:	5f                   	pop    %edi
    4508:	c9                   	leave  
    4509:	c3                   	ret    
    450a:	90                   	nop    
    450b:	90                   	nop    

0000450c <uname>:
    450c:	55                   	push   %ebp
    450d:	89 e5                	mov    %esp,%ebp
    450f:	57                   	push   %edi
    4510:	83 ec 04             	sub    $0x4,%esp
    4513:	8b 7d 08             	mov    0x8(%ebp),%edi
    4516:	53                   	push   %ebx
    4517:	89 fb                	mov    %edi,%ebx
    4519:	b8 7a 00 00 00       	mov    $0x7a,%eax
    451e:	cd 80                	int    $0x80
    4520:	5b                   	pop    %ebx
    4521:	89 45 f8             	mov    %eax,0xfffffff8(%ebp)
    4524:	81 7d f8 00 f0 ff ff 	cmpl   $0xfffff000,0xfffffff8(%ebp)
    452b:	76 11                	jbe    453e <uname+0x32>
    452d:	8b 45 f8             	mov    0xfffffff8(%ebp),%eax
    4530:	f7 d8                	neg    %eax
    4532:	a3 64 74 00 00       	mov    %eax,0x7464
    4537:	c7 45 f8 ff ff ff ff 	movl   $0xffffffff,0xfffffff8(%ebp)
    453e:	8b 45 f8             	mov    0xfffffff8(%ebp),%eax
    4541:	83 c4 04             	add    $0x4,%esp
    4544:	5f                   	pop    %edi
    4545:	c9                   	leave  
    4546:	c3                   	ret    
    4547:	90                   	nop    

00004548 <__syscall_rt_sigaction>:
    4548:	55                   	push   %ebp
    4549:	89 e5                	mov    %esp,%ebp
    454b:	57                   	push   %edi
    454c:	56                   	push   %esi
    454d:	83 ec 04             	sub    $0x4,%esp
    4550:	8b 7d 08             	mov    0x8(%ebp),%edi
    4553:	8b 4d 0c             	mov    0xc(%ebp),%ecx
    4556:	8b 55 10             	mov    0x10(%ebp),%edx
    4559:	8b 75 14             	mov    0x14(%ebp),%esi
    455c:	53                   	push   %ebx
    455d:	89 fb                	mov    %edi,%ebx
    455f:	b8 ae 00 00 00       	mov    $0xae,%eax
    4564:	cd 80                	int    $0x80
    4566:	5b                   	pop    %ebx
    4567:	89 45 f4             	mov    %eax,0xfffffff4(%ebp)
    456a:	81 7d f4 00 f0 ff ff 	cmpl   $0xfffff000,0xfffffff4(%ebp)
    4571:	76 11                	jbe    4584 <__syscall_rt_sigaction+0x3c>
    4573:	8b 45 f4             	mov    0xfffffff4(%ebp),%eax
    4576:	f7 d8                	neg    %eax
    4578:	a3 64 74 00 00       	mov    %eax,0x7464
    457d:	c7 45 f4 ff ff ff ff 	movl   $0xffffffff,0xfffffff4(%ebp)
    4584:	8b 45 f4             	mov    0xfffffff4(%ebp),%eax
    4587:	83 c4 04             	add    $0x4,%esp
    458a:	5e                   	pop    %esi
    458b:	5f                   	pop    %edi
    458c:	c9                   	leave  
    458d:	c3                   	ret    
    458e:	90                   	nop    
    458f:	90                   	nop    

00004590 <brk>:
    4590:	55                   	push   %ebp
    4591:	89 e5                	mov    %esp,%ebp
    4593:	83 ec 0c             	sub    $0xc,%esp
    4596:	b8 2d 00 00 00       	mov    $0x2d,%eax
    459b:	89 da                	mov    %ebx,%edx
    459d:	8b 5d 08             	mov    0x8(%ebp),%ebx
    45a0:	cd 80                	int    $0x80
    45a2:	89 d3                	mov    %edx,%ebx
    45a4:	89 45 fc             	mov    %eax,0xfffffffc(%ebp)
    45a7:	89 d0                	mov    %edx,%eax
    45a9:	89 45 f8             	mov    %eax,0xfffffff8(%ebp)
    45ac:	8b 45 fc             	mov    0xfffffffc(%ebp),%eax
    45af:	a3 bc 94 00 00       	mov    %eax,0x94bc
    45b4:	8b 45 fc             	mov    0xfffffffc(%ebp),%eax
    45b7:	3b 45 08             	cmp    0x8(%ebp),%eax
    45ba:	73 13                	jae    45cf <brk+0x3f>
    45bc:	c7 05 64 74 00 00 0c 	movl   $0xc,0x7464
    45c3:	00 00 00 
    45c6:	c7 45 f4 ff ff ff ff 	movl   $0xffffffff,0xfffffff4(%ebp)
    45cd:	eb 07                	jmp    45d6 <brk+0x46>
    45cf:	c7 45 f4 00 00 00 00 	movl   $0x0,0xfffffff4(%ebp)
    45d6:	8b 45 f4             	mov    0xfffffff4(%ebp),%eax
    45d9:	c9                   	leave  
    45da:	c3                   	ret    
    45db:	90                   	nop    

000045dc <tolower>:
    45dc:	55                   	push   %ebp
    45dd:	89 e5                	mov    %esp,%ebp
    45df:	83 ec 04             	sub    $0x4,%esp
    45e2:	8b 45 08             	mov    0x8(%ebp),%eax
    45e5:	83 e8 80             	sub    $0xffffff80,%eax
    45e8:	3d 7f 01 00 00       	cmp    $0x17f,%eax
    45ed:	77 14                	ja     4603 <tolower+0x27>
    45ef:	8b 45 08             	mov    0x8(%ebp),%eax
    45f2:	8d 14 00             	lea    (%eax,%eax,1),%edx
    45f5:	a1 d0 73 00 00       	mov    0x73d0,%eax
    45fa:	0f bf 14 10          	movswl (%eax,%edx,1),%edx
    45fe:	89 55 fc             	mov    %edx,0xfffffffc(%ebp)
    4601:	eb 06                	jmp    4609 <tolower+0x2d>
    4603:	8b 45 08             	mov    0x8(%ebp),%eax
    4606:	89 45 fc             	mov    %eax,0xfffffffc(%ebp)
    4609:	8b 45 fc             	mov    0xfffffffc(%ebp),%eax
    460c:	c9                   	leave  
    460d:	c3                   	ret    
    460e:	90                   	nop    
    460f:	90                   	nop    

00004610 <fflush>:
    4610:	55                   	push   %ebp
    4611:	89 e5                	mov    %esp,%ebp
    4613:	83 ec 08             	sub    $0x8,%esp
    4616:	c7 45 fc 00 00 00 00 	movl   $0x0,0xfffffffc(%ebp)
    461d:	66 c7 45 fa 00 03    	movw   $0x300,0xfffffffa(%ebp)
    4623:	81 7d 08 b8 72 00 00 	cmpl   $0x72b8,0x8(%ebp)
    462a:	75 0d                	jne    4639 <fflush+0x29>
    462c:	c7 45 08 00 00 00 00 	movl   $0x0,0x8(%ebp)
    4633:	66 c7 45 fa 00 01    	movw   $0x100,0xfffffffa(%ebp)
    4639:	83 7d 08 00          	cmpl   $0x0,0x8(%ebp)
    463d:	75 55                	jne    4694 <fflush+0x84>
    463f:	a1 b8 72 00 00       	mov    0x72b8,%eax
    4644:	89 45 08             	mov    %eax,0x8(%ebp)
    4647:	83 7d 08 00          	cmpl   $0x0,0x8(%ebp)
    464b:	75 02                	jne    464f <fflush+0x3f>
    464d:	eb 71                	jmp    46c0 <fflush+0xb0>
    464f:	8b 55 08             	mov    0x8(%ebp),%edx
    4652:	66 8b 02             	mov    (%edx),%ax
    4655:	80 f4 02             	xor    $0x2,%ah
    4658:	66 23 45 fa          	and    0xfffffffa(%ebp),%ax
    465c:	66 85 c0             	test   %ax,%ax
    465f:	74 28                	je     4689 <fflush+0x79>
    4661:	8b 55 08             	mov    0x8(%ebp),%edx
    4664:	0f b7 02             	movzwl (%edx),%eax
    4667:	25 00 20 00 00       	and    $0x2000,%eax
    466c:	85 c0                	test   %eax,%eax
    466e:	74 19                	je     4689 <fflush+0x79>
    4670:	83 ec 0c             	sub    $0xc,%esp
    4673:	ff 75 08             	pushl  0x8(%ebp)
    4676:	e8 95 ff ff ff       	call   4610 <fflush>
    467b:	83 c4 10             	add    $0x10,%esp
    467e:	85 c0                	test   %eax,%eax
    4680:	74 07                	je     4689 <fflush+0x79>
    4682:	c7 45 fc ff ff ff ff 	movl   $0xffffffff,0xfffffffc(%ebp)
    4689:	8b 45 08             	mov    0x8(%ebp),%eax
    468c:	8b 40 08             	mov    0x8(%eax),%eax
    468f:	89 45 08             	mov    %eax,0x8(%ebp)
    4692:	eb b3                	jmp    4647 <fflush+0x37>
    4694:	8b 55 08             	mov    0x8(%ebp),%edx
    4697:	0f b7 02             	movzwl (%edx),%eax
    469a:	25 00 20 00 00       	and    $0x2000,%eax
    469f:	85 c0                	test   %eax,%eax
    46a1:	74 1d                	je     46c0 <fflush+0xb0>
    46a3:	83 ec 04             	sub    $0x4,%esp
    46a6:	ff 75 08             	pushl  0x8(%ebp)
    46a9:	6a 00                	push   $0x0
    46ab:	6a 00                	push   $0x0
    46ad:	e8 08 01 00 00       	call   47ba <_stdio_fwrite>
    46b2:	83 c4 10             	add    $0x10,%esp
    46b5:	85 c0                	test   %eax,%eax
    46b7:	74 07                	je     46c0 <fflush+0xb0>
    46b9:	c7 45 fc ff ff ff ff 	movl   $0xffffffff,0xfffffffc(%ebp)
    46c0:	8b 45 fc             	mov    0xfffffffc(%ebp),%eax
    46c3:	c9                   	leave  
    46c4:	c3                   	ret    
    46c5:	90                   	nop    
    46c6:	90                   	nop    
    46c7:	90                   	nop    

000046c8 <fputc>:
    46c8:	55                   	push   %ebp
    46c9:	89 e5                	mov    %esp,%ebp
    46cb:	83 ec 08             	sub    $0x8,%esp
    46ce:	8a 45 08             	mov    0x8(%ebp),%al
    46d1:	88 45 ff             	mov    %al,0xffffffff(%ebp)
    46d4:	83 ec 04             	sub    $0x4,%esp
    46d7:	ff 75 0c             	pushl  0xc(%ebp)
    46da:	6a 01                	push   $0x1
    46dc:	8d 45 ff             	lea    0xffffffff(%ebp),%eax
    46df:	50                   	push   %eax
    46e0:	e8 d5 00 00 00       	call   47ba <_stdio_fwrite>
    46e5:	83 c4 10             	add    $0x10,%esp
    46e8:	85 c0                	test   %eax,%eax
    46ea:	74 09                	je     46f5 <fputc+0x2d>
    46ec:	0f b6 45 ff          	movzbl 0xffffffff(%ebp),%eax
    46f0:	89 45 f8             	mov    %eax,0xfffffff8(%ebp)
    46f3:	eb 07                	jmp    46fc <fputc+0x34>
    46f5:	c7 45 f8 ff ff ff ff 	movl   $0xffffffff,0xfffffff8(%ebp)
    46fc:	8b 45 f8             	mov    0xfffffff8(%ebp),%eax
    46ff:	c9                   	leave  
    4700:	c3                   	ret    
    4701:	90                   	nop    
    4702:	90                   	nop    
    4703:	90                   	nop    

00004704 <fputs>:
    4704:	55                   	push   %ebp
    4705:	89 e5                	mov    %esp,%ebp
    4707:	53                   	push   %ebx
    4708:	83 ec 14             	sub    $0x14,%esp
    470b:	8b 5d 08             	mov    0x8(%ebp),%ebx
    470e:	83 ec 0c             	sub    $0xc,%esp
    4711:	53                   	push   %ebx
    4712:	e8 99 e6 ff ff       	call   2db0 <strlen>
    4717:	83 c4 10             	add    $0x10,%esp
    471a:	89 45 f8             	mov    %eax,0xfffffff8(%ebp)
    471d:	83 ec 04             	sub    $0x4,%esp
    4720:	ff 75 0c             	pushl  0xc(%ebp)
    4723:	ff 75 f8             	pushl  0xfffffff8(%ebp)
    4726:	53                   	push   %ebx
    4727:	e8 8e 00 00 00       	call   47ba <_stdio_fwrite>
    472c:	83 c4 10             	add    $0x10,%esp
    472f:	3b 45 f8             	cmp    0xfffffff8(%ebp),%eax
    4732:	75 08                	jne    473c <fputs+0x38>
    4734:	8b 45 f8             	mov    0xfffffff8(%ebp),%eax
    4737:	89 45 f4             	mov    %eax,0xfffffff4(%ebp)
    473a:	eb 08                	jmp    4744 <fputs+0x40>
    473c:	b8 ff ff ff ff       	mov    $0xffffffff,%eax
    4741:	89 45 f4             	mov    %eax,0xfffffff4(%ebp)
    4744:	8b 45 f4             	mov    0xfffffff4(%ebp),%eax
    4747:	8b 5d fc             	mov    0xfffffffc(%ebp),%ebx
    474a:	c9                   	leave  
    474b:	c3                   	ret    
    474c:	55                   	push   %ebp
    474d:	89 e5                	mov    %esp,%ebp
    474f:	83 ec 18             	sub    $0x18,%esp
    4752:	8b 45 10             	mov    0x10(%ebp),%eax
    4755:	89 45 fc             	mov    %eax,0xfffffffc(%ebp)
    4758:	83 7d fc 00          	cmpl   $0x0,0xfffffffc(%ebp)
    475c:	75 02                	jne    4760 <fputs+0x5c>
    475e:	eb 50                	jmp    47b0 <fputs+0xac>
    4760:	8b 45 fc             	mov    0xfffffffc(%ebp),%eax
    4763:	89 45 f0             	mov    %eax,0xfffffff0(%ebp)
    4766:	83 7d fc 00          	cmpl   $0x0,0xfffffffc(%ebp)
    476a:	79 07                	jns    4773 <fputs+0x6f>
    476c:	c7 45 f0 ff ff ff 7f 	movl   $0x7fffffff,0xfffffff0(%ebp)
    4773:	8b 45 f0             	mov    0xfffffff0(%ebp),%eax
    4776:	89 45 f4             	mov    %eax,0xfffffff4(%ebp)
    4779:	83 ec 04             	sub    $0x4,%esp
    477c:	ff 75 f4             	pushl  0xfffffff4(%ebp)
    477f:	ff 75 0c             	pushl  0xc(%ebp)
    4782:	8b 45 08             	mov    0x8(%ebp),%eax
    4785:	ff 70 04             	pushl  0x4(%eax)
    4788:	e8 03 fa ff ff       	call   4190 <__libc_write>
    478d:	83 c4 10             	add    $0x10,%esp
    4790:	89 45 f8             	mov    %eax,0xfffffff8(%ebp)
    4793:	83 7d f8 00          	cmpl   $0x0,0xfffffff8(%ebp)
    4797:	78 10                	js     47a9 <fputs+0xa5>
    4799:	8b 55 f8             	mov    0xfffffff8(%ebp),%edx
    479c:	8d 45 fc             	lea    0xfffffffc(%ebp),%eax
    479f:	29 10                	sub    %edx,(%eax)
    47a1:	8b 45 f8             	mov    0xfffffff8(%ebp),%eax
    47a4:	01 45 0c             	add    %eax,0xc(%ebp)
    47a7:	eb af                	jmp    4758 <fputs+0x54>
    47a9:	8b 45 08             	mov    0x8(%ebp),%eax
    47ac:	66 83 08 08          	orw    $0x8,(%eax)
    47b0:	8b 55 fc             	mov    0xfffffffc(%ebp),%edx
    47b3:	8b 45 10             	mov    0x10(%ebp),%eax
    47b6:	29 d0                	sub    %edx,%eax
    47b8:	c9                   	leave  
    47b9:	c3                   	ret    

000047ba <_stdio_fwrite>:
    47ba:	55                   	push   %ebp
    47bb:	89 e5                	mov    %esp,%ebp
    47bd:	83 ec 28             	sub    $0x28,%esp
    47c0:	8b 55 10             	mov    0x10(%ebp),%edx
    47c3:	0f b7 02             	movzwl (%edx),%eax
    47c6:	83 e0 20             	and    $0x20,%eax
    47c9:	85 c0                	test   %eax,%eax
    47cb:	74 1d                	je     47ea <_stdio_fwrite+0x30>
    47cd:	8b 4d 10             	mov    0x10(%ebp),%ecx
    47d0:	66 83 09 08          	orw    $0x8,(%ecx)
    47d4:	c7 05 64 74 00 00 09 	movl   $0x9,0x7464
    47db:	00 00 00 
    47de:	c7 45 ec 00 00 00 00 	movl   $0x0,0xffffffec(%ebp)
    47e5:	e9 ee 02 00 00       	jmp    4ad8 <_stdio_fwrite+0x31e>
    47ea:	8b 55 10             	mov    0x10(%ebp),%edx
    47ed:	0f b7 02             	movzwl (%edx),%eax
    47f0:	25 00 10 00 00       	and    $0x1000,%eax
    47f5:	85 c0                	test   %eax,%eax
    47f7:	0f 84 80 00 00 00    	je     487d <_stdio_fwrite+0xc3>
    47fd:	8b 4d 10             	mov    0x10(%ebp),%ecx
    4800:	8b 41 14             	mov    0x14(%ecx),%eax
    4803:	8b 55 10             	mov    0x10(%ebp),%edx
    4806:	3b 42 18             	cmp    0x18(%edx),%eax
    4809:	72 0f                	jb     481a <_stdio_fwrite+0x60>
    480b:	8b 4d 10             	mov    0x10(%ebp),%ecx
    480e:	0f b7 01             	movzwl (%ecx),%eax
    4811:	83 e0 03             	and    $0x3,%eax
    4814:	85 c0                	test   %eax,%eax
    4816:	75 02                	jne    481a <_stdio_fwrite+0x60>
    4818:	eb 49                	jmp    4863 <_stdio_fwrite+0xa9>
    481a:	83 ec 04             	sub    $0x4,%esp
    481d:	8b 55 10             	mov    0x10(%ebp),%edx
    4820:	0f b7 02             	movzwl (%edx),%eax
    4823:	25 00 04 00 00       	and    $0x400,%eax
    4828:	85 c0                	test   %eax,%eax
    482a:	74 09                	je     4835 <_stdio_fwrite+0x7b>
    482c:	c7 45 e4 02 00 00 00 	movl   $0x2,0xffffffe4(%ebp)
    4833:	eb 07                	jmp    483c <_stdio_fwrite+0x82>
    4835:	c7 45 e4 01 00 00 00 	movl   $0x1,0xffffffe4(%ebp)
    483c:	ff 75 e4             	pushl  0xffffffe4(%ebp)
    483f:	6a 00                	push   $0x0
    4841:	ff 75 10             	pushl  0x10(%ebp)
    4844:	e8 eb 10 00 00       	call   5934 <fseek>
    4849:	83 c4 10             	add    $0x10,%esp
    484c:	85 c0                	test   %eax,%eax
    484e:	74 13                	je     4863 <_stdio_fwrite+0xa9>
    4850:	8b 4d 10             	mov    0x10(%ebp),%ecx
    4853:	66 83 09 08          	orw    $0x8,(%ecx)
    4857:	c7 45 ec 00 00 00 00 	movl   $0x0,0xffffffec(%ebp)
    485e:	e9 75 02 00 00       	jmp    4ad8 <_stdio_fwrite+0x31e>
    4863:	8b 55 10             	mov    0x10(%ebp),%edx
    4866:	8b 42 0c             	mov    0xc(%edx),%eax
    4869:	8b 4d 10             	mov    0x10(%ebp),%ecx
    486c:	89 41 18             	mov    %eax,0x18(%ecx)
    486f:	8b 55 10             	mov    0x10(%ebp),%edx
    4872:	89 42 14             	mov    %eax,0x14(%edx)
    4875:	8b 4d 10             	mov    0x10(%ebp),%ecx
    4878:	89 41 1c             	mov    %eax,0x1c(%ecx)
    487b:	eb 4d                	jmp    48ca <_stdio_fwrite+0x110>
    487d:	8b 55 10             	mov    0x10(%ebp),%edx
    4880:	0f b7 02             	movzwl (%edx),%eax
    4883:	25 00 24 00 00       	and    $0x2400,%eax
    4888:	3d 00 04 00 00       	cmp    $0x400,%eax
    488d:	75 3b                	jne    48ca <_stdio_fwrite+0x110>
    488f:	c7 45 fc 00 00 00 00 	movl   $0x0,0xfffffffc(%ebp)
    4896:	83 ec 04             	sub    $0x4,%esp
    4899:	6a 02                	push   $0x2
    489b:	8d 45 fc             	lea    0xfffffffc(%ebp),%eax
    489e:	50                   	push   %eax
    489f:	ff 75 10             	pushl  0x10(%ebp)
    48a2:	e8 39 02 00 00       	call   4ae0 <_stdio_lseek>
    48a7:	83 c4 10             	add    $0x10,%esp
    48aa:	85 c0                	test   %eax,%eax
    48ac:	74 1c                	je     48ca <_stdio_fwrite+0x110>
    48ae:	83 3d 64 74 00 00 20 	cmpl   $0x20,0x7464
    48b5:	74 13                	je     48ca <_stdio_fwrite+0x110>
    48b7:	8b 4d 10             	mov    0x10(%ebp),%ecx
    48ba:	66 83 09 08          	orw    $0x8,(%ecx)
    48be:	c7 45 ec 00 00 00 00 	movl   $0x0,0xffffffec(%ebp)
    48c5:	e9 0e 02 00 00       	jmp    4ad8 <_stdio_fwrite+0x31e>
    48ca:	8b 55 10             	mov    0x10(%ebp),%edx
    48cd:	8b 42 0c             	mov    0xc(%edx),%eax
    48d0:	8b 4d 10             	mov    0x10(%ebp),%ecx
    48d3:	89 41 20             	mov    %eax,0x20(%ecx)
    48d6:	8b 45 10             	mov    0x10(%ebp),%eax
    48d9:	66 81 20 ff cf       	andw   $0xcfff,(%eax)
    48de:	8b 45 08             	mov    0x8(%ebp),%eax
    48e1:	89 45 f8             	mov    %eax,0xfffffff8(%ebp)
    48e4:	c7 45 f4 01 00 00 00 	movl   $0x1,0xfffffff4(%ebp)
    48eb:	83 7d 08 00          	cmpl   $0x0,0x8(%ebp)
    48ef:	0f 85 ce 00 00 00    	jne    49c3 <_stdio_fwrite+0x209>
    48f5:	8b 55 10             	mov    0x10(%ebp),%edx
    48f8:	8b 42 0c             	mov    0xc(%edx),%eax
    48fb:	8b 4d 10             	mov    0x10(%ebp),%ecx
    48fe:	8b 51 14             	mov    0x14(%ecx),%edx
    4901:	29 c2                	sub    %eax,%edx
    4903:	89 d0                	mov    %edx,%eax
    4905:	89 45 f0             	mov    %eax,0xfffffff0(%ebp)
    4908:	8b 45 10             	mov    0x10(%ebp),%eax
    490b:	8b 40 0c             	mov    0xc(%eax),%eax
    490e:	89 45 e8             	mov    %eax,0xffffffe8(%ebp)
    4911:	8b 55 10             	mov    0x10(%ebp),%edx
    4914:	83 7a 04 fe          	cmpl   $0xfffffffe,0x4(%edx)
    4918:	75 33                	jne    494d <_stdio_fwrite+0x193>
    491a:	8b 4d 10             	mov    0x10(%ebp),%ecx
    491d:	66 81 09 00 20       	orw    $0x2000,(%ecx)
    4922:	83 7d 08 00          	cmpl   $0x0,0x8(%ebp)
    4926:	74 13                	je     493b <_stdio_fwrite+0x181>
    4928:	8b 55 f8             	mov    0xfffffff8(%ebp),%edx
    492b:	8b 45 08             	mov    0x8(%ebp),%eax
    492e:	29 d0                	sub    %edx,%eax
    4930:	89 45 e0             	mov    %eax,0xffffffe0(%ebp)
    4933:	8b 45 0c             	mov    0xc(%ebp),%eax
    4936:	01 45 e0             	add    %eax,0xffffffe0(%ebp)
    4939:	eb 07                	jmp    4942 <_stdio_fwrite+0x188>
    493b:	c7 45 e0 00 00 00 00 	movl   $0x0,0xffffffe0(%ebp)
    4942:	8b 55 e0             	mov    0xffffffe0(%ebp),%edx
    4945:	89 55 ec             	mov    %edx,0xffffffec(%ebp)
    4948:	e9 8b 01 00 00       	jmp    4ad8 <_stdio_fwrite+0x31e>
    494d:	83 ec 04             	sub    $0x4,%esp
    4950:	ff 75 f0             	pushl  0xfffffff0(%ebp)
    4953:	ff 75 e8             	pushl  0xffffffe8(%ebp)
    4956:	ff 75 10             	pushl  0x10(%ebp)
    4959:	e8 ee fd ff ff       	call   474c <fputs+0x48>
    495e:	83 c4 10             	add    $0x10,%esp
    4961:	89 45 f4             	mov    %eax,0xfffffff4(%ebp)
    4964:	8b 4d f4             	mov    0xfffffff4(%ebp),%ecx
    4967:	01 4d e8             	add    %ecx,0xffffffe8(%ebp)
    496a:	8b 55 f4             	mov    0xfffffff4(%ebp),%edx
    496d:	8d 45 f0             	lea    0xfffffff0(%ebp),%eax
    4970:	29 10                	sub    %edx,(%eax)
    4972:	8b 55 10             	mov    0x10(%ebp),%edx
    4975:	8b 42 0c             	mov    0xc(%edx),%eax
    4978:	8b 4d 10             	mov    0x10(%ebp),%ecx
    497b:	89 41 14             	mov    %eax,0x14(%ecx)
    497e:	83 7d f0 00          	cmpl   $0x0,0xfffffff0(%ebp)
    4982:	75 02                	jne    4986 <_stdio_fwrite+0x1cc>
    4984:	eb 1f                	jmp    49a5 <_stdio_fwrite+0x1eb>
    4986:	8b 55 10             	mov    0x10(%ebp),%edx
    4989:	8b 42 14             	mov    0x14(%edx),%eax
    498c:	89 c2                	mov    %eax,%edx
    498e:	8b 45 e8             	mov    0xffffffe8(%ebp),%eax
    4991:	8a 00                	mov    (%eax),%al
    4993:	88 02                	mov    %al,(%edx)
    4995:	ff 45 e8             	incl   0xffffffe8(%ebp)
    4998:	8b 4d 10             	mov    0x10(%ebp),%ecx
    499b:	ff 41 14             	incl   0x14(%ecx)
    499e:	8d 45 f0             	lea    0xfffffff0(%ebp),%eax
    49a1:	ff 08                	decl   (%eax)
    49a3:	eb d9                	jmp    497e <_stdio_fwrite+0x1c4>
    49a5:	83 7d 08 00          	cmpl   $0x0,0x8(%ebp)
    49a9:	75 18                	jne    49c3 <_stdio_fwrite+0x209>
    49ab:	8b 55 10             	mov    0x10(%ebp),%edx
    49ae:	8b 42 0c             	mov    0xc(%edx),%eax
    49b1:	8b 4d 10             	mov    0x10(%ebp),%ecx
    49b4:	8b 51 14             	mov    0x14(%ecx),%edx
    49b7:	29 c2                	sub    %eax,%edx
    49b9:	89 d0                	mov    %edx,%eax
    49bb:	89 45 ec             	mov    %eax,0xffffffec(%ebp)
    49be:	e9 15 01 00 00       	jmp    4ad8 <_stdio_fwrite+0x31e>
    49c3:	8b 55 10             	mov    0x10(%ebp),%edx
    49c6:	8b 42 14             	mov    0x14(%edx),%eax
    49c9:	8b 4d 10             	mov    0x10(%ebp),%ecx
    49cc:	3b 41 0c             	cmp    0xc(%ecx),%eax
    49cf:	75 48                	jne    4a19 <_stdio_fwrite+0x25f>
    49d1:	8b 55 10             	mov    0x10(%ebp),%edx
    49d4:	8b 42 0c             	mov    0xc(%edx),%eax
    49d7:	8b 4d 10             	mov    0x10(%ebp),%ecx
    49da:	8b 51 10             	mov    0x10(%ecx),%edx
    49dd:	29 c2                	sub    %eax,%edx
    49df:	89 d0                	mov    %edx,%eax
    49e1:	3b 45 0c             	cmp    0xc(%ebp),%eax
    49e4:	77 33                	ja     4a19 <_stdio_fwrite+0x25f>
    49e6:	8b 45 10             	mov    0x10(%ebp),%eax
    49e9:	83 78 04 fe          	cmpl   $0xfffffffe,0x4(%eax)
    49ed:	74 2a                	je     4a19 <_stdio_fwrite+0x25f>
    49ef:	83 ec 04             	sub    $0x4,%esp
    49f2:	ff 75 0c             	pushl  0xc(%ebp)
    49f5:	ff 75 08             	pushl  0x8(%ebp)
    49f8:	ff 75 10             	pushl  0x10(%ebp)
    49fb:	e8 4c fd ff ff       	call   474c <fputs+0x48>
    4a00:	83 c4 10             	add    $0x10,%esp
    4a03:	89 45 f0             	mov    %eax,0xfffffff0(%ebp)
    4a06:	8b 45 f0             	mov    0xfffffff0(%ebp),%eax
    4a09:	01 45 08             	add    %eax,0x8(%ebp)
    4a0c:	8b 55 f0             	mov    0xfffffff0(%ebp),%edx
    4a0f:	8d 45 0c             	lea    0xc(%ebp),%eax
    4a12:	29 10                	sub    %edx,(%eax)
    4a14:	e9 8f 00 00 00       	jmp    4aa8 <_stdio_fwrite+0x2ee>
    4a19:	8b 4d 10             	mov    0x10(%ebp),%ecx
    4a1c:	8b 51 14             	mov    0x14(%ecx),%edx
    4a1f:	8b 4d 10             	mov    0x10(%ebp),%ecx
    4a22:	8b 41 10             	mov    0x10(%ecx),%eax
    4a25:	29 d0                	sub    %edx,%eax
    4a27:	89 45 f0             	mov    %eax,0xfffffff0(%ebp)
    4a2a:	8b 45 08             	mov    0x8(%ebp),%eax
    4a2d:	89 45 e8             	mov    %eax,0xffffffe8(%ebp)
    4a30:	8b 45 f0             	mov    0xfffffff0(%ebp),%eax
    4a33:	3b 45 0c             	cmp    0xc(%ebp),%eax
    4a36:	76 06                	jbe    4a3e <_stdio_fwrite+0x284>
    4a38:	8b 45 0c             	mov    0xc(%ebp),%eax
    4a3b:	89 45 f0             	mov    %eax,0xfffffff0(%ebp)
    4a3e:	8b 55 f0             	mov    0xfffffff0(%ebp),%edx
    4a41:	8d 45 0c             	lea    0xc(%ebp),%eax
    4a44:	29 10                	sub    %edx,(%eax)
    4a46:	83 7d f0 00          	cmpl   $0x0,0xfffffff0(%ebp)
    4a4a:	75 02                	jne    4a4e <_stdio_fwrite+0x294>
    4a4c:	eb 1f                	jmp    4a6d <_stdio_fwrite+0x2b3>
    4a4e:	8b 55 10             	mov    0x10(%ebp),%edx
    4a51:	8b 42 14             	mov    0x14(%edx),%eax
    4a54:	89 c2                	mov    %eax,%edx
    4a56:	8b 45 08             	mov    0x8(%ebp),%eax
    4a59:	8a 00                	mov    (%eax),%al
    4a5b:	88 02                	mov    %al,(%edx)
    4a5d:	ff 45 08             	incl   0x8(%ebp)
    4a60:	8b 4d 10             	mov    0x10(%ebp),%ecx
    4a63:	ff 41 14             	incl   0x14(%ecx)
    4a66:	8d 45 f0             	lea    0xfffffff0(%ebp),%eax
    4a69:	ff 08                	decl   (%eax)
    4a6b:	eb d9                	jmp    4a46 <_stdio_fwrite+0x28c>
    4a6d:	83 7d f4 00          	cmpl   $0x0,0xfffffff4(%ebp)
    4a71:	74 35                	je     4aa8 <_stdio_fwrite+0x2ee>
    4a73:	83 7d 0c 00          	cmpl   $0x0,0xc(%ebp)
    4a77:	74 05                	je     4a7e <_stdio_fwrite+0x2c4>
    4a79:	e9 77 fe ff ff       	jmp    48f5 <_stdio_fwrite+0x13b>
    4a7e:	8b 55 10             	mov    0x10(%ebp),%edx
    4a81:	0f b7 02             	movzwl (%edx),%eax
    4a84:	25 00 01 00 00       	and    $0x100,%eax
    4a89:	85 c0                	test   %eax,%eax
    4a8b:	74 1b                	je     4aa8 <_stdio_fwrite+0x2ee>
    4a8d:	8b 4d e8             	mov    0xffffffe8(%ebp),%ecx
    4a90:	3b 4d 08             	cmp    0x8(%ebp),%ecx
    4a93:	72 02                	jb     4a97 <_stdio_fwrite+0x2dd>
    4a95:	eb 11                	jmp    4aa8 <_stdio_fwrite+0x2ee>
    4a97:	8b 55 e8             	mov    0xffffffe8(%ebp),%edx
    4a9a:	8a 02                	mov    (%edx),%al
    4a9c:	ff 45 e8             	incl   0xffffffe8(%ebp)
    4a9f:	3c 0a                	cmp    $0xa,%al
    4aa1:	75 ea                	jne    4a8d <_stdio_fwrite+0x2d3>
    4aa3:	e9 4d fe ff ff       	jmp    48f5 <_stdio_fwrite+0x13b>
    4aa8:	8b 4d 10             	mov    0x10(%ebp),%ecx
    4aab:	0f b7 01             	movzwl (%ecx),%eax
    4aae:	25 08 0b 00 00       	and    $0xb08,%eax
    4ab3:	85 c0                	test   %eax,%eax
    4ab5:	75 0c                	jne    4ac3 <_stdio_fwrite+0x309>
    4ab7:	8b 55 10             	mov    0x10(%ebp),%edx
    4aba:	8b 42 10             	mov    0x10(%edx),%eax
    4abd:	8b 4d 10             	mov    0x10(%ebp),%ecx
    4ac0:	89 41 20             	mov    %eax,0x20(%ecx)
    4ac3:	8b 45 10             	mov    0x10(%ebp),%eax
    4ac6:	66 81 08 00 20       	orw    $0x2000,(%eax)
    4acb:	8b 45 f8             	mov    0xfffffff8(%ebp),%eax
    4ace:	8b 55 08             	mov    0x8(%ebp),%edx
    4ad1:	29 c2                	sub    %eax,%edx
    4ad3:	89 d0                	mov    %edx,%eax
    4ad5:	89 45 ec             	mov    %eax,0xffffffec(%ebp)
    4ad8:	8b 45 ec             	mov    0xffffffec(%ebp),%eax
    4adb:	c9                   	leave  
    4adc:	c3                   	ret    
    4add:	90                   	nop    
    4ade:	90                   	nop    
    4adf:	90                   	nop    

00004ae0 <_stdio_lseek>:
    4ae0:	55                   	push   %ebp
    4ae1:	89 e5                	mov    %esp,%ebp
    4ae3:	83 ec 08             	sub    $0x8,%esp
    4ae6:	8b 45 08             	mov    0x8(%ebp),%eax
    4ae9:	83 ec 04             	sub    $0x4,%esp
    4aec:	ff 75 10             	pushl  0x10(%ebp)
    4aef:	8b 55 0c             	mov    0xc(%ebp),%edx
    4af2:	ff 32                	pushl  (%edx)
    4af4:	ff 70 04             	pushl  0x4(%eax)
    4af7:	e8 f4 0d 00 00       	call   58f0 <__libc_lseek>
    4afc:	83 c4 10             	add    $0x10,%esp
    4aff:	89 45 fc             	mov    %eax,0xfffffffc(%ebp)
    4b02:	83 7d fc 00          	cmpl   $0x0,0xfffffffc(%ebp)
    4b06:	78 11                	js     4b19 <_stdio_lseek+0x39>
    4b08:	8b 45 fc             	mov    0xfffffffc(%ebp),%eax
    4b0b:	8b 55 0c             	mov    0xc(%ebp),%edx
    4b0e:	89 02                	mov    %eax,(%edx)
    4b10:	c7 45 f8 00 00 00 00 	movl   $0x0,0xfffffff8(%ebp)
    4b17:	eb 07                	jmp    4b20 <_stdio_lseek+0x40>
    4b19:	c7 45 f8 ff ff ff ff 	movl   $0xffffffff,0xfffffff8(%ebp)
    4b20:	8b 45 f8             	mov    0xfffffff8(%ebp),%eax
    4b23:	c9                   	leave  
    4b24:	c3                   	ret    
    4b25:	90                   	nop    
    4b26:	90                   	nop    
    4b27:	90                   	nop    

00004b28 <_uintmaxtostr>:
    4b28:	55                   	push   %ebp
    4b29:	89 e5                	mov    %esp,%ebp
    4b2b:	53                   	push   %ebx
    4b2c:	83 ec 34             	sub    $0x34,%esp
    4b2f:	8b 45 0c             	mov    0xc(%ebp),%eax
    4b32:	8b 55 10             	mov    0x10(%ebp),%edx
    4b35:	89 45 f0             	mov    %eax,0xfffffff0(%ebp)
    4b38:	89 55 f4             	mov    %edx,0xfffffff4(%ebp)
    4b3b:	c7 45 ec 00 00 00 00 	movl   $0x0,0xffffffec(%ebp)
    4b42:	83 7d 14 00          	cmpl   $0x0,0x14(%ebp)
    4b46:	79 30                	jns    4b78 <_uintmaxtostr+0x50>
    4b48:	8d 45 14             	lea    0x14(%ebp),%eax
    4b4b:	f7 18                	negl   (%eax)
    4b4d:	81 7d f4 ff ff ff 7f 	cmpl   $0x7fffffff,0xfffffff4(%ebp)
    4b54:	72 22                	jb     4b78 <_uintmaxtostr+0x50>
    4b56:	81 7d f4 ff ff ff 7f 	cmpl   $0x7fffffff,0xfffffff4(%ebp)
    4b5d:	77 06                	ja     4b65 <_uintmaxtostr+0x3d>
    4b5f:	83 7d f0 ff          	cmpl   $0xffffffff,0xfffffff0(%ebp)
    4b63:	76 13                	jbe    4b78 <_uintmaxtostr+0x50>
    4b65:	8d 45 f0             	lea    0xfffffff0(%ebp),%eax
    4b68:	f7 18                	negl   (%eax)
    4b6a:	83 50 04 00          	adcl   $0x0,0x4(%eax)
    4b6e:	f7 58 04             	negl   0x4(%eax)
    4b71:	c7 45 ec 01 00 00 00 	movl   $0x1,0xffffffec(%ebp)
    4b78:	8b 45 08             	mov    0x8(%ebp),%eax
    4b7b:	c6 00 00             	movb   $0x0,(%eax)
    4b7e:	ba ff ff ff ff       	mov    $0xffffffff,%edx
    4b83:	8d 4d 14             	lea    0x14(%ebp),%ecx
    4b86:	89 4d cc             	mov    %ecx,0xffffffcc(%ebp)
    4b89:	89 d0                	mov    %edx,%eax
    4b8b:	8b 4d cc             	mov    0xffffffcc(%ebp),%ecx
    4b8e:	ba 00 00 00 00       	mov    $0x0,%edx
    4b93:	f7 31                	divl   (%ecx)
    4b95:	89 45 cc             	mov    %eax,0xffffffcc(%ebp)
    4b98:	8b 5d cc             	mov    0xffffffcc(%ebp),%ebx
    4b9b:	89 5d e4             	mov    %ebx,0xffffffe4(%ebp)
    4b9e:	ba ff ff ff ff       	mov    $0xffffffff,%edx
    4ba3:	8d 45 14             	lea    0x14(%ebp),%eax
    4ba6:	89 45 cc             	mov    %eax,0xffffffcc(%ebp)
    4ba9:	89 d0                	mov    %edx,%eax
    4bab:	8b 4d cc             	mov    0xffffffcc(%ebp),%ecx
    4bae:	ba 00 00 00 00       	mov    $0x0,%edx
    4bb3:	f7 31                	divl   (%ecx)
    4bb5:	8d 42 01             	lea    0x1(%edx),%eax
    4bb8:	89 45 e0             	mov    %eax,0xffffffe0(%ebp)
    4bbb:	8b 45 e0             	mov    0xffffffe0(%ebp),%eax
    4bbe:	3b 45 14             	cmp    0x14(%ebp),%eax
    4bc1:	75 0c                	jne    4bcf <_uintmaxtostr+0xa7>
    4bc3:	8d 45 e4             	lea    0xffffffe4(%ebp),%eax
    4bc6:	ff 00                	incl   (%eax)
    4bc8:	c7 45 e0 00 00 00 00 	movl   $0x0,0xffffffe0(%ebp)
    4bcf:	8b 45 f0             	mov    0xfffffff0(%ebp),%eax
    4bd2:	89 45 d8             	mov    %eax,0xffffffd8(%ebp)
    4bd5:	8b 45 f0             	mov    0xfffffff0(%ebp),%eax
    4bd8:	8b 55 f4             	mov    0xfffffff4(%ebp),%edx
    4bdb:	89 d0                	mov    %edx,%eax
    4bdd:	ba 00 00 00 00       	mov    $0x0,%edx
    4be2:	89 45 dc             	mov    %eax,0xffffffdc(%ebp)
    4be5:	83 7d dc 00          	cmpl   $0x0,0xffffffdc(%ebp)
    4be9:	0f 84 bb 00 00 00    	je     4caa <_uintmaxtostr+0x182>
    4bef:	8b 55 dc             	mov    0xffffffdc(%ebp),%edx
    4bf2:	8d 5d 14             	lea    0x14(%ebp),%ebx
    4bf5:	89 5d cc             	mov    %ebx,0xffffffcc(%ebp)
    4bf8:	89 d0                	mov    %edx,%eax
    4bfa:	8b 4d cc             	mov    0xffffffcc(%ebp),%ecx
    4bfd:	ba 00 00 00 00       	mov    $0x0,%edx
    4c02:	f7 31                	divl   (%ecx)
    4c04:	89 55 d4             	mov    %edx,0xffffffd4(%ebp)
    4c07:	8b 55 dc             	mov    0xffffffdc(%ebp),%edx
    4c0a:	8d 5d 14             	lea    0x14(%ebp),%ebx
    4c0d:	89 5d cc             	mov    %ebx,0xffffffcc(%ebp)
    4c10:	89 d0                	mov    %edx,%eax
    4c12:	8b 4d cc             	mov    0xffffffcc(%ebp),%ecx
    4c15:	ba 00 00 00 00       	mov    $0x0,%edx
    4c1a:	f7 31                	divl   (%ecx)
    4c1c:	89 45 cc             	mov    %eax,0xffffffcc(%ebp)
    4c1f:	8b 5d cc             	mov    0xffffffcc(%ebp),%ebx
    4c22:	89 5d dc             	mov    %ebx,0xffffffdc(%ebp)
    4c25:	8b 55 d8             	mov    0xffffffd8(%ebp),%edx
    4c28:	8d 45 14             	lea    0x14(%ebp),%eax
    4c2b:	89 45 cc             	mov    %eax,0xffffffcc(%ebp)
    4c2e:	89 d0                	mov    %edx,%eax
    4c30:	8b 4d cc             	mov    0xffffffcc(%ebp),%ecx
    4c33:	ba 00 00 00 00       	mov    $0x0,%edx
    4c38:	f7 31                	divl   (%ecx)
    4c3a:	8b 45 e0             	mov    0xffffffe0(%ebp),%eax
    4c3d:	0f af 45 d4          	imul   0xffffffd4(%ebp),%eax
    4c41:	8d 04 10             	lea    (%eax,%edx,1),%eax
    4c44:	89 45 e8             	mov    %eax,0xffffffe8(%ebp)
    4c47:	8b 5d d8             	mov    0xffffffd8(%ebp),%ebx
    4c4a:	89 5d c8             	mov    %ebx,0xffffffc8(%ebp)
    4c4d:	8d 45 14             	lea    0x14(%ebp),%eax
    4c50:	89 45 cc             	mov    %eax,0xffffffcc(%ebp)
    4c53:	8b 45 c8             	mov    0xffffffc8(%ebp),%eax
    4c56:	8b 4d cc             	mov    0xffffffcc(%ebp),%ecx
    4c59:	ba 00 00 00 00       	mov    $0x0,%edx
    4c5e:	f7 31                	divl   (%ecx)
    4c60:	89 45 c8             	mov    %eax,0xffffffc8(%ebp)
    4c63:	8b 45 e4             	mov    0xffffffe4(%ebp),%eax
    4c66:	0f af 45 d4          	imul   0xffffffd4(%ebp),%eax
    4c6a:	8b 4d c8             	mov    0xffffffc8(%ebp),%ecx
    4c6d:	01 c1                	add    %eax,%ecx
    4c6f:	8b 55 e8             	mov    0xffffffe8(%ebp),%edx
    4c72:	8d 5d 14             	lea    0x14(%ebp),%ebx
    4c75:	89 5d cc             	mov    %ebx,0xffffffcc(%ebp)
    4c78:	89 d0                	mov    %edx,%eax
    4c7a:	8b 5d cc             	mov    0xffffffcc(%ebp),%ebx
    4c7d:	ba 00 00 00 00       	mov    $0x0,%edx
    4c82:	f7 33                	divl   (%ebx)
    4c84:	89 45 cc             	mov    %eax,0xffffffcc(%ebp)
    4c87:	8b 55 cc             	mov    0xffffffcc(%ebp),%edx
    4c8a:	8d 04 0a             	lea    (%edx,%ecx,1),%eax
    4c8d:	89 45 d8             	mov    %eax,0xffffffd8(%ebp)
    4c90:	8b 55 e8             	mov    0xffffffe8(%ebp),%edx
    4c93:	8d 4d 14             	lea    0x14(%ebp),%ecx
    4c96:	89 4d cc             	mov    %ecx,0xffffffcc(%ebp)
    4c99:	89 d0                	mov    %edx,%eax
    4c9b:	8b 4d cc             	mov    0xffffffcc(%ebp),%ecx
    4c9e:	ba 00 00 00 00       	mov    $0x0,%edx
    4ca3:	f7 31                	divl   (%ecx)
    4ca5:	89 55 e8             	mov    %edx,0xffffffe8(%ebp)
    4ca8:	eb 36                	jmp    4ce0 <_uintmaxtostr+0x1b8>
    4caa:	8b 55 d8             	mov    0xffffffd8(%ebp),%edx
    4cad:	8d 5d 14             	lea    0x14(%ebp),%ebx
    4cb0:	89 5d cc             	mov    %ebx,0xffffffcc(%ebp)
    4cb3:	89 d0                	mov    %edx,%eax
    4cb5:	8b 4d cc             	mov    0xffffffcc(%ebp),%ecx
    4cb8:	ba 00 00 00 00       	mov    $0x0,%edx
    4cbd:	f7 31                	divl   (%ecx)
    4cbf:	89 55 e8             	mov    %edx,0xffffffe8(%ebp)
    4cc2:	8b 55 d8             	mov    0xffffffd8(%ebp),%edx
    4cc5:	8d 5d 14             	lea    0x14(%ebp),%ebx
    4cc8:	89 5d cc             	mov    %ebx,0xffffffcc(%ebp)
    4ccb:	89 d0                	mov    %edx,%eax
    4ccd:	8b 4d cc             	mov    0xffffffcc(%ebp),%ecx
    4cd0:	ba 00 00 00 00       	mov    $0x0,%edx
    4cd5:	f7 31                	divl   (%ecx)
    4cd7:	89 45 cc             	mov    %eax,0xffffffcc(%ebp)
    4cda:	8b 5d cc             	mov    0xffffffcc(%ebp),%ebx
    4cdd:	89 5d d8             	mov    %ebx,0xffffffd8(%ebp)
    4ce0:	ff 4d 08             	decl   0x8(%ebp)
    4ce3:	83 7d e8 09          	cmpl   $0x9,0xffffffe8(%ebp)
    4ce7:	77 0c                	ja     4cf5 <_uintmaxtostr+0x1cd>
    4ce9:	8a 45 e8             	mov    0xffffffe8(%ebp),%al
    4cec:	88 45 d3             	mov    %al,0xffffffd3(%ebp)
    4cef:	80 45 d3 30          	addb   $0x30,0xffffffd3(%ebp)
    4cf3:	eb 0c                	jmp    4d01 <_uintmaxtostr+0x1d9>
    4cf5:	8a 55 e8             	mov    0xffffffe8(%ebp),%dl
    4cf8:	88 55 d3             	mov    %dl,0xffffffd3(%ebp)
    4cfb:	8a 4d 18             	mov    0x18(%ebp),%cl
    4cfe:	00 4d d3             	add    %cl,0xffffffd3(%ebp)
    4d01:	8a 5d d3             	mov    0xffffffd3(%ebp),%bl
    4d04:	8b 45 08             	mov    0x8(%ebp),%eax
    4d07:	88 18                	mov    %bl,(%eax)
    4d09:	8b 45 dc             	mov    0xffffffdc(%ebp),%eax
    4d0c:	0b 45 d8             	or     0xffffffd8(%ebp),%eax
    4d0f:	85 c0                	test   %eax,%eax
    4d11:	0f 85 ce fe ff ff    	jne    4be5 <_uintmaxtostr+0xbd>
    4d17:	83 7d ec 00          	cmpl   $0x0,0xffffffec(%ebp)
    4d1b:	74 09                	je     4d26 <_uintmaxtostr+0x1fe>
    4d1d:	ff 4d 08             	decl   0x8(%ebp)
    4d20:	8b 55 08             	mov    0x8(%ebp),%edx
    4d23:	c6 02 2d             	movb   $0x2d,(%edx)
    4d26:	8b 45 08             	mov    0x8(%ebp),%eax
    4d29:	83 c4 34             	add    $0x34,%esp
    4d2c:	5b                   	pop    %ebx
    4d2d:	c9                   	leave  
    4d2e:	c3                   	ret    
    4d2f:	90                   	nop    

00004d30 <_store_inttype>:
    4d30:	55                   	push   %ebp
    4d31:	89 e5                	mov    %esp,%ebp
    4d33:	83 ec 08             	sub    $0x8,%esp
    4d36:	8b 45 10             	mov    0x10(%ebp),%eax
    4d39:	8b 55 14             	mov    0x14(%ebp),%edx
    4d3c:	89 45 f8             	mov    %eax,0xfffffff8(%ebp)
    4d3f:	89 55 fc             	mov    %edx,0xfffffffc(%ebp)
    4d42:	81 7d 0c 00 01 00 00 	cmpl   $0x100,0xc(%ebp)
    4d49:	75 0a                	jne    4d55 <_store_inttype+0x25>
    4d4b:	8a 45 f8             	mov    0xfffffff8(%ebp),%al
    4d4e:	8b 55 08             	mov    0x8(%ebp),%edx
    4d51:	88 02                	mov    %al,(%edx)
    4d53:	eb 35                	jmp    4d8a <_store_inttype+0x5a>
    4d55:	81 7d 0c 00 08 00 00 	cmpl   $0x800,0xc(%ebp)
    4d5c:	75 10                	jne    4d6e <_store_inttype+0x3e>
    4d5e:	8b 45 f8             	mov    0xfffffff8(%ebp),%eax
    4d61:	8b 55 fc             	mov    0xfffffffc(%ebp),%edx
    4d64:	8b 4d 08             	mov    0x8(%ebp),%ecx
    4d67:	89 01                	mov    %eax,(%ecx)
    4d69:	89 51 04             	mov    %edx,0x4(%ecx)
    4d6c:	eb 1c                	jmp    4d8a <_store_inttype+0x5a>
    4d6e:	81 7d 0c 00 02 00 00 	cmpl   $0x200,0xc(%ebp)
    4d75:	75 0b                	jne    4d82 <_store_inttype+0x52>
    4d77:	8b 45 f8             	mov    0xfffffff8(%ebp),%eax
    4d7a:	8b 55 08             	mov    0x8(%ebp),%edx
    4d7d:	66 89 02             	mov    %ax,(%edx)
    4d80:	eb 08                	jmp    4d8a <_store_inttype+0x5a>
    4d82:	8b 45 f8             	mov    0xfffffff8(%ebp),%eax
    4d85:	8b 4d 08             	mov    0x8(%ebp),%ecx
    4d88:	89 01                	mov    %eax,(%ecx)
    4d8a:	c9                   	leave  
    4d8b:	c3                   	ret    

00004d8c <_load_inttype>:
    4d8c:	55                   	push   %ebp
    4d8d:	89 e5                	mov    %esp,%ebp
    4d8f:	83 ec 10             	sub    $0x10,%esp
    4d92:	83 7d 10 00          	cmpl   $0x0,0x10(%ebp)
    4d96:	78 57                	js     4def <_load_inttype+0x63>
    4d98:	8b 45 08             	mov    0x8(%ebp),%eax
    4d9b:	25 00 08 00 00       	and    $0x800,%eax
    4da0:	85 c0                	test   %eax,%eax
    4da2:	74 13                	je     4db7 <_load_inttype+0x2b>
    4da4:	8b 4d 0c             	mov    0xc(%ebp),%ecx
    4da7:	8b 01                	mov    (%ecx),%eax
    4da9:	8b 51 04             	mov    0x4(%ecx),%edx
    4dac:	89 45 f0             	mov    %eax,0xfffffff0(%ebp)
    4daf:	89 55 f4             	mov    %edx,0xfffffff4(%ebp)
    4db2:	e9 86 00 00 00       	jmp    4e3d <_load_inttype+0xb1>
    4db7:	8b 55 0c             	mov    0xc(%ebp),%edx
    4dba:	8b 02                	mov    (%edx),%eax
    4dbc:	89 45 fc             	mov    %eax,0xfffffffc(%ebp)
    4dbf:	81 7d 08 00 01 00 00 	cmpl   $0x100,0x8(%ebp)
    4dc6:	75 07                	jne    4dcf <_load_inttype+0x43>
    4dc8:	0f b6 45 fc          	movzbl 0xfffffffc(%ebp),%eax
    4dcc:	89 45 fc             	mov    %eax,0xfffffffc(%ebp)
    4dcf:	81 7d 08 00 02 00 00 	cmpl   $0x200,0x8(%ebp)
    4dd6:	75 07                	jne    4ddf <_load_inttype+0x53>
    4dd8:	0f b7 45 fc          	movzwl 0xfffffffc(%ebp),%eax
    4ddc:	89 45 fc             	mov    %eax,0xfffffffc(%ebp)
    4ddf:	8b 45 fc             	mov    0xfffffffc(%ebp),%eax
    4de2:	ba 00 00 00 00       	mov    $0x0,%edx
    4de7:	89 45 f0             	mov    %eax,0xfffffff0(%ebp)
    4dea:	89 55 f4             	mov    %edx,0xfffffff4(%ebp)
    4ded:	eb 4e                	jmp    4e3d <_load_inttype+0xb1>
    4def:	8b 45 08             	mov    0x8(%ebp),%eax
    4df2:	25 00 08 00 00       	and    $0x800,%eax
    4df7:	85 c0                	test   %eax,%eax
    4df9:	74 10                	je     4e0b <_load_inttype+0x7f>
    4dfb:	8b 4d 0c             	mov    0xc(%ebp),%ecx
    4dfe:	8b 01                	mov    (%ecx),%eax
    4e00:	8b 51 04             	mov    0x4(%ecx),%edx
    4e03:	89 45 f0             	mov    %eax,0xfffffff0(%ebp)
    4e06:	89 55 f4             	mov    %edx,0xfffffff4(%ebp)
    4e09:	eb 32                	jmp    4e3d <_load_inttype+0xb1>
    4e0b:	8b 55 0c             	mov    0xc(%ebp),%edx
    4e0e:	8b 02                	mov    (%edx),%eax
    4e10:	89 45 fc             	mov    %eax,0xfffffffc(%ebp)
    4e13:	81 7d 08 00 01 00 00 	cmpl   $0x100,0x8(%ebp)
    4e1a:	75 07                	jne    4e23 <_load_inttype+0x97>
    4e1c:	0f be 45 fc          	movsbl 0xfffffffc(%ebp),%eax
    4e20:	89 45 fc             	mov    %eax,0xfffffffc(%ebp)
    4e23:	81 7d 08 00 02 00 00 	cmpl   $0x200,0x8(%ebp)
    4e2a:	75 07                	jne    4e33 <_load_inttype+0xa7>
    4e2c:	0f bf 45 fc          	movswl 0xfffffffc(%ebp),%eax
    4e30:	89 45 fc             	mov    %eax,0xfffffffc(%ebp)
    4e33:	8b 45 fc             	mov    0xfffffffc(%ebp),%eax
    4e36:	99                   	cltd   
    4e37:	89 45 f0             	mov    %eax,0xfffffff0(%ebp)
    4e3a:	89 55 f4             	mov    %edx,0xfffffff4(%ebp)
    4e3d:	8b 45 f0             	mov    0xfffffff0(%ebp),%eax
    4e40:	8b 55 f4             	mov    0xfffffff4(%ebp),%edx
    4e43:	c9                   	leave  
    4e44:	c3                   	ret    
    4e45:	90                   	nop    
    4e46:	90                   	nop    
    4e47:	90                   	nop    

00004e48 <_ppfs_init>:
    4e48:	55                   	push   %ebp
    4e49:	89 e5                	mov    %esp,%ebp
    4e4b:	83 ec 18             	sub    $0x18,%esp
    4e4e:	83 ec 04             	sub    $0x4,%esp
    4e51:	68 bc 00 00 00       	push   $0xbc
    4e56:	6a 00                	push   $0x0
    4e58:	ff 75 08             	pushl  0x8(%ebp)
    4e5b:	e8 c4 de ff ff       	call   2d24 <memset>
    4e60:	83 c4 10             	add    $0x10,%esp
    4e63:	8b 45 08             	mov    0x8(%ebp),%eax
    4e66:	ff 48 18             	decl   0x18(%eax)
    4e69:	8b 45 0c             	mov    0xc(%ebp),%eax
    4e6c:	8b 55 08             	mov    0x8(%ebp),%edx
    4e6f:	89 02                	mov    %eax,(%edx)
    4e71:	8b 45 08             	mov    0x8(%ebp),%eax
    4e74:	83 c0 28             	add    $0x28,%eax
    4e77:	89 45 f4             	mov    %eax,0xfffffff4(%ebp)
    4e7a:	c7 45 fc 09 00 00 00 	movl   $0x9,0xfffffffc(%ebp)
    4e81:	8b 45 f4             	mov    0xfffffff4(%ebp),%eax
    4e84:	c7 00 08 00 00 00    	movl   $0x8,(%eax)
    4e8a:	83 45 f4 04          	addl   $0x4,0xfffffff4(%ebp)
    4e8e:	8d 45 fc             	lea    0xfffffffc(%ebp),%eax
    4e91:	ff 08                	decl   (%eax)
    4e93:	83 7d fc 00          	cmpl   $0x0,0xfffffffc(%ebp)
    4e97:	75 e8                	jne    4e81 <_ppfs_init+0x39>
    4e99:	8b 55 0c             	mov    0xc(%ebp),%edx
    4e9c:	89 55 f0             	mov    %edx,0xfffffff0(%ebp)
    4e9f:	8b 45 f0             	mov    0xfffffff0(%ebp),%eax
    4ea2:	80 38 00             	cmpb   $0x0,(%eax)
    4ea5:	75 02                	jne    4ea9 <_ppfs_init+0x61>
    4ea7:	eb 4a                	jmp    4ef3 <_ppfs_init+0xab>
    4ea9:	8b 55 f0             	mov    0xfffffff0(%ebp),%edx
    4eac:	80 3a 25             	cmpb   $0x25,(%edx)
    4eaf:	75 3d                	jne    4eee <_ppfs_init+0xa6>
    4eb1:	ff 45 f0             	incl   0xfffffff0(%ebp)
    4eb4:	8b 45 f0             	mov    0xfffffff0(%ebp),%eax
    4eb7:	80 38 25             	cmpb   $0x25,(%eax)
    4eba:	74 32                	je     4eee <_ppfs_init+0xa6>
    4ebc:	8b 45 f0             	mov    0xfffffff0(%ebp),%eax
    4ebf:	8b 55 08             	mov    0x8(%ebp),%edx
    4ec2:	89 02                	mov    %eax,(%edx)
    4ec4:	83 ec 0c             	sub    $0xc,%esp
    4ec7:	ff 75 08             	pushl  0x8(%ebp)
    4eca:	e8 8f 03 00 00       	call   525e <_ppfs_parsespec>
    4ecf:	83 c4 10             	add    $0x10,%esp
    4ed2:	89 45 fc             	mov    %eax,0xfffffffc(%ebp)
    4ed5:	83 7d fc 00          	cmpl   $0x0,0xfffffffc(%ebp)
    4ed9:	79 09                	jns    4ee4 <_ppfs_init+0x9c>
    4edb:	c7 45 f8 ff ff ff ff 	movl   $0xffffffff,0xfffffff8(%ebp)
    4ee2:	eb 1e                	jmp    4f02 <_ppfs_init+0xba>
    4ee4:	8b 55 08             	mov    0x8(%ebp),%edx
    4ee7:	8b 12                	mov    (%edx),%edx
    4ee9:	89 55 f0             	mov    %edx,0xfffffff0(%ebp)
    4eec:	eb b1                	jmp    4e9f <_ppfs_init+0x57>
    4eee:	ff 45 f0             	incl   0xfffffff0(%ebp)
    4ef1:	eb ac                	jmp    4e9f <_ppfs_init+0x57>
    4ef3:	8b 45 0c             	mov    0xc(%ebp),%eax
    4ef6:	8b 55 08             	mov    0x8(%ebp),%edx
    4ef9:	89 02                	mov    %eax,(%edx)
    4efb:	c7 45 f8 00 00 00 00 	movl   $0x0,0xfffffff8(%ebp)
    4f02:	8b 45 f8             	mov    0xfffffff8(%ebp),%eax
    4f05:	c9                   	leave  
    4f06:	c3                   	ret    
    4f07:	90                   	nop    

00004f08 <_ppfs_prepargs>:
    4f08:	55                   	push   %ebp
    4f09:	89 e5                	mov    %esp,%ebp
    4f0b:	83 ec 08             	sub    $0x8,%esp
    4f0e:	8b 45 0c             	mov    0xc(%ebp),%eax
    4f11:	8b 55 08             	mov    0x8(%ebp),%edx
    4f14:	89 42 4c             	mov    %eax,0x4c(%edx)
    4f17:	8b 55 08             	mov    0x8(%ebp),%edx
    4f1a:	8b 42 18             	mov    0x18(%edx),%eax
    4f1d:	89 45 fc             	mov    %eax,0xfffffffc(%ebp)
    4f20:	85 c0                	test   %eax,%eax
    4f22:	7e 3e                	jle    4f62 <_ppfs_prepargs+0x5a>
    4f24:	8b 45 fc             	mov    0xfffffffc(%ebp),%eax
    4f27:	8b 55 08             	mov    0x8(%ebp),%edx
    4f2a:	89 42 1c             	mov    %eax,0x1c(%edx)
    4f2d:	8b 45 08             	mov    0x8(%ebp),%eax
    4f30:	c7 40 18 00 00 00 00 	movl   $0x0,0x18(%eax)
    4f37:	8b 55 08             	mov    0x8(%ebp),%edx
    4f3a:	c7 42 04 00 00 00 00 	movl   $0x0,0x4(%edx)
    4f41:	8b 45 08             	mov    0x8(%ebp),%eax
    4f44:	c7 40 08 00 00 00 00 	movl   $0x0,0x8(%eax)
    4f4b:	83 ec 0c             	sub    $0xc,%esp
    4f4e:	ff 75 08             	pushl  0x8(%ebp)
    4f51:	e8 0e 00 00 00       	call   4f64 <_ppfs_setargs>
    4f56:	83 c4 10             	add    $0x10,%esp
    4f59:	8b 45 fc             	mov    0xfffffffc(%ebp),%eax
    4f5c:	8b 55 08             	mov    0x8(%ebp),%edx
    4f5f:	89 42 18             	mov    %eax,0x18(%edx)
    4f62:	c9                   	leave  
    4f63:	c3                   	ret    

00004f64 <_ppfs_setargs>:
    4f64:	55                   	push   %ebp
    4f65:	89 e5                	mov    %esp,%ebp
    4f67:	53                   	push   %ebx
    4f68:	83 ec 0c             	sub    $0xc,%esp
    4f6b:	8b 45 08             	mov    0x8(%ebp),%eax
    4f6e:	83 c0 50             	add    $0x50,%eax
    4f71:	89 45 f4             	mov    %eax,0xfffffff4(%ebp)
    4f74:	8b 55 08             	mov    0x8(%ebp),%edx
    4f77:	83 7a 18 00          	cmpl   $0x0,0x18(%edx)
    4f7b:	0f 85 bc 01 00 00    	jne    513d <_ppfs_setargs+0x1d9>
    4f81:	8b 4d 08             	mov    0x8(%ebp),%ecx
    4f84:	81 79 08 00 00 00 80 	cmpl   $0x80000000,0x8(%ecx)
    4f8b:	75 1d                	jne    4faa <_ppfs_setargs+0x46>
    4f8d:	8b 5d 08             	mov    0x8(%ebp),%ebx
    4f90:	83 43 4c 04          	addl   $0x4,0x4c(%ebx)
    4f94:	8b 55 08             	mov    0x8(%ebp),%edx
    4f97:	8b 42 4c             	mov    0x4c(%edx),%eax
    4f9a:	83 e8 04             	sub    $0x4,%eax
    4f9d:	8b 00                	mov    (%eax),%eax
    4f9f:	8b 4d f4             	mov    0xfffffff4(%ebp),%ecx
    4fa2:	89 01                	mov    %eax,(%ecx)
    4fa4:	8b 5d 08             	mov    0x8(%ebp),%ebx
    4fa7:	89 43 08             	mov    %eax,0x8(%ebx)
    4faa:	8b 45 08             	mov    0x8(%ebp),%eax
    4fad:	81 78 04 00 00 00 80 	cmpl   $0x80000000,0x4(%eax)
    4fb4:	75 1d                	jne    4fd3 <_ppfs_setargs+0x6f>
    4fb6:	8b 55 08             	mov    0x8(%ebp),%edx
    4fb9:	83 42 4c 04          	addl   $0x4,0x4c(%edx)
    4fbd:	8b 4d 08             	mov    0x8(%ebp),%ecx
    4fc0:	8b 41 4c             	mov    0x4c(%ecx),%eax
    4fc3:	83 e8 04             	sub    $0x4,%eax
    4fc6:	8b 00                	mov    (%eax),%eax
    4fc8:	8b 5d f4             	mov    0xfffffff4(%ebp),%ebx
    4fcb:	89 03                	mov    %eax,(%ebx)
    4fcd:	8b 55 08             	mov    0x8(%ebp),%edx
    4fd0:	89 42 04             	mov    %eax,0x4(%edx)
    4fd3:	c7 45 f8 00 00 00 00 	movl   $0x0,0xfffffff8(%ebp)
    4fda:	8b 45 f8             	mov    0xfffffff8(%ebp),%eax
    4fdd:	8b 4d 08             	mov    0x8(%ebp),%ecx
    4fe0:	3b 41 1c             	cmp    0x1c(%ecx),%eax
    4fe3:	7c 05                	jl     4fea <_ppfs_setargs+0x86>
    4fe5:	e9 a7 01 00 00       	jmp    5191 <_ppfs_setargs+0x22d>
    4fea:	8b 45 f8             	mov    0xfffffff8(%ebp),%eax
    4fed:	89 c2                	mov    %eax,%edx
    4fef:	8d 45 f8             	lea    0xfffffff8(%ebp),%eax
    4ff2:	ff 00                	incl   (%eax)
    4ff4:	8b 5d 08             	mov    0x8(%ebp),%ebx
    4ff7:	8b 54 93 28          	mov    0x28(%ebx,%edx,4),%edx
    4ffb:	89 55 f0             	mov    %edx,0xfffffff0(%ebp)
    4ffe:	83 7d f0 07          	cmpl   $0x7,0xfffffff0(%ebp)
    5002:	0f 84 d1 00 00 00    	je     50d9 <_ppfs_setargs+0x175>
    5008:	83 7d f0 07          	cmpl   $0x7,0xfffffff0(%ebp)
    500c:	7f 21                	jg     502f <_ppfs_setargs+0xcb>
    500e:	83 7d f0 02          	cmpl   $0x2,0xfffffff0(%ebp)
    5012:	0f 84 a6 00 00 00    	je     50be <_ppfs_setargs+0x15a>
    5018:	83 7d f0 02          	cmpl   $0x2,0xfffffff0(%ebp)
    501c:	7f 0c                	jg     502a <_ppfs_setargs+0xc6>
    501e:	83 7d f0 00          	cmpl   $0x0,0xfffffff0(%ebp)
    5022:	0f 88 f5 00 00 00    	js     511d <_ppfs_setargs+0x1b9>
    5028:	eb 7b                	jmp    50a5 <_ppfs_setargs+0x141>
    502a:	e9 ee 00 00 00       	jmp    511d <_ppfs_setargs+0x1b9>
    502f:	81 7d f0 00 02 00 00 	cmpl   $0x200,0xfffffff0(%ebp)
    5036:	74 6d                	je     50a5 <_ppfs_setargs+0x141>
    5038:	81 7d f0 00 02 00 00 	cmpl   $0x200,0xfffffff0(%ebp)
    503f:	7f 14                	jg     5055 <_ppfs_setargs+0xf1>
    5041:	83 7d f0 08          	cmpl   $0x8,0xfffffff0(%ebp)
    5045:	74 93                	je     4fda <_ppfs_setargs+0x76>
    5047:	81 7d f0 00 01 00 00 	cmpl   $0x100,0xfffffff0(%ebp)
    504e:	74 55                	je     50a5 <_ppfs_setargs+0x141>
    5050:	e9 c8 00 00 00       	jmp    511d <_ppfs_setargs+0x1b9>
    5055:	81 7d f0 00 08 00 00 	cmpl   $0x800,0xfffffff0(%ebp)
    505c:	74 25                	je     5083 <_ppfs_setargs+0x11f>
    505e:	81 7d f0 00 08 00 00 	cmpl   $0x800,0xfffffff0(%ebp)
    5065:	7f 0e                	jg     5075 <_ppfs_setargs+0x111>
    5067:	81 7d f0 00 04 00 00 	cmpl   $0x400,0xfffffff0(%ebp)
    506e:	74 35                	je     50a5 <_ppfs_setargs+0x141>
    5070:	e9 a8 00 00 00       	jmp    511d <_ppfs_setargs+0x1b9>
    5075:	81 7d f0 07 08 00 00 	cmpl   $0x807,0xfffffff0(%ebp)
    507c:	74 7a                	je     50f8 <_ppfs_setargs+0x194>
    507e:	e9 9a 00 00 00       	jmp    511d <_ppfs_setargs+0x1b9>
    5083:	8b 45 08             	mov    0x8(%ebp),%eax
    5086:	83 40 4c 08          	addl   $0x8,0x4c(%eax)
    508a:	8b 55 08             	mov    0x8(%ebp),%edx
    508d:	8b 42 4c             	mov    0x4c(%edx),%eax
    5090:	83 e8 08             	sub    $0x8,%eax
    5093:	8b 50 04             	mov    0x4(%eax),%edx
    5096:	8b 00                	mov    (%eax),%eax
    5098:	8b 4d f4             	mov    0xfffffff4(%ebp),%ecx
    509b:	89 01                	mov    %eax,(%ecx)
    509d:	89 51 04             	mov    %edx,0x4(%ecx)
    50a0:	e9 8f 00 00 00       	jmp    5134 <_ppfs_setargs+0x1d0>
    50a5:	8b 5d 08             	mov    0x8(%ebp),%ebx
    50a8:	83 43 4c 04          	addl   $0x4,0x4c(%ebx)
    50ac:	8b 55 08             	mov    0x8(%ebp),%edx
    50af:	8b 42 4c             	mov    0x4c(%edx),%eax
    50b2:	83 e8 04             	sub    $0x4,%eax
    50b5:	8b 00                	mov    (%eax),%eax
    50b7:	8b 4d f4             	mov    0xfffffff4(%ebp),%ecx
    50ba:	89 01                	mov    %eax,(%ecx)
    50bc:	eb 76                	jmp    5134 <_ppfs_setargs+0x1d0>
    50be:	8b 5d 08             	mov    0x8(%ebp),%ebx
    50c1:	83 43 4c 04          	addl   $0x4,0x4c(%ebx)
    50c5:	8b 55 08             	mov    0x8(%ebp),%edx
    50c8:	8b 42 4c             	mov    0x4c(%edx),%eax
    50cb:	83 e8 04             	sub    $0x4,%eax
    50ce:	66 8b 00             	mov    (%eax),%ax
    50d1:	8b 4d f4             	mov    0xfffffff4(%ebp),%ecx
    50d4:	66 89 01             	mov    %ax,(%ecx)
    50d7:	eb 5b                	jmp    5134 <_ppfs_setargs+0x1d0>
    50d9:	8b 5d 08             	mov    0x8(%ebp),%ebx
    50dc:	83 43 4c 08          	addl   $0x8,0x4c(%ebx)
    50e0:	8b 55 08             	mov    0x8(%ebp),%edx
    50e3:	8b 42 4c             	mov    0x4c(%edx),%eax
    50e6:	83 e8 08             	sub    $0x8,%eax
    50e9:	8b 50 04             	mov    0x4(%eax),%edx
    50ec:	8b 00                	mov    (%eax),%eax
    50ee:	8b 4d f4             	mov    0xfffffff4(%ebp),%ecx
    50f1:	89 01                	mov    %eax,(%ecx)
    50f3:	89 51 04             	mov    %edx,0x4(%ecx)
    50f6:	eb 3c                	jmp    5134 <_ppfs_setargs+0x1d0>
    50f8:	8b 5d 08             	mov    0x8(%ebp),%ebx
    50fb:	83 43 4c 0c          	addl   $0xc,0x4c(%ebx)
    50ff:	8b 55 08             	mov    0x8(%ebp),%edx
    5102:	8b 42 4c             	mov    0x4c(%edx),%eax
    5105:	83 e8 0c             	sub    $0xc,%eax
    5108:	8b 48 08             	mov    0x8(%eax),%ecx
    510b:	8b 50 04             	mov    0x4(%eax),%edx
    510e:	8b 00                	mov    (%eax),%eax
    5110:	8b 5d f4             	mov    0xfffffff4(%ebp),%ebx
    5113:	89 03                	mov    %eax,(%ebx)
    5115:	89 53 04             	mov    %edx,0x4(%ebx)
    5118:	89 4b 08             	mov    %ecx,0x8(%ebx)
    511b:	eb 17                	jmp    5134 <_ppfs_setargs+0x1d0>
    511d:	8b 45 08             	mov    0x8(%ebp),%eax
    5120:	83 40 4c 04          	addl   $0x4,0x4c(%eax)
    5124:	8b 55 08             	mov    0x8(%ebp),%edx
    5127:	8b 42 4c             	mov    0x4c(%edx),%eax
    512a:	83 e8 04             	sub    $0x4,%eax
    512d:	8b 00                	mov    (%eax),%eax
    512f:	8b 4d f4             	mov    0xfffffff4(%ebp),%ecx
    5132:	89 01                	mov    %eax,(%ecx)
    5134:	83 45 f4 0c          	addl   $0xc,0xfffffff4(%ebp)
    5138:	e9 9d fe ff ff       	jmp    4fda <_ppfs_setargs+0x76>
    513d:	8b 5d 08             	mov    0x8(%ebp),%ebx
    5140:	81 7b 08 00 00 00 80 	cmpl   $0x80000000,0x8(%ebx)
    5147:	75 1e                	jne    5167 <_ppfs_setargs+0x203>
    5149:	8b 45 08             	mov    0x8(%ebp),%eax
    514c:	0f b6 50 24          	movzbl 0x24(%eax),%edx
    5150:	89 d0                	mov    %edx,%eax
    5152:	d1 e0                	shl    %eax
    5154:	01 d0                	add    %edx,%eax
    5156:	c1 e0 02             	shl    $0x2,%eax
    5159:	03 45 f4             	add    0xfffffff4(%ebp),%eax
    515c:	83 e8 0c             	sub    $0xc,%eax
    515f:	8b 00                	mov    (%eax),%eax
    5161:	8b 55 08             	mov    0x8(%ebp),%edx
    5164:	89 42 08             	mov    %eax,0x8(%edx)
    5167:	8b 4d 08             	mov    0x8(%ebp),%ecx
    516a:	81 79 04 00 00 00 80 	cmpl   $0x80000000,0x4(%ecx)
    5171:	75 1e                	jne    5191 <_ppfs_setargs+0x22d>
    5173:	8b 5d 08             	mov    0x8(%ebp),%ebx
    5176:	0f b6 53 25          	movzbl 0x25(%ebx),%edx
    517a:	89 d0                	mov    %edx,%eax
    517c:	d1 e0                	shl    %eax
    517e:	01 d0                	add    %edx,%eax
    5180:	c1 e0 02             	shl    $0x2,%eax
    5183:	03 45 f4             	add    0xfffffff4(%ebp),%eax
    5186:	83 e8 0c             	sub    $0xc,%eax
    5189:	8b 00                	mov    (%eax),%eax
    518b:	8b 55 08             	mov    0x8(%ebp),%edx
    518e:	89 42 04             	mov    %eax,0x4(%edx)
    5191:	8b 4d 08             	mov    0x8(%ebp),%ecx
    5194:	83 79 08 00          	cmpl   $0x0,0x8(%ecx)
    5198:	79 1e                	jns    51b8 <_ppfs_setargs+0x254>
    519a:	8b 5d 08             	mov    0x8(%ebp),%ebx
    519d:	f7 5b 08             	negl   0x8(%ebx)
    51a0:	8b 45 08             	mov    0x8(%ebp),%eax
    51a3:	83 48 10 08          	orl    $0x8,0x10(%eax)
    51a7:	8b 55 08             	mov    0x8(%ebp),%edx
    51aa:	83 62 10 fe          	andl   $0xfffffffe,0x10(%edx)
    51ae:	8b 4d 08             	mov    0x8(%ebp),%ecx
    51b1:	c7 41 14 20 00 00 00 	movl   $0x20,0x14(%ecx)
    51b8:	83 c4 0c             	add    $0xc,%esp
    51bb:	5b                   	pop    %ebx
    51bc:	c9                   	leave  
    51bd:	c3                   	ret    
    51be:	90                   	nop    
    51bf:	90                   	nop    
    51c0:	55                   	push   %ebp
    51c1:	89 e5                	mov    %esp,%ebp
    51c3:	83 ec 04             	sub    $0x4,%esp
    51c6:	c7 45 fc 18 6f 00 00 	movl   $0x6f18,0xfffffffc(%ebp)
    51cd:	83 6d fc 02          	subl   $0x2,0xfffffffc(%ebp)
    51d1:	8b 55 fc             	mov    0xfffffffc(%ebp),%edx
    51d4:	0f bf 02             	movswl (%edx),%eax
    51d7:	3b 45 08             	cmp    0x8(%ebp),%eax
    51da:	75 02                	jne    51de <_ppfs_setargs+0x27a>
    51dc:	eb 09                	jmp    51e7 <_ppfs_setargs+0x283>
    51de:	81 7d fc 00 6f 00 00 	cmpl   $0x6f00,0xfffffffc(%ebp)
    51e5:	77 e6                	ja     51cd <_ppfs_setargs+0x269>
    51e7:	8b 45 fc             	mov    0xfffffffc(%ebp),%eax
    51ea:	2d 00 6f 00 00       	sub    $0x6f00,%eax
    51ef:	d1 f8                	sar    %eax
    51f1:	0f b6 80 18 6f 00 00 	movzbl 0x6f18(%eax),%eax
    51f8:	c9                   	leave  
    51f9:	c3                   	ret    
    51fa:	55                   	push   %ebp
    51fb:	89 e5                	mov    %esp,%ebp
    51fd:	83 ec 08             	sub    $0x8,%esp
    5200:	83 7d 0c 08          	cmpl   $0x8,0xc(%ebp)
    5204:	75 09                	jne    520f <_ppfs_setargs+0x2ab>
    5206:	c7 45 fc 00 00 00 00 	movl   $0x0,0xfffffffc(%ebp)
    520d:	eb 4a                	jmp    5259 <_ppfs_setargs+0x2f5>
    520f:	83 7d 08 08          	cmpl   $0x8,0x8(%ebp)
    5213:	74 0a                	je     521f <_ppfs_setargs+0x2bb>
    5215:	8b 45 08             	mov    0x8(%ebp),%eax
    5218:	3b 45 0c             	cmp    0xc(%ebp),%eax
    521b:	74 02                	je     521f <_ppfs_setargs+0x2bb>
    521d:	eb 09                	jmp    5228 <_ppfs_setargs+0x2c4>
    521f:	c7 45 fc 01 00 00 00 	movl   $0x1,0xfffffffc(%ebp)
    5226:	eb 31                	jmp    5259 <_ppfs_setargs+0x2f5>
    5228:	83 ec 0c             	sub    $0xc,%esp
    522b:	ff 75 08             	pushl  0x8(%ebp)
    522e:	e8 8d ff ff ff       	call   51c0 <_ppfs_setargs+0x25c>
    5233:	83 c4 10             	add    $0x10,%esp
    5236:	89 45 f8             	mov    %eax,0xfffffff8(%ebp)
    5239:	83 ec 0c             	sub    $0xc,%esp
    523c:	ff 75 0c             	pushl  0xc(%ebp)
    523f:	e8 7c ff ff ff       	call   51c0 <_ppfs_setargs+0x25c>
    5244:	83 c4 10             	add    $0x10,%esp
    5247:	39 45 f8             	cmp    %eax,0xfffffff8(%ebp)
    524a:	0f 9e c0             	setle  %al
    524d:	0f b6 c0             	movzbl %al,%eax
    5250:	89 45 f8             	mov    %eax,0xfffffff8(%ebp)
    5253:	8b 45 f8             	mov    0xfffffff8(%ebp),%eax
    5256:	89 45 fc             	mov    %eax,0xfffffffc(%ebp)
    5259:	8b 45 fc             	mov    0xfffffffc(%ebp),%eax
    525c:	c9                   	leave  
    525d:	c3                   	ret    

0000525e <_ppfs_parsespec>:
    525e:	55                   	push   %ebp
    525f:	89 e5                	mov    %esp,%ebp
    5261:	83 ec 78             	sub    $0x78,%esp
    5264:	c7 45 f4 ff ff ff ff 	movl   $0xffffffff,0xfffffff4(%ebp)
    526b:	c7 45 a8 00 00 00 00 	movl   $0x0,0xffffffa8(%ebp)
    5272:	c7 45 ac 00 00 00 00 	movl   $0x0,0xffffffac(%ebp)
    5279:	c7 45 b8 08 00 00 00 	movl   $0x8,0xffffffb8(%ebp)
    5280:	c7 45 bc 08 00 00 00 	movl   $0x8,0xffffffbc(%ebp)
    5287:	8b 45 08             	mov    0x8(%ebp),%eax
    528a:	8b 40 18             	mov    0x18(%eax),%eax
    528d:	89 45 dc             	mov    %eax,0xffffffdc(%ebp)
    5290:	c7 45 e0 00 00 00 00 	movl   $0x0,0xffffffe0(%ebp)
    5297:	c7 45 ec 00 00 00 00 	movl   $0x0,0xffffffec(%ebp)
    529e:	c7 45 f0 00 00 00 00 	movl   $0x0,0xfffffff0(%ebp)
    52a5:	8b 45 08             	mov    0x8(%ebp),%eax
    52a8:	8b 00                	mov    (%eax),%eax
    52aa:	89 45 a0             	mov    %eax,0xffffffa0(%ebp)
    52ad:	8b 45 a0             	mov    0xffffffa0(%ebp),%eax
    52b0:	89 45 9c             	mov    %eax,0xffffff9c(%ebp)
    52b3:	8b 55 a0             	mov    0xffffffa0(%ebp),%edx
    52b6:	80 3a 2a             	cmpb   $0x2a,(%edx)
    52b9:	75 10                	jne    52cb <_ppfs_parsespec+0x6d>
    52bb:	8b 45 e0             	mov    0xffffffe0(%ebp),%eax
    52be:	f7 d8                	neg    %eax
    52c0:	c7 44 85 b8 00 00 00 	movl   $0x0,0xffffffb8(%ebp,%eax,4)
    52c7:	00 
    52c8:	ff 45 a0             	incl   0xffffffa0(%ebp)
    52cb:	c7 45 e4 00 00 00 00 	movl   $0x0,0xffffffe4(%ebp)
    52d2:	8b 4d a0             	mov    0xffffffa0(%ebp),%ecx
    52d5:	0f be 01             	movsbl (%ecx),%eax
    52d8:	8d 14 00             	lea    (%eax,%eax,1),%edx
    52db:	a1 c8 73 00 00       	mov    0x73c8,%eax
    52e0:	0f b7 04 10          	movzwl (%eax,%edx,1),%eax
    52e4:	83 e0 08             	and    $0x8,%eax
    52e7:	85 c0                	test   %eax,%eax
    52e9:	75 02                	jne    52ed <_ppfs_parsespec+0x8f>
    52eb:	eb 2a                	jmp    5317 <_ppfs_parsespec+0xb9>
    52ed:	81 7d e4 fe 0f 00 00 	cmpl   $0xffe,0xffffffe4(%ebp)
    52f4:	7f 1c                	jg     5312 <_ppfs_parsespec+0xb4>
    52f6:	8b 55 e4             	mov    0xffffffe4(%ebp),%edx
    52f9:	89 d0                	mov    %edx,%eax
    52fb:	c1 e0 02             	shl    $0x2,%eax
    52fe:	01 d0                	add    %edx,%eax
    5300:	8d 14 00             	lea    (%eax,%eax,1),%edx
    5303:	8b 4d a0             	mov    0xffffffa0(%ebp),%ecx
    5306:	0f be 01             	movsbl (%ecx),%eax
    5309:	8d 04 10             	lea    (%eax,%edx,1),%eax
    530c:	83 e8 30             	sub    $0x30,%eax
    530f:	89 45 e4             	mov    %eax,0xffffffe4(%ebp)
    5312:	ff 45 a0             	incl   0xffffffa0(%ebp)
    5315:	eb bb                	jmp    52d2 <_ppfs_parsespec+0x74>
    5317:	8b 45 9c             	mov    0xffffff9c(%ebp),%eax
    531a:	80 78 ff 25          	cmpb   $0x25,0xffffffff(%eax)
    531e:	0f 85 c7 00 00 00    	jne    53eb <_ppfs_parsespec+0x18d>
    5324:	8b 55 a0             	mov    0xffffffa0(%ebp),%edx
    5327:	80 3a 24             	cmpb   $0x24,(%edx)
    532a:	75 2e                	jne    535a <_ppfs_parsespec+0xfc>
    532c:	83 7d e4 00          	cmpl   $0x0,0xffffffe4(%ebp)
    5330:	7e 28                	jle    535a <_ppfs_parsespec+0xfc>
    5332:	ff 45 a0             	incl   0xffffffa0(%ebp)
    5335:	83 7d dc 00          	cmpl   $0x0,0xffffffdc(%ebp)
    5339:	75 0c                	jne    5347 <_ppfs_parsespec+0xe9>
    533b:	c7 45 a4 ff ff ff ff 	movl   $0xffffffff,0xffffffa4(%ebp)
    5342:	e9 a3 03 00 00       	jmp    56ea <_ppfs_parsespec+0x48c>
    5347:	8b 45 e4             	mov    0xffffffe4(%ebp),%eax
    534a:	89 45 b0             	mov    %eax,0xffffffb0(%ebp)
    534d:	3b 45 dc             	cmp    0xffffffdc(%ebp),%eax
    5350:	7e 39                	jle    538b <_ppfs_parsespec+0x12d>
    5352:	8b 45 e4             	mov    0xffffffe4(%ebp),%eax
    5355:	89 45 dc             	mov    %eax,0xffffffdc(%ebp)
    5358:	eb 31                	jmp    538b <_ppfs_parsespec+0x12d>
    535a:	83 7d dc 00          	cmpl   $0x0,0xffffffdc(%ebp)
    535e:	7e 0c                	jle    536c <_ppfs_parsespec+0x10e>
    5360:	c7 45 a4 ff ff ff ff 	movl   $0xffffffff,0xffffffa4(%ebp)
    5367:	e9 7e 03 00 00       	jmp    56ea <_ppfs_parsespec+0x48c>
    536c:	c7 45 dc 00 00 00 00 	movl   $0x0,0xffffffdc(%ebp)
    5373:	8b 4d 9c             	mov    0xffffff9c(%ebp),%ecx
    5376:	39 4d a0             	cmp    %ecx,0xffffffa0(%ebp)
    5379:	76 0a                	jbe    5385 <_ppfs_parsespec+0x127>
    537b:	8b 45 9c             	mov    0xffffff9c(%ebp),%eax
    537e:	80 38 30             	cmpb   $0x30,(%eax)
    5381:	74 02                	je     5385 <_ppfs_parsespec+0x127>
    5383:	eb 66                	jmp    53eb <_ppfs_parsespec+0x18d>
    5385:	8b 55 9c             	mov    0xffffff9c(%ebp),%edx
    5388:	89 55 a0             	mov    %edx,0xffffffa0(%ebp)
    538b:	c7 45 e4 01 00 00 00 	movl   $0x1,0xffffffe4(%ebp)
    5392:	c7 45 9c 24 6f 00 00 	movl   $0x6f24,0xffffff9c(%ebp)
    5399:	8b 4d 9c             	mov    0xffffff9c(%ebp),%ecx
    539c:	8a 01                	mov    (%ecx),%al
    539e:	ff 45 9c             	incl   0xffffff9c(%ebp)
    53a1:	8b 55 a0             	mov    0xffffffa0(%ebp),%edx
    53a4:	38 02                	cmp    %al,(%edx)
    53a6:	75 0d                	jne    53b5 <_ppfs_parsespec+0x157>
    53a8:	ff 45 a0             	incl   0xffffffa0(%ebp)
    53ab:	8b 55 e4             	mov    0xffffffe4(%ebp),%edx
    53ae:	8d 45 ec             	lea    0xffffffec(%ebp),%eax
    53b1:	09 10                	or     %edx,(%eax)
    53b3:	eb d6                	jmp    538b <_ppfs_parsespec+0x12d>
    53b5:	8b 55 e4             	mov    0xffffffe4(%ebp),%edx
    53b8:	8d 45 e4             	lea    0xffffffe4(%ebp),%eax
    53bb:	01 10                	add    %edx,(%eax)
    53bd:	8b 4d 9c             	mov    0xffffff9c(%ebp),%ecx
    53c0:	80 39 00             	cmpb   $0x0,(%ecx)
    53c3:	75 d4                	jne    5399 <_ppfs_parsespec+0x13b>
    53c5:	c7 45 e4 00 00 00 00 	movl   $0x0,0xffffffe4(%ebp)
    53cc:	8b 45 ec             	mov    0xffffffec(%ebp),%eax
    53cf:	83 e0 0a             	and    $0xa,%eax
    53d2:	d1 f8                	sar    %eax
    53d4:	89 c2                	mov    %eax,%edx
    53d6:	f7 d2                	not    %edx
    53d8:	8d 45 ec             	lea    0xffffffec(%ebp),%eax
    53db:	21 10                	and    %edx,(%eax)
    53dd:	8b 45 a0             	mov    0xffffffa0(%ebp),%eax
    53e0:	80 78 ff 25          	cmpb   $0x25,0xffffffff(%eax)
    53e4:	74 05                	je     53eb <_ppfs_parsespec+0x18d>
    53e6:	e9 c2 fe ff ff       	jmp    52ad <_ppfs_parsespec+0x4f>
    53eb:	8b 55 9c             	mov    0xffffff9c(%ebp),%edx
    53ee:	80 3a 2a             	cmpb   $0x2a,(%edx)
    53f1:	75 54                	jne    5447 <_ppfs_parsespec+0x1e9>
    53f3:	83 7d dc 00          	cmpl   $0x0,0xffffffdc(%ebp)
    53f7:	74 30                	je     5429 <_ppfs_parsespec+0x1cb>
    53f9:	8b 4d a0             	mov    0xffffffa0(%ebp),%ecx
    53fc:	8a 01                	mov    (%ecx),%al
    53fe:	ff 45 a0             	incl   0xffffffa0(%ebp)
    5401:	3c 24                	cmp    $0x24,%al
    5403:	75 08                	jne    540d <_ppfs_parsespec+0x1af>
    5405:	83 7d e4 00          	cmpl   $0x0,0xffffffe4(%ebp)
    5409:	7e 02                	jle    540d <_ppfs_parsespec+0x1af>
    540b:	eb 0c                	jmp    5419 <_ppfs_parsespec+0x1bb>
    540d:	c7 45 a4 ff ff ff ff 	movl   $0xffffffff,0xffffffa4(%ebp)
    5414:	e9 d1 02 00 00       	jmp    56ea <_ppfs_parsespec+0x48c>
    5419:	8b 45 e0             	mov    0xffffffe0(%ebp),%eax
    541c:	89 c2                	mov    %eax,%edx
    541e:	f7 da                	neg    %edx
    5420:	8b 45 e4             	mov    0xffffffe4(%ebp),%eax
    5423:	89 44 95 a8          	mov    %eax,0xffffffa8(%ebp,%edx,4)
    5427:	eb 17                	jmp    5440 <_ppfs_parsespec+0x1e2>
    5429:	ff 45 9c             	incl   0xffffff9c(%ebp)
    542c:	8b 45 a0             	mov    0xffffffa0(%ebp),%eax
    542f:	39 45 9c             	cmp    %eax,0xffffff9c(%ebp)
    5432:	74 0c                	je     5440 <_ppfs_parsespec+0x1e2>
    5434:	c7 45 a4 ff ff ff ff 	movl   $0xffffffff,0xffffffa4(%ebp)
    543b:	e9 aa 02 00 00       	jmp    56ea <_ppfs_parsespec+0x48c>
    5440:	c7 45 e4 00 00 00 80 	movl   $0x80000000,0xffffffe4(%ebp)
    5447:	83 7d e0 00          	cmpl   $0x0,0xffffffe0(%ebp)
    544b:	75 1d                	jne    546a <_ppfs_parsespec+0x20c>
    544d:	8b 45 e4             	mov    0xffffffe4(%ebp),%eax
    5450:	89 45 f0             	mov    %eax,0xfffffff0(%ebp)
    5453:	8b 55 a0             	mov    0xffffffa0(%ebp),%edx
    5456:	80 3a 2e             	cmpb   $0x2e,(%edx)
    5459:	75 15                	jne    5470 <_ppfs_parsespec+0x212>
    545b:	ff 45 a0             	incl   0xffffffa0(%ebp)
    545e:	c7 45 e0 ff ff ff ff 	movl   $0xffffffff,0xffffffe0(%ebp)
    5465:	e9 43 fe ff ff       	jmp    52ad <_ppfs_parsespec+0x4f>
    546a:	8b 45 e4             	mov    0xffffffe4(%ebp),%eax
    546d:	89 45 f4             	mov    %eax,0xfffffff4(%ebp)
    5470:	c7 45 9c 6a 6f 00 00 	movl   $0x6f6a,0xffffff9c(%ebp)
    5477:	8b 4d a0             	mov    0xffffffa0(%ebp),%ecx
    547a:	8a 01                	mov    (%ecx),%al
    547c:	8b 55 9c             	mov    0xffffff9c(%ebp),%edx
    547f:	3a 02                	cmp    (%edx),%al
    5481:	75 05                	jne    5488 <_ppfs_parsespec+0x22a>
    5483:	ff 45 a0             	incl   0xffffffa0(%ebp)
    5486:	eb 0b                	jmp    5493 <_ppfs_parsespec+0x235>
    5488:	ff 45 9c             	incl   0xffffff9c(%ebp)
    548b:	8b 4d 9c             	mov    0xffffff9c(%ebp),%ecx
    548e:	80 39 00             	cmpb   $0x0,(%ecx)
    5491:	75 e4                	jne    5477 <_ppfs_parsespec+0x219>
    5493:	8b 45 9c             	mov    0xffffff9c(%ebp),%eax
    5496:	2d 6a 6f 00 00       	sub    $0x6f6a,%eax
    549b:	83 f8 01             	cmp    $0x1,%eax
    549e:	7f 13                	jg     54b3 <_ppfs_parsespec+0x255>
    54a0:	8b 55 a0             	mov    0xffffffa0(%ebp),%edx
    54a3:	8a 02                	mov    (%edx),%al
    54a5:	8b 4d 9c             	mov    0xffffff9c(%ebp),%ecx
    54a8:	3a 01                	cmp    (%ecx),%al
    54aa:	75 07                	jne    54b3 <_ppfs_parsespec+0x255>
    54ac:	83 45 9c 09          	addl   $0x9,0xffffff9c(%ebp)
    54b0:	ff 45 a0             	incl   0xffffffa0(%ebp)
    54b3:	8b 55 9c             	mov    0xffffff9c(%ebp),%edx
    54b6:	0f be 42 09          	movsbl 0x9(%edx),%eax
    54ba:	c1 e0 08             	shl    $0x8,%eax
    54bd:	89 45 e8             	mov    %eax,0xffffffe8(%ebp)
    54c0:	8b 4d a0             	mov    0xffffffa0(%ebp),%ecx
    54c3:	80 39 00             	cmpb   $0x0,(%ecx)
    54c6:	75 0c                	jne    54d4 <_ppfs_parsespec+0x276>
    54c8:	c7 45 a4 ff ff ff ff 	movl   $0xffffffff,0xffffffa4(%ebp)
    54cf:	e9 16 02 00 00       	jmp    56ea <_ppfs_parsespec+0x48c>
    54d4:	c7 45 9c 2c 6f 00 00 	movl   $0x6f2c,0xffffff9c(%ebp)
    54db:	8b 55 a0             	mov    0xffffffa0(%ebp),%edx
    54de:	8a 02                	mov    (%edx),%al
    54e0:	8b 4d 9c             	mov    0xffffff9c(%ebp),%ecx
    54e3:	3a 01                	cmp    (%ecx),%al
    54e5:	75 77                	jne    555e <_ppfs_parsespec+0x300>
    54e7:	8b 45 9c             	mov    0xffffff9c(%ebp),%eax
    54ea:	2d 2c 6f 00 00       	sub    $0x6f2c,%eax
    54ef:	89 45 d8             	mov    %eax,0xffffffd8(%ebp)
    54f2:	83 7d d8 11          	cmpl   $0x11,0xffffffd8(%ebp)
    54f6:	7e 12                	jle    550a <_ppfs_parsespec+0x2ac>
    54f8:	8b 45 e8             	mov    0xffffffe8(%ebp),%eax
    54fb:	25 00 04 00 00       	and    $0x400,%eax
    5500:	85 c0                	test   %eax,%eax
    5502:	74 06                	je     550a <_ppfs_parsespec+0x2ac>
    5504:	8d 45 d8             	lea    0xffffffd8(%ebp),%eax
    5507:	83 28 02             	subl   $0x2,(%eax)
    550a:	8b 45 08             	mov    0x8(%ebp),%eax
    550d:	8b 55 d8             	mov    0xffffffd8(%ebp),%edx
    5510:	89 50 20             	mov    %edx,0x20(%eax)
    5513:	b8 41 6f 00 00       	mov    $0x6f41,%eax
    5518:	48                   	dec    %eax
    5519:	89 45 9c             	mov    %eax,0xffffff9c(%ebp)
    551c:	ff 45 9c             	incl   0xffffff9c(%ebp)
    551f:	8b 55 9c             	mov    0xffffff9c(%ebp),%edx
    5522:	0f be 02             	movsbl (%edx),%eax
    5525:	39 45 d8             	cmp    %eax,0xffffffd8(%ebp)
    5528:	7f f2                	jg     551c <_ppfs_parsespec+0x2be>
    552a:	8b 45 9c             	mov    0xffffff9c(%ebp),%eax
    552d:	2d 41 6f 00 00       	sub    $0x6f41,%eax
    5532:	89 45 e4             	mov    %eax,0xffffffe4(%ebp)
    5535:	8b 45 e4             	mov    0xffffffe4(%ebp),%eax
    5538:	0f bf 84 00 4a 6f 00 	movswl 0x6f4a(%eax,%eax,1),%eax
    553f:	00 
    5540:	89 c2                	mov    %eax,%edx
    5542:	0b 55 e8             	or     0xffffffe8(%ebp),%edx
    5545:	8b 45 e4             	mov    0xffffffe4(%ebp),%eax
    5548:	0f bf 84 00 5a 6f 00 	movswl 0x6f5a(%eax,%eax,1),%eax
    554f:	00 
    5550:	21 d0                	and    %edx,%eax
    5552:	89 45 c0             	mov    %eax,0xffffffc0(%ebp)
    5555:	c7 45 9c 2c 6f 00 00 	movl   $0x6f2c,0xffffff9c(%ebp)
    555c:	eb 0f                	jmp    556d <_ppfs_parsespec+0x30f>
    555e:	ff 45 9c             	incl   0xffffff9c(%ebp)
    5561:	8b 4d 9c             	mov    0xffffff9c(%ebp),%ecx
    5564:	80 39 00             	cmpb   $0x0,(%ecx)
    5567:	0f 85 6e ff ff ff    	jne    54db <_ppfs_parsespec+0x27d>
    556d:	8b 55 08             	mov    0x8(%ebp),%edx
    5570:	8b 4d a0             	mov    0xffffffa0(%ebp),%ecx
    5573:	0f be 01             	movsbl (%ecx),%eax
    5576:	89 42 0c             	mov    %eax,0xc(%edx)
    5579:	8b 55 08             	mov    0x8(%ebp),%edx
    557c:	8b 45 f4             	mov    0xfffffff4(%ebp),%eax
    557f:	89 42 04             	mov    %eax,0x4(%edx)
    5582:	8b 55 08             	mov    0x8(%ebp),%edx
    5585:	8b 45 f0             	mov    0xfffffff0(%ebp),%eax
    5588:	89 42 08             	mov    %eax,0x8(%edx)
    558b:	8b 45 08             	mov    0x8(%ebp),%eax
    558e:	89 45 98             	mov    %eax,0xffffff98(%ebp)
    5591:	8b 45 ec             	mov    0xffffffec(%ebp),%eax
    5594:	83 e0 04             	and    $0x4,%eax
    5597:	85 c0                	test   %eax,%eax
    5599:	74 09                	je     55a4 <_ppfs_parsespec+0x346>
    559b:	c7 45 94 30 00 00 00 	movl   $0x30,0xffffff94(%ebp)
    55a2:	eb 07                	jmp    55ab <_ppfs_parsespec+0x34d>
    55a4:	c7 45 94 20 00 00 00 	movl   $0x20,0xffffff94(%ebp)
    55ab:	8b 4d 94             	mov    0xffffff94(%ebp),%ecx
    55ae:	8b 55 98             	mov    0xffffff98(%ebp),%edx
    55b1:	89 4a 14             	mov    %ecx,0x14(%edx)
    55b4:	8b 4d 08             	mov    0x8(%ebp),%ecx
    55b7:	8b 55 ec             	mov    0xffffffec(%ebp),%edx
    55ba:	83 e2 fb             	and    $0xfffffffb,%edx
    55bd:	8b 45 e8             	mov    0xffffffe8(%ebp),%eax
    55c0:	25 00 0f 00 00       	and    $0xf00,%eax
    55c5:	09 d0                	or     %edx,%eax
    55c7:	89 41 10             	mov    %eax,0x10(%ecx)
    55ca:	8b 45 08             	mov    0x8(%ebp),%eax
    55cd:	c7 40 1c 01 00 00 00 	movl   $0x1,0x1c(%eax)
    55d4:	8b 45 9c             	mov    0xffffff9c(%ebp),%eax
    55d7:	80 38 00             	cmpb   $0x0,(%eax)
    55da:	75 0c                	jne    55e8 <_ppfs_parsespec+0x38a>
    55dc:	c7 45 a4 ff ff ff ff 	movl   $0xffffffff,0xffffffa4(%ebp)
    55e3:	e9 02 01 00 00       	jmp    56ea <_ppfs_parsespec+0x48c>
    55e8:	83 7d dc 00          	cmpl   $0x0,0xffffffdc(%ebp)
    55ec:	0f 8e ae 00 00 00    	jle    56a0 <_ppfs_parsespec+0x442>
    55f2:	c7 45 e4 00 00 00 00 	movl   $0x0,0xffffffe4(%ebp)
    55f9:	83 7d e4 02          	cmpl   $0x2,0xffffffe4(%ebp)
    55fd:	7f 1e                	jg     561d <_ppfs_parsespec+0x3bf>
    55ff:	8b 45 08             	mov    0x8(%ebp),%eax
    5602:	03 45 e4             	add    0xffffffe4(%ebp),%eax
    5605:	8d 50 20             	lea    0x20(%eax),%edx
    5608:	8b 45 e4             	mov    0xffffffe4(%ebp),%eax
    560b:	8a 44 85 a8          	mov    0xffffffa8(%ebp,%eax,4),%al
    560f:	88 42 04             	mov    %al,0x4(%edx)
    5612:	8a 42 04             	mov    0x4(%edx),%al
    5615:	0f b6 c0             	movzbl %al,%eax
    5618:	89 45 90             	mov    %eax,0xffffff90(%ebp)
    561b:	eb 0f                	jmp    562c <_ppfs_parsespec+0x3ce>
    561d:	8b 45 e4             	mov    0xffffffe4(%ebp),%eax
    5620:	8b 55 b0             	mov    0xffffffb0(%ebp),%edx
    5623:	01 c2                	add    %eax,%edx
    5625:	89 55 90             	mov    %edx,0xffffff90(%ebp)
    5628:	83 6d 90 02          	subl   $0x2,0xffffff90(%ebp)
    562c:	8b 4d 90             	mov    0xffffff90(%ebp),%ecx
    562f:	89 4d d4             	mov    %ecx,0xffffffd4(%ebp)
    5632:	8b 45 d4             	mov    0xffffffd4(%ebp),%eax
    5635:	3b 45 dc             	cmp    0xffffffdc(%ebp),%eax
    5638:	7e 17                	jle    5651 <_ppfs_parsespec+0x3f3>
    563a:	8b 45 d4             	mov    0xffffffd4(%ebp),%eax
    563d:	89 45 dc             	mov    %eax,0xffffffdc(%ebp)
    5640:	83 f8 09             	cmp    $0x9,%eax
    5643:	7e 0c                	jle    5651 <_ppfs_parsespec+0x3f3>
    5645:	c7 45 a4 ff ff ff ff 	movl   $0xffffffff,0xffffffa4(%ebp)
    564c:	e9 99 00 00 00       	jmp    56ea <_ppfs_parsespec+0x48c>
    5651:	8d 45 d4             	lea    0xffffffd4(%ebp),%eax
    5654:	ff 08                	decl   (%eax)
    5656:	83 ec 08             	sub    $0x8,%esp
    5659:	8b 45 e4             	mov    0xffffffe4(%ebp),%eax
    565c:	ff 74 85 b8          	pushl  0xffffffb8(%ebp,%eax,4)
    5660:	8b 55 08             	mov    0x8(%ebp),%edx
    5663:	8b 45 d4             	mov    0xffffffd4(%ebp),%eax
    5666:	ff 74 82 28          	pushl  0x28(%edx,%eax,4)
    566a:	e8 8b fb ff ff       	call   51fa <_ppfs_setargs+0x296>
    566f:	83 c4 10             	add    $0x10,%esp
    5672:	85 c0                	test   %eax,%eax
    5674:	74 11                	je     5687 <_ppfs_parsespec+0x429>
    5676:	8b 4d 08             	mov    0x8(%ebp),%ecx
    5679:	8b 55 d4             	mov    0xffffffd4(%ebp),%edx
    567c:	8b 45 e4             	mov    0xffffffe4(%ebp),%eax
    567f:	8b 44 85 b8          	mov    0xffffffb8(%ebp,%eax,4),%eax
    5683:	89 44 91 28          	mov    %eax,0x28(%ecx,%edx,4)
    5687:	8d 45 e4             	lea    0xffffffe4(%ebp),%eax
    568a:	ff 00                	incl   (%eax)
    568c:	8b 45 08             	mov    0x8(%ebp),%eax
    568f:	8b 40 1c             	mov    0x1c(%eax),%eax
    5692:	83 c0 02             	add    $0x2,%eax
    5695:	39 45 e4             	cmp    %eax,0xffffffe4(%ebp)
    5698:	0f 8c 5b ff ff ff    	jl     55f9 <_ppfs_parsespec+0x39b>
    569e:	eb 2a                	jmp    56ca <_ppfs_parsespec+0x46c>
    56a0:	8b 45 08             	mov    0x8(%ebp),%eax
    56a3:	c6 40 26 01          	movb   $0x1,0x26(%eax)
    56a7:	83 ec 04             	sub    $0x4,%esp
    56aa:	8b 45 08             	mov    0x8(%ebp),%eax
    56ad:	8b 40 1c             	mov    0x1c(%eax),%eax
    56b0:	c1 e0 02             	shl    $0x2,%eax
    56b3:	50                   	push   %eax
    56b4:	8d 45 b8             	lea    0xffffffb8(%ebp),%eax
    56b7:	83 c0 08             	add    $0x8,%eax
    56ba:	50                   	push   %eax
    56bb:	8b 45 08             	mov    0x8(%ebp),%eax
    56be:	83 c0 28             	add    $0x28,%eax
    56c1:	50                   	push   %eax
    56c2:	e8 29 00 00 00       	call   56f0 <memcpy>
    56c7:	83 c4 10             	add    $0x10,%esp
    56ca:	8b 55 08             	mov    0x8(%ebp),%edx
    56cd:	8b 45 dc             	mov    0xffffffdc(%ebp),%eax
    56d0:	89 42 18             	mov    %eax,0x18(%edx)
    56d3:	8b 45 08             	mov    0x8(%ebp),%eax
    56d6:	ff 45 a0             	incl   0xffffffa0(%ebp)
    56d9:	8b 55 a0             	mov    0xffffffa0(%ebp),%edx
    56dc:	89 10                	mov    %edx,(%eax)
    56de:	8b 45 08             	mov    0x8(%ebp),%eax
    56e1:	8b 40 1c             	mov    0x1c(%eax),%eax
    56e4:	83 c0 02             	add    $0x2,%eax
    56e7:	89 45 a4             	mov    %eax,0xffffffa4(%ebp)
    56ea:	8b 45 a4             	mov    0xffffffa4(%ebp),%eax
    56ed:	c9                   	leave  
    56ee:	c3                   	ret    
    56ef:	90                   	nop    

000056f0 <memcpy>:
    56f0:	55                   	push   %ebp
    56f1:	89 e5                	mov    %esp,%ebp
    56f3:	57                   	push   %edi
    56f4:	56                   	push   %esi
    56f5:	83 ec 0c             	sub    $0xc,%esp
    56f8:	8b 45 10             	mov    0x10(%ebp),%eax
    56fb:	89 c1                	mov    %eax,%ecx
    56fd:	c1 e9 02             	shr    $0x2,%ecx
    5700:	8b 45 10             	mov    0x10(%ebp),%eax
    5703:	8b 7d 08             	mov    0x8(%ebp),%edi
    5706:	8b 75 0c             	mov    0xc(%ebp),%esi
    5709:	f3 a5                	repz movsl %ds:(%esi),%es:(%edi)
    570b:	a8 02                	test   $0x2,%al
    570d:	74 02                	je     5711 <memcpy+0x21>
    570f:	66 a5                	movsw  %ds:(%esi),%es:(%edi)
    5711:	a8 01                	test   $0x1,%al
    5713:	74 01                	je     5716 <memcpy+0x26>
    5715:	a4                   	movsb  %ds:(%esi),%es:(%edi)
    5716:	89 c8                	mov    %ecx,%eax
    5718:	89 45 f4             	mov    %eax,0xfffffff4(%ebp)
    571b:	89 f8                	mov    %edi,%eax
    571d:	89 45 f0             	mov    %eax,0xfffffff0(%ebp)
    5720:	89 f0                	mov    %esi,%eax
    5722:	89 45 ec             	mov    %eax,0xffffffec(%ebp)
    5725:	8b 45 08             	mov    0x8(%ebp),%eax
    5728:	83 c4 0c             	add    $0xc,%esp
    572b:	5e                   	pop    %esi
    572c:	5f                   	pop    %edi
    572d:	c9                   	leave  
    572e:	c3                   	ret    
    572f:	90                   	nop    

00005730 <mempcpy>:
    5730:	55                   	push   %ebp
    5731:	89 e5                	mov    %esp,%ebp
    5733:	83 ec 08             	sub    $0x8,%esp
    5736:	8b 45 08             	mov    0x8(%ebp),%eax
    5739:	89 45 fc             	mov    %eax,0xfffffffc(%ebp)
    573c:	8b 45 0c             	mov    0xc(%ebp),%eax
    573f:	89 45 f8             	mov    %eax,0xfffffff8(%ebp)
    5742:	83 7d 10 00          	cmpl   $0x0,0x10(%ebp)
    5746:	75 02                	jne    574a <mempcpy+0x1a>
    5748:	eb 17                	jmp    5761 <mempcpy+0x31>
    574a:	8b 55 fc             	mov    0xfffffffc(%ebp),%edx
    574d:	8b 45 f8             	mov    0xfffffff8(%ebp),%eax
    5750:	8a 00                	mov    (%eax),%al
    5752:	88 02                	mov    %al,(%edx)
    5754:	ff 45 f8             	incl   0xfffffff8(%ebp)
    5757:	ff 45 fc             	incl   0xfffffffc(%ebp)
    575a:	8d 45 10             	lea    0x10(%ebp),%eax
    575d:	ff 08                	decl   (%eax)
    575f:	eb e1                	jmp    5742 <mempcpy+0x12>
    5761:	8b 45 fc             	mov    0xfffffffc(%ebp),%eax
    5764:	c9                   	leave  
    5765:	c3                   	ret    
    5766:	90                   	nop    
    5767:	90                   	nop    

00005768 <strchr>:
    5768:	55                   	push   %ebp
    5769:	89 e5                	mov    %esp,%ebp
    576b:	56                   	push   %esi
    576c:	83 ec 04             	sub    $0x4,%esp
    576f:	8b 75 08             	mov    0x8(%ebp),%esi
    5772:	8b 45 0c             	mov    0xc(%ebp),%eax
    5775:	88 c4                	mov    %al,%ah
    5777:	ac                   	lods   %ds:(%esi),%al
    5778:	38 e0                	cmp    %ah,%al
    577a:	74 09                	je     5785 <strchr+0x1d>
    577c:	84 c0                	test   %al,%al
    577e:	75 f7                	jne    5777 <strchr+0xf>
    5780:	be 01 00 00 00       	mov    $0x1,%esi
    5785:	89 f0                	mov    %esi,%eax
    5787:	48                   	dec    %eax
    5788:	89 c2                	mov    %eax,%edx
    578a:	89 f0                	mov    %esi,%eax
    578c:	89 45 f8             	mov    %eax,0xfffffff8(%ebp)
    578f:	89 d0                	mov    %edx,%eax
    5791:	83 c4 04             	add    $0x4,%esp
    5794:	5e                   	pop    %esi
    5795:	c9                   	leave  
    5796:	c3                   	ret    
    5797:	90                   	nop    

00005798 <strncmp>:
    5798:	55                   	push   %ebp
    5799:	89 e5                	mov    %esp,%ebp
    579b:	57                   	push   %edi
    579c:	56                   	push   %esi
    579d:	83 ec 0c             	sub    $0xc,%esp
    57a0:	8b 75 08             	mov    0x8(%ebp),%esi
    57a3:	8b 7d 0c             	mov    0xc(%ebp),%edi
    57a6:	8b 4d 10             	mov    0x10(%ebp),%ecx
    57a9:	49                   	dec    %ecx
    57aa:	78 08                	js     57b4 <strncmp+0x1c>
    57ac:	ac                   	lods   %ds:(%esi),%al
    57ad:	ae                   	scas   %es:(%edi),%al
    57ae:	75 08                	jne    57b8 <strncmp+0x20>
    57b0:	84 c0                	test   %al,%al
    57b2:	75 f5                	jne    57a9 <strncmp+0x11>
    57b4:	31 c0                	xor    %eax,%eax
    57b6:	eb 04                	jmp    57bc <strncmp+0x24>
    57b8:	19 c0                	sbb    %eax,%eax
    57ba:	0c 01                	or     $0x1,%al
    57bc:	89 c2                	mov    %eax,%edx
    57be:	89 f0                	mov    %esi,%eax
    57c0:	89 45 f4             	mov    %eax,0xfffffff4(%ebp)
    57c3:	89 f8                	mov    %edi,%eax
    57c5:	89 45 f0             	mov    %eax,0xfffffff0(%ebp)
    57c8:	89 c8                	mov    %ecx,%eax
    57ca:	89 45 ec             	mov    %eax,0xffffffec(%ebp)
    57cd:	89 d0                	mov    %edx,%eax
    57cf:	83 c4 0c             	add    $0xc,%esp
    57d2:	5e                   	pop    %esi
    57d3:	5f                   	pop    %edi
    57d4:	c9                   	leave  
    57d5:	c3                   	ret    
    57d6:	90                   	nop    
    57d7:	90                   	nop    

000057d8 <strndup>:
    57d8:	55                   	push   %ebp
    57d9:	89 e5                	mov    %esp,%ebp
    57db:	83 ec 08             	sub    $0x8,%esp
    57de:	83 ec 08             	sub    $0x8,%esp
    57e1:	ff 75 0c             	pushl  0xc(%ebp)
    57e4:	ff 75 08             	pushl  0x8(%ebp)
    57e7:	e8 ec d5 ff ff       	call   2dd8 <strnlen>
    57ec:	83 c4 10             	add    $0x10,%esp
    57ef:	89 45 0c             	mov    %eax,0xc(%ebp)
    57f2:	83 ec 0c             	sub    $0xc,%esp
    57f5:	8b 45 0c             	mov    0xc(%ebp),%eax
    57f8:	40                   	inc    %eax
    57f9:	50                   	push   %eax
    57fa:	e8 a5 e0 ff ff       	call   38a4 <malloc>
    57ff:	83 c4 10             	add    $0x10,%esp
    5802:	89 45 fc             	mov    %eax,0xfffffffc(%ebp)
    5805:	8b 45 fc             	mov    0xfffffffc(%ebp),%eax
    5808:	85 c0                	test   %eax,%eax
    580a:	74 1e                	je     582a <strndup+0x52>
    580c:	83 ec 04             	sub    $0x4,%esp
    580f:	ff 75 0c             	pushl  0xc(%ebp)
    5812:	ff 75 08             	pushl  0x8(%ebp)
    5815:	ff 75 fc             	pushl  0xfffffffc(%ebp)
    5818:	e8 d3 fe ff ff       	call   56f0 <memcpy>
    581d:	83 c4 10             	add    $0x10,%esp
    5820:	8b 45 0c             	mov    0xc(%ebp),%eax
    5823:	8b 55 fc             	mov    0xfffffffc(%ebp),%edx
    5826:	c6 04 10 00          	movb   $0x0,(%eax,%edx,1)
    582a:	8b 45 fc             	mov    0xfffffffc(%ebp),%eax
    582d:	c9                   	leave  
    582e:	c3                   	ret    
    582f:	90                   	nop    

00005830 <__xstat_conv>:
    5830:	55                   	push   %ebp
    5831:	89 e5                	mov    %esp,%ebp
    5833:	8b 4d 0c             	mov    0xc(%ebp),%ecx
    5836:	8b 45 08             	mov    0x8(%ebp),%eax
    5839:	0f b7 00             	movzwl (%eax),%eax
    583c:	89 01                	mov    %eax,(%ecx)
    583e:	8b 01                	mov    (%ecx),%eax
    5840:	ba 00 00 00 00       	mov    $0x0,%edx
    5845:	89 01                	mov    %eax,(%ecx)
    5847:	89 51 04             	mov    %edx,0x4(%ecx)
    584a:	8b 55 0c             	mov    0xc(%ebp),%edx
    584d:	8b 45 08             	mov    0x8(%ebp),%eax
    5850:	8b 40 04             	mov    0x4(%eax),%eax
    5853:	89 42 0c             	mov    %eax,0xc(%edx)
    5856:	8b 55 0c             	mov    0xc(%ebp),%edx
    5859:	8b 45 08             	mov    0x8(%ebp),%eax
    585c:	0f b7 40 08          	movzwl 0x8(%eax),%eax
    5860:	89 42 10             	mov    %eax,0x10(%edx)
    5863:	8b 55 0c             	mov    0xc(%ebp),%edx
    5866:	8b 45 08             	mov    0x8(%ebp),%eax
    5869:	0f b7 40 0a          	movzwl 0xa(%eax),%eax
    586d:	89 42 14             	mov    %eax,0x14(%edx)
    5870:	8b 55 0c             	mov    0xc(%ebp),%edx
    5873:	8b 45 08             	mov    0x8(%ebp),%eax
    5876:	0f b7 40 0c          	movzwl 0xc(%eax),%eax
    587a:	89 42 18             	mov    %eax,0x18(%edx)
    587d:	8b 55 0c             	mov    0xc(%ebp),%edx
    5880:	8b 45 08             	mov    0x8(%ebp),%eax
    5883:	0f b7 40 0e          	movzwl 0xe(%eax),%eax
    5887:	89 42 1c             	mov    %eax,0x1c(%edx)
    588a:	8b 4d 0c             	mov    0xc(%ebp),%ecx
    588d:	8b 45 08             	mov    0x8(%ebp),%eax
    5890:	0f b7 40 10          	movzwl 0x10(%eax),%eax
    5894:	89 41 20             	mov    %eax,0x20(%ecx)
    5897:	8b 41 20             	mov    0x20(%ecx),%eax
    589a:	ba 00 00 00 00       	mov    $0x0,%edx
    589f:	89 41 20             	mov    %eax,0x20(%ecx)
    58a2:	89 51 24             	mov    %edx,0x24(%ecx)
    58a5:	8b 55 0c             	mov    0xc(%ebp),%edx
    58a8:	8b 45 08             	mov    0x8(%ebp),%eax
    58ab:	8b 40 14             	mov    0x14(%eax),%eax
    58ae:	89 42 2c             	mov    %eax,0x2c(%edx)
    58b1:	8b 55 0c             	mov    0xc(%ebp),%edx
    58b4:	8b 45 08             	mov    0x8(%ebp),%eax
    58b7:	8b 40 18             	mov    0x18(%eax),%eax
    58ba:	89 42 30             	mov    %eax,0x30(%edx)
    58bd:	8b 55 0c             	mov    0xc(%ebp),%edx
    58c0:	8b 45 08             	mov    0x8(%ebp),%eax
    58c3:	8b 40 1c             	mov    0x1c(%eax),%eax
    58c6:	89 42 34             	mov    %eax,0x34(%edx)
    58c9:	8b 55 0c             	mov    0xc(%ebp),%edx
    58cc:	8b 45 08             	mov    0x8(%ebp),%eax
    58cf:	8b 40 20             	mov    0x20(%eax),%eax
    58d2:	89 42 38             	mov    %eax,0x38(%edx)
    58d5:	8b 55 0c             	mov    0xc(%ebp),%edx
    58d8:	8b 45 08             	mov    0x8(%ebp),%eax
    58db:	8b 40 28             	mov    0x28(%eax),%eax
    58de:	89 42 40             	mov    %eax,0x40(%edx)
    58e1:	8b 55 0c             	mov    0xc(%ebp),%edx
    58e4:	8b 45 08             	mov    0x8(%ebp),%eax
    58e7:	8b 40 30             	mov    0x30(%eax),%eax
    58ea:	89 42 48             	mov    %eax,0x48(%edx)
    58ed:	c9                   	leave  
    58ee:	c3                   	ret    
    58ef:	90                   	nop    

000058f0 <__libc_lseek>:
    58f0:	55                   	push   %ebp
    58f1:	89 e5                	mov    %esp,%ebp
    58f3:	57                   	push   %edi
    58f4:	83 ec 04             	sub    $0x4,%esp
    58f7:	8b 7d 08             	mov    0x8(%ebp),%edi
    58fa:	8b 4d 0c             	mov    0xc(%ebp),%ecx
    58fd:	8b 55 10             	mov    0x10(%ebp),%edx
    5900:	53                   	push   %ebx
    5901:	89 fb                	mov    %edi,%ebx
    5903:	b8 13 00 00 00       	mov    $0x13,%eax
    5908:	cd 80                	int    $0x80
    590a:	5b                   	pop    %ebx
    590b:	89 45 f8             	mov    %eax,0xfffffff8(%ebp)
    590e:	81 7d f8 00 f0 ff ff 	cmpl   $0xfffff000,0xfffffff8(%ebp)
    5915:	76 11                	jbe    5928 <__libc_lseek+0x38>
    5917:	8b 45 f8             	mov    0xfffffff8(%ebp),%eax
    591a:	f7 d8                	neg    %eax
    591c:	a3 64 74 00 00       	mov    %eax,0x7464
    5921:	c7 45 f8 ff ff ff ff 	movl   $0xffffffff,0xfffffff8(%ebp)
    5928:	8b 45 f8             	mov    0xfffffff8(%ebp),%eax
    592b:	83 c4 04             	add    $0x4,%esp
    592e:	5f                   	pop    %edi
    592f:	c9                   	leave  
    5930:	c3                   	ret    
    5931:	90                   	nop    
    5932:	90                   	nop    
    5933:	90                   	nop    

00005934 <fseek>:
    5934:	55                   	push   %ebp
    5935:	89 e5                	mov    %esp,%ebp
    5937:	83 ec 18             	sub    $0x18,%esp
    593a:	83 7d 10 02          	cmpl   $0x2,0x10(%ebp)
    593e:	76 16                	jbe    5956 <fseek+0x22>
    5940:	c7 05 64 74 00 00 16 	movl   $0x16,0x7464
    5947:	00 00 00 
    594a:	c7 45 f4 ff ff ff ff 	movl   $0xffffffff,0xfffffff4(%ebp)
    5951:	e9 90 00 00 00       	jmp    59e6 <fseek+0xb2>
    5956:	c7 45 f8 ff ff ff ff 	movl   $0xffffffff,0xfffffff8(%ebp)
    595d:	8b 45 0c             	mov    0xc(%ebp),%eax
    5960:	89 45 fc             	mov    %eax,0xfffffffc(%ebp)
    5963:	8b 55 08             	mov    0x8(%ebp),%edx
    5966:	0f b7 02             	movzwl (%edx),%eax
    5969:	25 00 20 00 00       	and    $0x2000,%eax
    596e:	85 c0                	test   %eax,%eax
    5970:	74 12                	je     5984 <fseek+0x50>
    5972:	83 ec 0c             	sub    $0xc,%esp
    5975:	ff 75 08             	pushl  0x8(%ebp)
    5978:	e8 93 ec ff ff       	call   4610 <fflush>
    597d:	83 c4 10             	add    $0x10,%esp
    5980:	85 c0                	test   %eax,%eax
    5982:	75 5c                	jne    59e0 <fseek+0xac>
    5984:	83 7d 10 01          	cmpl   $0x1,0x10(%ebp)
    5988:	75 16                	jne    59a0 <fseek+0x6c>
    598a:	83 ec 08             	sub    $0x8,%esp
    598d:	8d 45 fc             	lea    0xfffffffc(%ebp),%eax
    5990:	50                   	push   %eax
    5991:	ff 75 08             	pushl  0x8(%ebp)
    5994:	e8 53 00 00 00       	call   59ec <_stdio_adjpos>
    5999:	83 c4 10             	add    $0x10,%esp
    599c:	85 c0                	test   %eax,%eax
    599e:	78 40                	js     59e0 <fseek+0xac>
    59a0:	83 ec 04             	sub    $0x4,%esp
    59a3:	ff 75 10             	pushl  0x10(%ebp)
    59a6:	8d 45 fc             	lea    0xfffffffc(%ebp),%eax
    59a9:	50                   	push   %eax
    59aa:	ff 75 08             	pushl  0x8(%ebp)
    59ad:	e8 2e f1 ff ff       	call   4ae0 <_stdio_lseek>
    59b2:	83 c4 10             	add    $0x10,%esp
    59b5:	85 c0                	test   %eax,%eax
    59b7:	78 27                	js     59e0 <fseek+0xac>
    59b9:	8b 55 08             	mov    0x8(%ebp),%edx
    59bc:	8b 42 0c             	mov    0xc(%edx),%eax
    59bf:	8b 55 08             	mov    0x8(%ebp),%edx
    59c2:	89 42 18             	mov    %eax,0x18(%edx)
    59c5:	8b 55 08             	mov    0x8(%ebp),%edx
    59c8:	89 42 14             	mov    %eax,0x14(%edx)
    59cb:	8b 55 08             	mov    0x8(%ebp),%edx
    59ce:	89 42 1c             	mov    %eax,0x1c(%edx)
    59d1:	8b 45 08             	mov    0x8(%ebp),%eax
    59d4:	66 81 20 f8 cf       	andw   $0xcff8,(%eax)
    59d9:	c7 45 f8 00 00 00 00 	movl   $0x0,0xfffffff8(%ebp)
    59e0:	8b 45 f8             	mov    0xfffffff8(%ebp),%eax
    59e3:	89 45 f4             	mov    %eax,0xfffffff4(%ebp)
    59e6:	8b 45 f4             	mov    0xfffffff4(%ebp),%eax
    59e9:	c9                   	leave  
    59ea:	c3                   	ret    
    59eb:	90                   	nop    

000059ec <_stdio_adjpos>:
    59ec:	55                   	push   %ebp
    59ed:	89 e5                	mov    %esp,%ebp
    59ef:	83 ec 0c             	sub    $0xc,%esp
    59f2:	8b 55 08             	mov    0x8(%ebp),%edx
    59f5:	0f b7 02             	movzwl (%edx),%eax
    59f8:	83 e0 03             	and    $0x3,%eax
    59fb:	89 45 f8             	mov    %eax,0xfffffff8(%ebp)
    59fe:	8b 4d 08             	mov    0x8(%ebp),%ecx
    5a01:	0f b7 01             	movzwl (%ecx),%eax
    5a04:	25 00 20 00 00       	and    $0x2000,%eax
    5a09:	85 c0                	test   %eax,%eax
    5a0b:	74 15                	je     5a22 <_stdio_adjpos+0x36>
    5a0d:	8b 45 08             	mov    0x8(%ebp),%eax
    5a10:	8b 50 0c             	mov    0xc(%eax),%edx
    5a13:	8b 4d 08             	mov    0x8(%ebp),%ecx
    5a16:	8b 41 14             	mov    0x14(%ecx),%eax
    5a19:	29 d0                	sub    %edx,%eax
    5a1b:	89 c2                	mov    %eax,%edx
    5a1d:	8d 45 f8             	lea    0xfffffff8(%ebp),%eax
    5a20:	29 10                	sub    %edx,(%eax)
    5a22:	8b 55 08             	mov    0x8(%ebp),%edx
    5a25:	0f b7 02             	movzwl (%edx),%eax
    5a28:	25 00 10 00 00       	and    $0x1000,%eax
    5a2d:	85 c0                	test   %eax,%eax
    5a2f:	74 15                	je     5a46 <_stdio_adjpos+0x5a>
    5a31:	8b 4d 08             	mov    0x8(%ebp),%ecx
    5a34:	8b 51 14             	mov    0x14(%ecx),%edx
    5a37:	8b 4d 08             	mov    0x8(%ebp),%ecx
    5a3a:	8b 41 18             	mov    0x18(%ecx),%eax
    5a3d:	29 d0                	sub    %edx,%eax
    5a3f:	89 c2                	mov    %eax,%edx
    5a41:	8d 45 f8             	lea    0xfffffff8(%ebp),%eax
    5a44:	01 10                	add    %edx,(%eax)
    5a46:	8b 55 0c             	mov    0xc(%ebp),%edx
    5a49:	8b 02                	mov    (%edx),%eax
    5a4b:	89 45 fc             	mov    %eax,0xfffffffc(%ebp)
    5a4e:	8b 45 f8             	mov    0xfffffff8(%ebp),%eax
    5a51:	8b 4d 0c             	mov    0xc(%ebp),%ecx
    5a54:	29 01                	sub    %eax,(%ecx)
    5a56:	8b 55 0c             	mov    0xc(%ebp),%edx
    5a59:	8b 02                	mov    (%edx),%eax
    5a5b:	3b 45 fc             	cmp    0xfffffffc(%ebp),%eax
    5a5e:	7e 0a                	jle    5a6a <_stdio_adjpos+0x7e>
    5a60:	8b 45 f8             	mov    0xfffffff8(%ebp),%eax
    5a63:	f7 d8                	neg    %eax
    5a65:	89 45 f4             	mov    %eax,0xfffffff4(%ebp)
    5a68:	eb 06                	jmp    5a70 <_stdio_adjpos+0x84>
    5a6a:	8b 4d f8             	mov    0xfffffff8(%ebp),%ecx
    5a6d:	89 4d f4             	mov    %ecx,0xfffffff4(%ebp)
    5a70:	8b 45 f4             	mov    0xfffffff4(%ebp),%eax
    5a73:	c9                   	leave  
    5a74:	c3                   	ret    
