
init:     file format elf32-i386
init
architecture: i386, flags 0x00000012:
EXEC_P, HAS_SYMS
start address 0x00001000

Program Header:
    LOAD off    0x00000080 vaddr 0x00001000 paddr 0x00001000 align 2**5
         filesz 0x000473fc memsz 0x00049fb0 flags rwx

Sections:
Idx Name          Size      VMA       LMA       File off  Algn
  0 .text         000066fb  00001000  00001000  00000080  2**4
                  CONTENTS, ALLOC, LOAD, READONLY, CODE
  1 .rodata       00040040  00007700  00007700  00006780  2**5
                  CONTENTS, ALLOC, LOAD, READONLY, DATA
  2 .data         000003fc  00048000  00048000  00047080  2**5
                  CONTENTS, ALLOC, LOAD, DATA
  3 .bss          00002bb0  00048400  00048400  00047480  2**5
                  ALLOC
  4 .stab         00001980  00000000  00000000  00047480  2**2
                  CONTENTS, READONLY, DEBUGGING
  5 .stabstr      0000289e  00000000  00000000  00048e00  2**0
                  CONTENTS, READONLY, DEBUGGING
  6 .comment      00000012  00000000  00000000  0004b69e  2**0
                  CONTENTS, READONLY
SYMBOL TABLE:
00001000 l    d  .text	00000000 
00007700 l    d  .rodata	00000000 
00048000 l    d  .data	00000000 
00048400 l    d  .bss	00000000 
00000000 l    d  .stab	00000000 
00000000 l    d  .stabstr	00000000 
00000000 l    d  .comment	00000000 
00000000 l    d  *ABS*	00000000 
00000000 l    d  *ABS*	00000000 
00000000 l    d  *ABS*	00000000 
00000000 l    df *ABS*	00000000 crt0.S
00000000 l    df *ABS*	00000000 d:/jicamasdk/uclibc/include/features.h
00000000 l    df *ABS*	00000000 d:/jicamasdk/uclibc/include/bits/uClibc_config.h
00000000 l    df *ABS*	00000000 d:/jicamasdk/uclibc/include/features.h
00000000 l    df *ABS*	00000000 crt0.S
00000000 l    df *ABS*	00000000 <command line>
00000000 l    df *ABS*	00000000 <built-in>
00000000 l    df *ABS*	00000000 crt0.S
00000000 l    df *ABS*	00000000 init.c
00048000 l     O .data	00000200 pwd
00048200 l     O .data	00000020 shell_table
00048220 l     O .data	00000010 script_table
00048400 l     O .bss	00000004 busybox_used
00048404 l     O .bss	00000010 execarg.0
00001394 l     F .text	000000a6 prog_execute
00000000 l    df *ABS*	00000000 __uClibc_main.c
00000000 l    df *ABS*	00000000 errno.c
00000000 l    df *ABS*	00000000 stdio.c
00000000 l    df *ABS*	00000000 stdio.c
00000000 l    df *ABS*	00000000 stdio.c
00000000 l    df *ABS*	00000000 printf.c
00000000 l    df *ABS*	00000000 printf.c
00000000 l    df *ABS*	00000000 printf.c
00000000 l    df *ABS*	00000000 printf.c
00000000 l    df *ABS*	00000000 printf.c
00000000 l    df *ABS*	00000000 string.c
00000000 l    df *ABS*	00000000 wstring.c
00000000 l    df *ABS*	00000000 string.c
00000000 l    df *ABS*	00000000 string.c
00000000 l    df *ABS*	00000000 wstring.c
00000000 l    df *ABS*	00000000 wstring.c
00000000 l    df *ABS*	00000000 wstring.c
00000000 l    df *ABS*	00000000 wstring.c
00000000 l    df *ABS*	00000000 termios.c
00000000 l    df *ABS*	00000000 sigaction.c
00000000 l    df *ABS*	00000000 stdlib.c
00000000 l    df *ABS*	00000000 stdlib.c
00000000 l    df *ABS*	00000000 stdlib.c
00000000 l    df *ABS*	00000000 atexit.c
00000000 l    df *ABS*	00000000 setenv.c
00000000 l    df *ABS*	00000000 malloc.c
00000000 l    df *ABS*	00000000 free.c
00000000 l    df *ABS*	00000000 realloc.c
00000000 l    df *ABS*	00000000 heap_alloc.c
00000000 l    df *ABS*	00000000 heap_alloc_at.c
00000000 l    df *ABS*	00000000 heap_free.c
00000000 l    df *ABS*	00000000 getcwd.c
00000000 l    df *ABS*	00000000 wait.c
00000000 l    df *ABS*	00000000 _exit.c
00000000 l    df *ABS*	00000000 sbrk.c
00000000 l    df *ABS*	00000000 syscalls.c
00000000 l    df *ABS*	00000000 syscalls.c
00000000 l    df *ABS*	00000000 syscalls.c
00000000 l    df *ABS*	00000000 syscalls.c
00000000 l    df *ABS*	00000000 syscalls.c
00000000 l    df *ABS*	00000000 syscalls.c
00000000 l    df *ABS*	00000000 syscalls.c
00000000 l    df *ABS*	00000000 syscalls.c
00000000 l    df *ABS*	00000000 syscalls.c
00000000 l    df *ABS*	00000000 syscalls.c
00000000 l    df *ABS*	00000000 syscalls.c
00000000 l    df *ABS*	00000000 syscalls.c
00000000 l    df *ABS*	00000000 syscalls.c
00000000 l    df *ABS*	00000000 syscalls.c
00000000 l    df *ABS*	00000000 brk.c
00000000 l    df *ABS*	00000000 dynamic.c
00000000 l    df *ABS*	00000000 wchar.c
00000000 l    df *ABS*	00000000 wchar.c
00000000 l    df *ABS*	00000000 wchar.c
00000000 l    df *ABS*	00000000 wstring.c
00000000 l    df *ABS*	00000000 stdlib.c
00000000 l    df *ABS*	00000000 locale.c
00000000 l    df *ABS*	00000000 stdio.c
00000000 l    df *ABS*	00000000 stdio.c
00000000 l    df *ABS*	00000000 stdio.c
00000000 l    df *ABS*	00000000 stdio.c
00000000 l    df *ABS*	00000000 stdio.c
00000000 l    df *ABS*	00000000 stdio.c
00000000 l    df *ABS*	00000000 stdio.c
00000000 l    df *ABS*	00000000 printf.c
00000000 l    df *ABS*	00000000 printf.c
00000000 l    df *ABS*	00000000 printf.c
00000000 l    df *ABS*	00000000 printf.c
00000000 l    df *ABS*	00000000 printf.c
00000000 l    df *ABS*	00000000 printf.c
00000000 l    df *ABS*	00000000 printf.c
00000000 l    df *ABS*	00000000 string.c
00000000 l    df *ABS*	00000000 string.c
00000000 l    df *ABS*	00000000 string.c
00000000 l    df *ABS*	00000000 wstring.c
00000000 l    df *ABS*	00000000 calloc.c
00000000 l    df *ABS*	00000000 xstatconv.c
00000000 l    df *ABS*	00000000 syscalls.c
00000000 l    df *ABS*	00000000 locale.c
00000000 l    df *ABS*	00000000 locale_data.c
00000000 l    df *ABS*	00000000 wchar.c
00000000 l    df *ABS*	00000000 wchar.c
00000000 l    df *ABS*	00000000 wchar.c
00000000 l    df *ABS*	00000000 wchar.c
00000000 l    df *ABS*	00000000 ctype.c
00000000 l    df *ABS*	00000000 ctype.c
00000000 l    df *ABS*	00000000 ctype.c
00000000 l    df *ABS*	00000000 ctype.c
00000000 l    df *ABS*	00000000 ctype.c
00000000 l    df *ABS*	00000000 stdio.c
00000000 l    df *ABS*	00000000 stdio.c
000014ec g     F .text	0000006b test_file_system
00002e00 g     F .text	00000147 __libc_sigaction
00003291 g     F .text	000000c5 unsetenv
0000408d g     F .text	00000033 ioctl
00003f58  w    F .text	0000002f __getpid
0000187c g     F .text	0000002b printf
000482c8 g     O .data	00000004 stdout
00005956 g     F .text	00000323 _stdio_fwrite
00002ca4 g     F .text	00000022 strerror
00006c1c g     F .text	00000057 strndup
000483ec g     O .data	00000004 __locale_mmap
00005cc4 g     F .text	000002e5 _uintmaxtostr
00002f60 g     F .text	0000001a atol
00048428 g     O .bss	00000004 _h_errno
00003dec  w    F .text	00000041 __write
00003008 g     F .text	0000026e __add_to_environ
00048424  w    O .bss	00000004 errno
00004321 g     F .text	00000026 unload_library
000055b6 g     F .text	00000150 _locale_init_l
000038c0 g     F .text	0000007c __heap_alloc_at
00003f14  w    F .text	00000041 execve
00003f58  w    F .text	0000002f getpid
00003f58 g     F .text	0000002f __libc_getpid
000483e8 g     O .data	00000004 __curlocale_var
000039c4 g     F .text	0000014c __heap_free
00004e7a g     F .text	0000073c _locale_set_l
00006b6c g     F .text	0000003f memcpy
00005706 g     F .text	00000019 _locale_init
000074f8 g     F .text	00000033 __tolower_l
00001744 g     F .text	0000005b perror
00003e6f g     F .text	0000001e creat
00005c7c g     F .text	00000045 _stdio_lseek
00007600 g     F .text	000000fb _stdio_adjpos
0000614c g     F .text	00000107 _ppfs_init
000017a0 g     F .text	00000043 puts
000074f8  w    F .text	00000033 tolower_l
00003500 g     F .text	00000057 malloc
00002dd8 g     F .text	00000021 isatty
00002db8  w    F .text	0000001f __strerror_r
00005fac g     F .text	00000085 vsnprintf
000483f4 g     O .data	00000004 __C_ctype_tolower
000048c0 g     F .text	000001ec _stdlib_strto_l_l
0004a47c g     O .bss	00000004 ___brk_addr
00001468 g     F .text	00000046 sigh
00005720 g     F .text	000000b5 fflush
00003da8 g     F .text	00000041 __libc_read
00007a60 g     O .rodata	00000b5a _string_syserrmsgs
0000339e g     F .text	0000007e putenv
00006d90  w    F .text	00000041 lseek
000483e0 g     O .data	00000004 __malloc_heap
00003356 g     F .text	00000048 clearenv
00048414 g     O .bss	00000004 __environ
00004650  w    F .text	00000205 wcsnrtombs
00002db8 g     F .text	0000001f _glibc_strerror_r
00006f10 g     F .text	0000025b _wchar_utf8sntowcs
00000000  w      *UND*	00000000 _init
00004347 g     F .text	00000045 dynamic_symbol
00002f7c g     F .text	0000001b strtol
00002c78 g     F .text	00000029 strnlen
00004268 g     F .text	000000b9 load_library
00004198 g     F .text	0000003b uname
000043b3 g     F .text	00000028 get_dynamic_dependencies
0000404c g     F .text	00000041 __syscall_ioctl
000072f8  w    F .text	000001fd mbsnrtowcs
00006c74 g     F .text	0000006e calloc
00048428  w    O .bss	00000004 h_errno
00004858  w    F .text	00000067 strcasecmp_l
00004134 g     F .text	0000001c wait4
00048420 g     O .bss	00000004 __app_fini
0004a474 g     O .bss	00000004 __exit_cleanup
00003dec  w    F .text	00000041 write
0004afac g     O .bss	00000004 environ
00001854 g     F .text	00000028 fprintf
00005810 g     F .text	00000047 fputs_unlocked
000482d0 g     O .data	00000004 _stdio_openlist
0000716c g     F .text	00000189 _wchar_wcsntoutf8s
00007538 g     F .text	000000c7 fseeko
00004650 g     F .text	00000205 __wcsnrtombs
00001574 g     F .text	00000028 tell
00007538 g     F .text	000000c7 fseek
00001558 g     F .text	00000019 netbas_setup
000482c4 g     O .data	00000004 stdin
00003cb4  w    F .text	0000001f wait
00048418 g     O .bss	00000004 __progname
00001000 g     F .text	00000025 _start
00003da8  w    F .text	00000041 read
00006bdc g     F .text	0000003e strncmp
0000462c g     F .text	00000021 wcsrtombs
00003276 g     F .text	0000001b setenv
00002c2c g     F .text	00000021 strcasecmp
000483f8 g     O .data	00000004 __C_ctype_toupper
00003678 g     F .text	0000013a realloc
0000143c g     F .text	0000002c sigact
00003d78  w    F .text	0000002f fork
00004858 g     F .text	00000067 __strcasecmp_l
00002e00  w    F .text	00000147 sigaction
00001670 g     F .text	00000035 __uClibc_init
00006034 g     F .text	0000005c _store_inttype
0000438c g     F .text	00000027 get_dynamic_module_info
00001728 g     F .text	0000001b __uClibc_main
00003d0c g     F .text	0000006b sbrk
00003ed8 g     F .text	0000003b __libc_close
00006bac  w    F .text	0000002f index
000483fc g       *ABS*	00000000 __bss_start
00003e30 g     F .text	0000003f __libc_open
00002c04 g     F .text	00000025 memset
00001028 g     F .text	0000036a main
00006edc g     F .text	00000034 mbsrtowcs
000041d4 g     F .text	00000046 __syscall_rt_sigaction
00006ce4 g     F .text	000000ab __xstat_conv
00047140 g     O .rodata	00000300 __C_ctype_tolower_data
000014b0 g     F .text	0000003b load_modules
00002cc8 g     F .text	000000ee _susv3_strerror_r
00000000  w      *UND*	00000000 __h_errno_location
00004010 g     F .text	0000003b dup
00003bac g     F .text	000000cf getcwd
00046e40 g     O .rodata	00000300 __C_ctype_b_data
00000000  w      *UND*	00000000 _fini
000018a8 g     F .text	00000027 sprintf
000017e4 g     F .text	00000015 _stdio_term
000482cc g     O .data	00000004 stderr
000483f0 g     O .data	00000004 __C_ctype_b
000062b0 g     F .text	00000259 _ppfs_setargs
00003d78 g     F .text	0000002f __libc_fork
000057d8 g     F .text	00000038 fputc
00006d90 g     F .text	00000041 __libc_lseek
0000752c g     F .text	0000000a __ctype_b_loc
0000159c g     F .text	000000d1 report
00003cb4 g     F .text	0000001f __libc_wait
00005720 g     F .text	000000b5 fflush_unlocked
00005858 g     F .text	0000008e fwrite_unlocked
000040f9 g     F .text	00000038 stat
000072f8 g     F .text	000001fd __mbsnrtowcs
00005858 g     F .text	0000008e fwrite
00006dd4 g     F .text	00000105 __locale_mbrtowc_l
000483fc g       *ABS*	00000000 _edata
0004afb0 g       *ABS*	00000000 _end
00006254 g     F .text	0000005c _ppfs_prepargs
000040c0 g     F .text	00000039 __syscall_stat
00002238 g     F .text	000009c9 _fpmaxtostr
00000000  w      *UND*	00000000 __errno_location
00002f98 g     F .text	00000026 _stdlib_strto_l
00002fc0 g     F .text	00000048 exit
000017f9 g     F .text	00000058 _stdio_init
000037b4 g     F .text	00000085 __heap_alloc
0000421c g     F .text	0000004b brk
00047440 g     O .rodata	00000300 __C_ctype_toupper_data
00048424 g     O .bss	00000004 _errno
00002f60 g     F .text	0000001a atoi
00003cd4 g     F .text	00000038 _exit
00002c50 g     F .text	00000026 strlen
000016a5 g     F .text	00000083 __uClibc_start_main
00003e30  w    F .text	0000003f open
00003dec g     F .text	00000041 __libc_write
000065aa g     F .text	000005bf _ppfs_parsespec
00006bac g     F .text	0000002f strchr
00005810 g     F .text	00000047 fputs
000057d8 g     F .text	00000038 fputc_unlocked
00003f88 g     F .text	00000042 setuid
000045c8 g     F .text	00000061 wcrtomb
00003ed8  w    F .text	0000003b close
000483e4 g     O .data	00000004 __global_locale
000044c2 g     F .text	000000d8 __init_library
00002085 g     F .text	000001b0 vfprintf
00006090 g     F .text	000000b9 _load_inttype
00003619 g     F .text	0000001b free


Disassembly of section .text:

00001000 <_start>:
    1000:	59                   	pop    %ecx
    1001:	89 e3                	mov    %esp,%ebx
    1003:	89 e0                	mov    %esp,%eax
    1005:	89 ca                	mov    %ecx,%edx
    1007:	8d 44 90 04          	lea    0x4(%eax,%edx,4),%eax
    100b:	31 ed                	xor    %ebp,%ebp
    100d:	55                   	push   %ebp
    100e:	55                   	push   %ebp
    100f:	55                   	push   %ebp
    1010:	89 e5                	mov    %esp,%ebp
    1012:	68 00 00 00 00       	push   $0x0
    1017:	68 00 00 00 00       	push   $0x0
    101c:	50                   	push   %eax
    101d:	53                   	push   %ebx
    101e:	51                   	push   %ecx
    101f:	e8 81 06 00 00       	call   16a5 <__uClibc_start_main>
    1024:	f4                   	hlt    
    1025:	90                   	nop    
    1026:	90                   	nop    
    1027:	90                   	nop    

00001028 <main>:
    1028:	55                   	push   %ebp
    1029:	89 e5                	mov    %esp,%ebp
    102b:	57                   	push   %edi
    102c:	56                   	push   %esi
    102d:	53                   	push   %ebx
    102e:	81 ec ac 04 00 00    	sub    $0x4ac,%esp
    1034:	8b 75 08             	mov    0x8(%ebp),%esi
    1037:	31 db                	xor    %ebx,%ebx
    1039:	83 e4 f0             	and    $0xfffffff0,%esp
    103c:	39 f3                	cmp    %esi,%ebx
    103e:	8b 7d 0c             	mov    0xc(%ebp),%edi
    1041:	c7 85 50 fb ff ff 00 	movl   $0x0,0xfffffb50(%ebp)
    1048:	00 00 00 
    104b:	c7 85 4c fb ff ff 01 	movl   $0x1,0xfffffb4c(%ebp)
    1052:	00 00 00 
    1055:	0f 8c f5 02 00 00    	jl     1350 <main+0x328>
    105b:	83 ec 0c             	sub    $0xc,%esp
    105e:	8d 95 58 fe ff ff    	lea    0xfffffe58(%ebp),%edx
    1064:	52                   	push   %edx
    1065:	31 ff                	xor    %edi,%edi
    1067:	e8 2c 31 00 00       	call   4198 <uname>
    106c:	59                   	pop    %ecx
    106d:	5b                   	pop    %ebx
    106e:	89 f8                	mov    %edi,%eax
    1070:	89 fb                	mov    %edi,%ebx
    1072:	89 f9                	mov    %edi,%ecx
    1074:	89 fa                	mov    %edi,%edx
    1076:	89 fe                	mov    %edi,%esi
    1078:	cd 80                	int    $0x80
    107a:	6a 00                	push   $0x0
    107c:	68 5c 77 00 00       	push   $0x775c
    1081:	c7 05 00 84 04 00 00 	movl   $0x0,0x48400
    1088:	00 00 00 
    108b:	e8 a0 2d 00 00       	call   3e30 <__libc_open>
    1090:	89 c6                	mov    %eax,%esi
    1092:	89 04 24             	mov    %eax,(%esp,1)
    1095:	e8 76 2f 00 00       	call   4010 <dup>
    109a:	89 34 24             	mov    %esi,(%esp,1)
    109d:	e8 6e 2f 00 00       	call   4010 <dup>
    10a2:	58                   	pop    %eax
    10a3:	5a                   	pop    %edx
    10a4:	68 00 02 00 00       	push   $0x200
    10a9:	68 00 80 04 00       	push   $0x48000
    10ae:	e8 f9 2a 00 00       	call   3bac <getcwd>
    10b3:	31 db                	xor    %ebx,%ebx
    10b5:	c7 04 24 00 00 00 00 	movl   $0x0,(%esp,1)
    10bc:	e8 c7 2e 00 00       	call   3f88 <setuid>
    10c1:	83 c4 10             	add    $0x10,%esp
    10c4:	8b 14 9d 00 82 04 00 	mov    0x48200(,%ebx,4),%edx
    10cb:	31 f6                	xor    %esi,%esi
    10cd:	85 d2                	test   %edx,%edx
    10cf:	74 29                	je     10fa <main+0xd2>
    10d1:	83 ec 08             	sub    $0x8,%esp
    10d4:	8d 8d d8 fd ff ff    	lea    0xfffffdd8(%ebp),%ecx
    10da:	51                   	push   %ecx
    10db:	52                   	push   %edx
    10dc:	e8 18 30 00 00       	call   40f9 <stat>
    10e1:	83 c4 10             	add    $0x10,%esp
    10e4:	85 c0                	test   %eax,%eax
    10e6:	0f 84 58 02 00 00    	je     1344 <main+0x31c>
    10ec:	89 da                	mov    %ebx,%edx
    10ee:	8b 3c 95 00 82 04 00 	mov    0x48200(,%edx,4),%edi
    10f5:	43                   	inc    %ebx
    10f6:	85 ff                	test   %edi,%edi
    10f8:	75 ca                	jne    10c4 <main+0x9c>
    10fa:	a1 20 82 04 00       	mov    0x48220,%eax
    10ff:	31 db                	xor    %ebx,%ebx
    1101:	85 c0                	test   %eax,%eax
    1103:	8d 95 98 fd ff ff    	lea    0xfffffd98(%ebp),%edx
    1109:	0f 85 12 02 00 00    	jne    1321 <main+0x2f9>
    110f:	8b 8d 50 fb ff ff    	mov    0xfffffb50(%ebp),%ecx
    1115:	89 34 8d 04 84 04 00 	mov    %esi,0x48404(,%ecx,4)
    111c:	8b 3d 04 84 04 00    	mov    0x48404,%edi
    1122:	be 25 77 00 00       	mov    $0x7725,%esi
    1127:	b9 0d 00 00 00       	mov    $0xd,%ecx
    112c:	fc                   	cld    
    112d:	f3 a6                	repz cmpsb %es:(%edi),%ds:(%esi)
    112f:	0f 85 d7 01 00 00    	jne    130c <main+0x2e4>
    1135:	c7 05 08 84 04 00 06 	movl   $0x7706,0x48408
    113c:	77 00 00 
    113f:	c7 85 50 fb ff ff 02 	movl   $0x2,0xfffffb50(%ebp)
    1146:	00 00 00 
    1149:	c7 05 00 84 04 00 01 	movl   $0x1,0x48400
    1150:	00 00 00 
    1153:	83 ec 0c             	sub    $0xc,%esp
    1156:	68 a0 78 00 00       	push   $0x78a0
    115b:	8b 85 50 fb ff ff    	mov    0xfffffb50(%ebp),%eax
    1161:	c7 04 85 04 84 04 00 	movl   $0x0,0x48404(,%eax,4)
    1168:	00 00 00 00 
    116c:	31 db                	xor    %ebx,%ebx
    116e:	e8 2b 22 00 00       	call   339e <putenv>
    1173:	8d bd 08 fd ff ff    	lea    0xfffffd08(%ebp),%edi
    1179:	c7 04 24 69 77 00 00 	movl   $0x7769,(%esp,1)
    1180:	e8 19 22 00 00       	call   339e <putenv>
    1185:	c7 04 24 74 77 00 00 	movl   $0x7774,(%esp,1)
    118c:	e8 0d 22 00 00       	call   339e <putenv>
    1191:	c7 04 24 80 77 00 00 	movl   $0x7780,(%esp,1)
    1198:	e8 01 22 00 00       	call   339e <putenv>
    119d:	c7 04 24 90 77 00 00 	movl   $0x7790,(%esp,1)
    11a4:	e8 f5 21 00 00       	call   339e <putenv>
    11a9:	c7 04 24 9b 77 00 00 	movl   $0x779b,(%esp,1)
    11b0:	e8 e9 21 00 00       	call   339e <putenv>
    11b5:	83 c4 10             	add    $0x10,%esp
    11b8:	50                   	push   %eax
    11b9:	6a 00                	push   $0x0
    11bb:	57                   	push   %edi
    11bc:	53                   	push   %ebx
    11bd:	43                   	inc    %ebx
    11be:	c7 85 08 fd ff ff 01 	movl   $0x1,0xfffffd08(%ebp)
    11c5:	00 00 00 
    11c8:	c7 85 8c fd ff ff 00 	movl   $0x40000000,0xfffffd8c(%ebp)
    11cf:	00 00 40 
    11d2:	e8 29 1c 00 00       	call   2e00 <__libc_sigaction>
    11d7:	83 c4 10             	add    $0x10,%esp
    11da:	83 fb 1f             	cmp    $0x1f,%ebx
    11dd:	7e d9                	jle    11b8 <main+0x190>
    11df:	57                   	push   %edi
    11e0:	6a 00                	push   $0x0
    11e2:	8d b5 78 fc ff ff    	lea    0xfffffc78(%ebp),%esi
    11e8:	56                   	push   %esi
    11e9:	6a 11                	push   $0x11
    11eb:	c7 85 78 fc ff ff 00 	movl   $0x0,0xfffffc78(%ebp)
    11f2:	00 00 00 
    11f5:	c7 85 fc fc ff ff 00 	movl   $0x40000000,0xfffffcfc(%ebp)
    11fc:	00 00 40 
    11ff:	e8 fc 1b 00 00       	call   2e00 <__libc_sigaction>
    1204:	8b 1d 00 84 04 00    	mov    0x48400,%ebx
    120a:	83 c4 10             	add    $0x10,%esp
    120d:	85 db                	test   %ebx,%ebx
    120f:	75 0e                	jne    121f <main+0x1f7>
    1211:	8b 95 4c fb ff ff    	mov    0xfffffb4c(%ebp),%edx
    1217:	85 d2                	test   %edx,%edx
    1219:	0f 85 d3 00 00 00    	jne    12f2 <main+0x2ca>
    121f:	83 ec 0c             	sub    $0xc,%esp
    1222:	68 aa 77 00 00       	push   $0x77aa
    1227:	e8 74 05 00 00       	call   17a0 <puts>
    122c:	83 c4 10             	add    $0x10,%esp
    122f:	8d bd e8 fb ff ff    	lea    0xfffffbe8(%ebp),%edi
    1235:	8d b5 58 fb ff ff    	lea    0xfffffb58(%ebp),%esi
    123b:	31 db                	xor    %ebx,%ebx
    123d:	8d 76 00             	lea    0x0(%esi),%esi
    1240:	51                   	push   %ecx
    1241:	6a 00                	push   $0x0
    1243:	57                   	push   %edi
    1244:	53                   	push   %ebx
    1245:	43                   	inc    %ebx
    1246:	c7 85 e8 fb ff ff 68 	movl   $0x1468,0xfffffbe8(%ebp)
    124d:	14 00 00 
    1250:	c7 85 6c fc ff ff 00 	movl   $0x40000000,0xfffffc6c(%ebp)
    1257:	00 00 40 
    125a:	e8 a1 1b 00 00       	call   2e00 <__libc_sigaction>
    125f:	83 c4 10             	add    $0x10,%esp
    1262:	83 fb 1f             	cmp    $0x1f,%ebx
    1265:	7e d9                	jle    1240 <main+0x218>
    1267:	52                   	push   %edx
    1268:	6a 00                	push   $0x0
    126a:	56                   	push   %esi
    126b:	6a 11                	push   $0x11
    126d:	c7 85 58 fb ff ff 00 	movl   $0x0,0xfffffb58(%ebp)
    1274:	00 00 00 
    1277:	c7 85 dc fb ff ff 00 	movl   $0x40000000,0xfffffbdc(%ebp)
    127e:	00 00 40 
    1281:	e8 7a 1b 00 00       	call   2e00 <__libc_sigaction>
    1286:	8b 0d 00 84 04 00    	mov    0x48400,%ecx
    128c:	83 c4 10             	add    $0x10,%esp
    128f:	85 c9                	test   %ecx,%ecx
    1291:	75 13                	jne    12a6 <main+0x27e>
    1293:	8b 9d 50 fb ff ff    	mov    0xfffffb50(%ebp),%ebx
    1299:	b8 04 84 04 00       	mov    $0x48404,%eax
    129e:	c7 44 98 fc 00 00 00 	movl   $0x0,0xfffffffc(%eax,%ebx,4)
    12a5:	00 
    12a6:	83 ec 0c             	sub    $0xc,%esp
    12a9:	68 04 84 04 00       	push   $0x48404
    12ae:	e8 e1 00 00 00       	call   1394 <prog_execute>
    12b3:	83 c4 10             	add    $0x10,%esp
    12b6:	85 c0                	test   %eax,%eax
    12b8:	0f 85 ca 00 00 00    	jne    1388 <main+0x360>
    12be:	83 ec 0c             	sub    $0xc,%esp
    12c1:	68 bc 77 00 00       	push   $0x77bc
    12c6:	e8 d5 04 00 00       	call   17a0 <puts>
    12cb:	83 c4 0c             	add    $0xc,%esp
    12ce:	6a 01                	push   $0x1
    12d0:	8d 95 57 fb ff ff    	lea    0xfffffb57(%ebp),%edx
    12d6:	52                   	push   %edx
    12d7:	6a 00                	push   $0x0
    12d9:	e8 ca 2a 00 00       	call   3da8 <__libc_read>
    12de:	c7 04 24 d7 77 00 00 	movl   $0x77d7,(%esp,1)
    12e5:	e8 b6 04 00 00       	call   17a0 <puts>
    12ea:	83 c4 10             	add    $0x10,%esp
    12ed:	e9 49 ff ff ff       	jmp    123b <main+0x213>
    12f2:	83 ec 0c             	sub    $0xc,%esp
    12f5:	68 04 84 04 00       	push   $0x48404
    12fa:	e8 95 00 00 00       	call   1394 <prog_execute>
    12ff:	83 c4 10             	add    $0x10,%esp
    1302:	85 c0                	test   %eax,%eax
    1304:	0f 84 25 ff ff ff    	je     122f <main+0x207>
    130a:	eb 7c                	jmp    1388 <main+0x360>
    130c:	89 1d 08 84 04 00    	mov    %ebx,0x48408
    1312:	c7 85 50 fb ff ff 02 	movl   $0x2,0xfffffb50(%ebp)
    1319:	00 00 00 
    131c:	e9 32 fe ff ff       	jmp    1153 <main+0x12b>
    1321:	83 ec 08             	sub    $0x8,%esp
    1324:	52                   	push   %edx
    1325:	50                   	push   %eax
    1326:	e8 ce 2d 00 00       	call   40f9 <stat>
    132b:	83 c4 10             	add    $0x10,%esp
    132e:	85 c0                	test   %eax,%eax
    1330:	0f 85 d9 fd ff ff    	jne    110f <main+0xe7>
    1336:	31 ff                	xor    %edi,%edi
    1338:	8b 1c bd 20 82 04 00 	mov    0x48220(,%edi,4),%ebx
    133f:	e9 cb fd ff ff       	jmp    110f <main+0xe7>
    1344:	8b 34 9d 00 82 04 00 	mov    0x48200(,%ebx,4),%esi
    134b:	e9 aa fd ff ff       	jmp    10fa <main+0xd2>
    1350:	83 ec 08             	sub    $0x8,%esp
    1353:	68 ea 77 00 00       	push   $0x77ea
    1358:	ff 34 9f             	pushl  (%edi,%ebx,4)
    135b:	e8 cc 18 00 00       	call   2c2c <strcasecmp>
    1360:	83 c4 10             	add    $0x10,%esp
    1363:	85 c0                	test   %eax,%eax
    1365:	74 0a                	je     1371 <main+0x349>
    1367:	43                   	inc    %ebx
    1368:	39 f3                	cmp    %esi,%ebx
    136a:	7c e4                	jl     1350 <main+0x328>
    136c:	e9 ea fc ff ff       	jmp    105b <main+0x33>
    1371:	83 ec 0c             	sub    $0xc,%esp
    1374:	ff 74 9f 04          	pushl  0x4(%edi,%ebx,4)
    1378:	e8 e3 1b 00 00       	call   2f60 <atoi>
    137d:	89 85 4c fb ff ff    	mov    %eax,0xfffffb4c(%ebp)
    1383:	83 c4 10             	add    $0x10,%esp
    1386:	eb df                	jmp    1367 <main+0x33f>
    1388:	83 ec 0c             	sub    $0xc,%esp
    138b:	6a 01                	push   $0x1
    138d:	e8 2e 1c 00 00       	call   2fc0 <exit>
    1392:	89 f6                	mov    %esi,%esi

00001394 <prog_execute>:
    1394:	55                   	push   %ebp
    1395:	89 e5                	mov    %esp,%ebp
    1397:	56                   	push   %esi
    1398:	53                   	push   %ebx
    1399:	83 ec 10             	sub    $0x10,%esp
    139c:	8b 75 08             	mov    0x8(%ebp),%esi
    139f:	8b 1e                	mov    (%esi),%ebx
    13a1:	85 db                	test   %ebx,%ebx
    13a3:	c7 45 f4 00 00 00 00 	movl   $0x0,0xfffffff4(%ebp)
    13aa:	74 75                	je     1421 <prog_execute+0x8d>
    13ac:	e8 c7 29 00 00       	call   3d78 <__libc_fork>
    13b1:	85 c0                	test   %eax,%eax
    13b3:	74 33                	je     13e8 <prog_execute+0x54>
    13b5:	85 c0                	test   %eax,%eax
    13b7:	7e 18                	jle    13d1 <prog_execute+0x3d>
    13b9:	83 ec 0c             	sub    $0xc,%esp
    13bc:	8d 55 f4             	lea    0xfffffff4(%ebp),%edx
    13bf:	52                   	push   %edx
    13c0:	e8 ef 28 00 00       	call   3cb4 <__libc_wait>
    13c5:	83 c4 10             	add    $0x10,%esp
    13c8:	31 c0                	xor    %eax,%eax
    13ca:	8d 65 f8             	lea    0xfffffff8(%ebp),%esp
    13cd:	5b                   	pop    %ebx
    13ce:	5e                   	pop    %esi
    13cf:	c9                   	leave  
    13d0:	c3                   	ret    
    13d1:	83 ec 0c             	sub    $0xc,%esp
    13d4:	68 ef 77 00 00       	push   $0x77ef
    13d9:	e8 66 03 00 00       	call   1744 <perror>
    13de:	b8 ff ff ff ff       	mov    $0xffffffff,%eax
    13e3:	eb e5                	jmp    13ca <prog_execute+0x36>
    13e5:	8d 76 00             	lea    0x0(%esi),%esi
    13e8:	83 ec 10             	sub    $0x10,%esp
    13eb:	e8 68 2b 00 00       	call   3f58 <__libc_getpid>
    13f0:	59                   	pop    %ecx
    13f1:	5a                   	pop    %edx
    13f2:	50                   	push   %eax
    13f3:	68 02 78 00 00       	push   $0x7802
    13f8:	e8 7f 04 00 00       	call   187c <printf>
    13fd:	83 c4 0c             	add    $0xc,%esp
    1400:	ff 35 ac af 04 00    	pushl  0x4afac
    1406:	56                   	push   %esi
    1407:	53                   	push   %ebx
    1408:	e8 07 2b 00 00       	call   3f14 <execve>
    140d:	e8 46 2b 00 00       	call   3f58 <__libc_getpid>
    1412:	5e                   	pop    %esi
    1413:	5a                   	pop    %edx
    1414:	50                   	push   %eax
    1415:	68 16 78 00 00       	push   $0x7816
    141a:	e8 5d 04 00 00       	call   187c <printf>
    141f:	eb a4                	jmp    13c5 <prog_execute+0x31>
    1421:	83 ec 0c             	sub    $0xc,%esp
    1424:	68 2f 78 00 00       	push   $0x782f
    1429:	e8 72 03 00 00       	call   17a0 <puts>
    142e:	c7 04 24 01 00 00 00 	movl   $0x1,(%esp,1)
    1435:	e8 86 1b 00 00       	call   2fc0 <exit>
    143a:	89 f6                	mov    %esi,%esi

0000143c <sigact>:
    143c:	55                   	push   %ebp
    143d:	89 e5                	mov    %esp,%ebp
    143f:	81 ec 9c 00 00 00    	sub    $0x9c,%esp
    1445:	8b 55 0c             	mov    0xc(%ebp),%edx
    1448:	6a 00                	push   $0x0
    144a:	89 95 68 ff ff ff    	mov    %edx,0xffffff68(%ebp)
    1450:	8d 95 68 ff ff ff    	lea    0xffffff68(%ebp),%edx
    1456:	52                   	push   %edx
    1457:	ff 75 08             	pushl  0x8(%ebp)
    145a:	c7 45 ec 00 00 00 40 	movl   $0x40000000,0xffffffec(%ebp)
    1461:	e8 9a 19 00 00       	call   2e00 <__libc_sigaction>
    1466:	c9                   	leave  
    1467:	c3                   	ret    

00001468 <sigh>:
    1468:	55                   	push   %ebp
    1469:	89 e5                	mov    %esp,%ebp
    146b:	57                   	push   %edi
    146c:	53                   	push   %ebx
    146d:	81 ec 04 10 00 00    	sub    $0x1004,%esp
    1473:	ff 75 08             	pushl  0x8(%ebp)
    1476:	68 47 78 00 00       	push   $0x7847
    147b:	8d 9d f8 ef ff ff    	lea    0xffffeff8(%ebp),%ebx
    1481:	53                   	push   %ebx
    1482:	e8 21 04 00 00       	call   18a8 <sprintf>
    1487:	89 df                	mov    %ebx,%edi
    1489:	fc                   	cld    
    148a:	31 c0                	xor    %eax,%eax
    148c:	b9 ff ff ff ff       	mov    $0xffffffff,%ecx
    1491:	f2 ae                	repnz scas %es:(%edi),%al
    1493:	f7 d1                	not    %ecx
    1495:	83 c4 0c             	add    $0xc,%esp
    1498:	49                   	dec    %ecx
    1499:	51                   	push   %ecx
    149a:	53                   	push   %ebx
    149b:	6a 01                	push   $0x1
    149d:	e8 4a 29 00 00       	call   3dec <__libc_write>
    14a2:	c7 04 24 00 00 00 00 	movl   $0x0,(%esp,1)
    14a9:	e8 12 1b 00 00       	call   2fc0 <exit>
    14ae:	89 f6                	mov    %esi,%esi

000014b0 <load_modules>:
    14b0:	55                   	push   %ebp
    14b1:	89 e5                	mov    %esp,%ebp
    14b3:	53                   	push   %ebx
    14b4:	83 ec 0c             	sub    $0xc,%esp
    14b7:	6a 00                	push   $0x0
    14b9:	68 5f 78 00 00       	push   $0x785f
    14be:	e8 6d 29 00 00       	call   3e30 <__libc_open>
    14c3:	89 c3                	mov    %eax,%ebx
    14c5:	83 c4 10             	add    $0x10,%esp
    14c8:	85 db                	test   %ebx,%ebx
    14ca:	b8 ff ff ff ff       	mov    $0xffffffff,%eax
    14cf:	78 15                	js     14e6 <load_modules+0x36>
    14d1:	51                   	push   %ecx
    14d2:	6a 00                	push   $0x0
    14d4:	6a 01                	push   $0x1
    14d6:	53                   	push   %ebx
    14d7:	e8 b1 2b 00 00       	call   408d <ioctl>
    14dc:	89 1c 24             	mov    %ebx,(%esp,1)
    14df:	e8 f4 29 00 00       	call   3ed8 <__libc_close>
    14e4:	31 c0                	xor    %eax,%eax
    14e6:	8b 5d fc             	mov    0xfffffffc(%ebp),%ebx
    14e9:	c9                   	leave  
    14ea:	c3                   	ret    
    14eb:	90                   	nop    

000014ec <test_file_system>:
    14ec:	55                   	push   %ebp
    14ed:	89 e5                	mov    %esp,%ebp
    14ef:	56                   	push   %esi
    14f0:	53                   	push   %ebx
    14f1:	81 ec 08 02 00 00    	sub    $0x208,%esp
    14f7:	6a 00                	push   $0x0
    14f9:	68 68 78 00 00       	push   $0x7868
    14fe:	e8 2d 29 00 00       	call   3e30 <__libc_open>
    1503:	89 c6                	mov    %eax,%esi
    1505:	c7 04 24 c0 78 00 00 	movl   $0x78c0,(%esp,1)
    150c:	e8 6b 03 00 00       	call   187c <printf>
    1511:	83 c4 10             	add    $0x10,%esp
    1514:	85 f6                	test   %esi,%esi
    1516:	78 30                	js     1548 <test_file_system+0x5c>
    1518:	51                   	push   %ecx
    1519:	68 00 02 00 00       	push   $0x200
    151e:	8d 9d f8 fd ff ff    	lea    0xfffffdf8(%ebp),%ebx
    1524:	53                   	push   %ebx
    1525:	56                   	push   %esi
    1526:	e8 7d 28 00 00       	call   3da8 <__libc_read>
    152b:	58                   	pop    %eax
    152c:	5a                   	pop    %edx
    152d:	53                   	push   %ebx
    152e:	68 00 79 00 00       	push   $0x7900
    1533:	e8 44 03 00 00       	call   187c <printf>
    1538:	89 34 24             	mov    %esi,(%esp,1)
    153b:	e8 98 29 00 00       	call   3ed8 <__libc_close>
    1540:	8d 65 f8             	lea    0xfffffff8(%ebp),%esp
    1543:	5b                   	pop    %ebx
    1544:	5e                   	pop    %esi
    1545:	c9                   	leave  
    1546:	c3                   	ret    
    1547:	90                   	nop    
    1548:	83 ec 0c             	sub    $0xc,%esp
    154b:	68 78 78 00 00       	push   $0x7878
    1550:	e8 4b 02 00 00       	call   17a0 <puts>
    1555:	eb e9                	jmp    1540 <test_file_system+0x54>
    1557:	90                   	nop    

00001558 <netbas_setup>:
    1558:	55                   	push   %ebp
    1559:	89 e5                	mov    %esp,%ebp
    155b:	57                   	push   %edi
    155c:	56                   	push   %esi
    155d:	31 ff                	xor    %edi,%edi
    155f:	53                   	push   %ebx
    1560:	89 f8                	mov    %edi,%eax
    1562:	89 fb                	mov    %edi,%ebx
    1564:	89 f9                	mov    %edi,%ecx
    1566:	89 fa                	mov    %edi,%edx
    1568:	89 fe                	mov    %edi,%esi
    156a:	cd 80                	int    $0x80
    156c:	5b                   	pop    %ebx
    156d:	5e                   	pop    %esi
    156e:	5f                   	pop    %edi
    156f:	c9                   	leave  
    1570:	c3                   	ret    
    1571:	8d 76 00             	lea    0x0(%esi),%esi

00001574 <tell>:
    1574:	55                   	push   %ebp
    1575:	89 e5                	mov    %esp,%ebp
    1577:	57                   	push   %edi
    1578:	83 ec 08             	sub    $0x8,%esp
    157b:	8b 55 0c             	mov    0xc(%ebp),%edx
    157e:	89 d7                	mov    %edx,%edi
    1580:	fc                   	cld    
    1581:	31 c0                	xor    %eax,%eax
    1583:	b9 ff ff ff ff       	mov    $0xffffffff,%ecx
    1588:	f2 ae                	repnz scas %es:(%edi),%al
    158a:	f7 d1                	not    %ecx
    158c:	49                   	dec    %ecx
    158d:	51                   	push   %ecx
    158e:	52                   	push   %edx
    158f:	ff 75 08             	pushl  0x8(%ebp)
    1592:	e8 55 28 00 00       	call   3dec <__libc_write>
    1597:	8b 7d fc             	mov    0xfffffffc(%ebp),%edi
    159a:	c9                   	leave  
    159b:	c3                   	ret    

0000159c <report>:
    159c:	55                   	push   %ebp
    159d:	89 e5                	mov    %esp,%ebp
    159f:	57                   	push   %edi
    15a0:	56                   	push   %esi
    15a1:	53                   	push   %ebx
    15a2:	83 ec 10             	sub    $0x10,%esp
    15a5:	8b 15 24 84 04 00    	mov    0x48424,%edx
    15ab:	31 db                	xor    %ebx,%ebx
    15ad:	89 55 f0             	mov    %edx,0xfffffff0(%ebp)
    15b0:	ba 7e 78 00 00       	mov    $0x787e,%edx
    15b5:	89 d7                	mov    %edx,%edi
    15b7:	fc                   	cld    
    15b8:	88 d8                	mov    %bl,%al
    15ba:	b9 ff ff ff ff       	mov    $0xffffffff,%ecx
    15bf:	f2 ae                	repnz scas %es:(%edi),%al
    15c1:	f7 d1                	not    %ecx
    15c3:	49                   	dec    %ecx
    15c4:	51                   	push   %ecx
    15c5:	52                   	push   %edx
    15c6:	8b 75 0c             	mov    0xc(%ebp),%esi
    15c9:	ff 75 08             	pushl  0x8(%ebp)
    15cc:	e8 1b 28 00 00       	call   3dec <__libc_write>
    15d1:	89 f7                	mov    %esi,%edi
    15d3:	fc                   	cld    
    15d4:	88 d8                	mov    %bl,%al
    15d6:	b9 ff ff ff ff       	mov    $0xffffffff,%ecx
    15db:	f2 ae                	repnz scas %es:(%edi),%al
    15dd:	f7 d1                	not    %ecx
    15df:	83 c4 0c             	add    $0xc,%esp
    15e2:	49                   	dec    %ecx
    15e3:	51                   	push   %ecx
    15e4:	56                   	push   %esi
    15e5:	ff 75 08             	pushl  0x8(%ebp)
    15e8:	be 82 78 00 00       	mov    $0x7882,%esi
    15ed:	e8 fa 27 00 00       	call   3dec <__libc_write>
    15f2:	89 f7                	mov    %esi,%edi
    15f4:	fc                   	cld    
    15f5:	88 d8                	mov    %bl,%al
    15f7:	b9 ff ff ff ff       	mov    $0xffffffff,%ecx
    15fc:	f2 ae                	repnz scas %es:(%edi),%al
    15fe:	f7 d1                	not    %ecx
    1600:	83 c4 0c             	add    $0xc,%esp
    1603:	49                   	dec    %ecx
    1604:	51                   	push   %ecx
    1605:	56                   	push   %esi
    1606:	ff 75 08             	pushl  0x8(%ebp)
    1609:	e8 de 27 00 00       	call   3dec <__libc_write>
    160e:	5e                   	pop    %esi
    160f:	ff 75 f0             	pushl  0xfffffff0(%ebp)
    1612:	e8 8d 16 00 00       	call   2ca4 <strerror>
    1617:	89 45 ec             	mov    %eax,0xffffffec(%ebp)
    161a:	89 c6                	mov    %eax,%esi
    161c:	fc                   	cld    
    161d:	89 c7                	mov    %eax,%edi
    161f:	b9 ff ff ff ff       	mov    $0xffffffff,%ecx
    1624:	88 d8                	mov    %bl,%al
    1626:	f2 ae                	repnz scas %es:(%edi),%al
    1628:	f7 d1                	not    %ecx
    162a:	83 c4 0c             	add    $0xc,%esp
    162d:	49                   	dec    %ecx
    162e:	51                   	push   %ecx
    162f:	56                   	push   %esi
    1630:	ff 75 08             	pushl  0x8(%ebp)
    1633:	be 2d 78 00 00       	mov    $0x782d,%esi
    1638:	e8 af 27 00 00       	call   3dec <__libc_write>
    163d:	89 f7                	mov    %esi,%edi
    163f:	88 d8                	mov    %bl,%al
    1641:	fc                   	cld    
    1642:	b9 ff ff ff ff       	mov    $0xffffffff,%ecx
    1647:	f2 ae                	repnz scas %es:(%edi),%al
    1649:	f7 d1                	not    %ecx
    164b:	83 c4 0c             	add    $0xc,%esp
    164e:	49                   	dec    %ecx
    164f:	51                   	push   %ecx
    1650:	56                   	push   %esi
    1651:	ff 75 08             	pushl  0x8(%ebp)
    1654:	e8 93 27 00 00       	call   3dec <__libc_write>
    1659:	8b 55 f0             	mov    0xfffffff0(%ebp),%edx
    165c:	89 15 24 84 04 00    	mov    %edx,0x48424
    1662:	83 c4 10             	add    $0x10,%esp
    1665:	8d 65 f4             	lea    0xfffffff4(%ebp),%esp
    1668:	5b                   	pop    %ebx
    1669:	5e                   	pop    %esi
    166a:	5f                   	pop    %edi
    166b:	c9                   	leave  
    166c:	c3                   	ret    
    166d:	90                   	nop    
    166e:	90                   	nop    
    166f:	90                   	nop    

00001670 <__uClibc_init>:
    1670:	55                   	push   %ebp
    1671:	89 e5                	mov    %esp,%ebp
    1673:	83 ec 08             	sub    $0x8,%esp
    1676:	83 3d 1c 84 04 00 00 	cmpl   $0x0,0x4841c
    167d:	74 02                	je     1681 <__uClibc_init+0x11>
    167f:	eb 22                	jmp    16a3 <__uClibc_init+0x33>
    1681:	ff 05 1c 84 04 00    	incl   0x4841c
    1687:	b8 06 57 00 00       	mov    $0x5706,%eax
    168c:	85 c0                	test   %eax,%eax
    168e:	74 05                	je     1695 <__uClibc_init+0x25>
    1690:	e8 71 40 00 00       	call   5706 <_locale_init>
    1695:	b8 f9 17 00 00       	mov    $0x17f9,%eax
    169a:	85 c0                	test   %eax,%eax
    169c:	74 05                	je     16a3 <__uClibc_init+0x33>
    169e:	e8 56 01 00 00       	call   17f9 <_stdio_init>
    16a3:	c9                   	leave  
    16a4:	c3                   	ret    

000016a5 <__uClibc_start_main>:
    16a5:	55                   	push   %ebp
    16a6:	89 e5                	mov    %esp,%ebp
    16a8:	83 ec 08             	sub    $0x8,%esp
    16ab:	e8 12 2e 00 00       	call   44c2 <__init_library>
    16b0:	83 3d 14 84 04 00 00 	cmpl   $0x0,0x48414
    16b7:	75 08                	jne    16c1 <__uClibc_start_main+0x1c>
    16b9:	8b 45 10             	mov    0x10(%ebp),%eax
    16bc:	a3 14 84 04 00       	mov    %eax,0x48414
    16c1:	e8 aa ff ff ff       	call   1670 <__uClibc_init>
    16c6:	8b 45 0c             	mov    0xc(%ebp),%eax
    16c9:	8b 00                	mov    (%eax),%eax
    16cb:	a3 18 84 04 00       	mov    %eax,0x48418
    16d0:	8b 45 18             	mov    0x18(%ebp),%eax
    16d3:	a3 20 84 04 00       	mov    %eax,0x48420
    16d8:	83 7d 14 00          	cmpl   $0x0,0x14(%ebp)
    16dc:	74 05                	je     16e3 <__uClibc_start_main+0x3e>
    16de:	8b 45 14             	mov    0x14(%ebp),%eax
    16e1:	ff d0                	call   *%eax
    16e3:	b8 00 00 00 00       	mov    $0x0,%eax
    16e8:	85 c0                	test   %eax,%eax
    16ea:	74 0b                	je     16f7 <__uClibc_start_main+0x52>
    16ec:	e8 0f e9 ff ff       	call   0 <_start-0x1000>
    16f1:	c7 00 00 00 00 00    	movl   $0x0,(%eax)
    16f7:	b8 00 00 00 00       	mov    $0x0,%eax
    16fc:	85 c0                	test   %eax,%eax
    16fe:	74 0b                	je     170b <__uClibc_start_main+0x66>
    1700:	e8 fb e8 ff ff       	call   0 <_start-0x1000>
    1705:	c7 00 00 00 00 00    	movl   $0x0,(%eax)
    170b:	83 ec 0c             	sub    $0xc,%esp
    170e:	83 ec 08             	sub    $0x8,%esp
    1711:	ff 75 10             	pushl  0x10(%ebp)
    1714:	ff 75 0c             	pushl  0xc(%ebp)
    1717:	ff 75 08             	pushl  0x8(%ebp)
    171a:	e8 09 f9 ff ff       	call   1028 <main>
    171f:	83 c4 14             	add    $0x14,%esp
    1722:	50                   	push   %eax
    1723:	e8 98 18 00 00       	call   2fc0 <exit>

00001728 <__uClibc_main>:
    1728:	55                   	push   %ebp
    1729:	89 e5                	mov    %esp,%ebp
    172b:	83 ec 08             	sub    $0x8,%esp
    172e:	83 ec 0c             	sub    $0xc,%esp
    1731:	6a 00                	push   $0x0
    1733:	6a 00                	push   $0x0
    1735:	ff 75 10             	pushl  0x10(%ebp)
    1738:	ff 75 0c             	pushl  0xc(%ebp)
    173b:	ff 75 08             	pushl  0x8(%ebp)
    173e:	e8 62 ff ff ff       	call   16a5 <__uClibc_start_main>
    1743:	90                   	nop    

00001744 <perror>:
    1744:	55                   	push   %ebp
    1745:	89 e5                	mov    %esp,%ebp
    1747:	83 ec 58             	sub    $0x58,%esp
    174a:	c7 45 b4 1f 79 00 00 	movl   $0x791f,0xffffffb4(%ebp)
    1751:	83 7d 08 00          	cmpl   $0x0,0x8(%ebp)
    1755:	74 08                	je     175f <perror+0x1b>
    1757:	8b 45 08             	mov    0x8(%ebp),%eax
    175a:	80 38 00             	cmpb   $0x0,(%eax)
    175d:	75 0a                	jne    1769 <perror+0x25>
    175f:	83 45 b4 02          	addl   $0x2,0xffffffb4(%ebp)
    1763:	8b 45 b4             	mov    0xffffffb4(%ebp),%eax
    1766:	89 45 08             	mov    %eax,0x8(%ebp)
    1769:	83 ec 0c             	sub    $0xc,%esp
    176c:	83 ec 08             	sub    $0x8,%esp
    176f:	6a 40                	push   $0x40
    1771:	8d 45 b8             	lea    0xffffffb8(%ebp),%eax
    1774:	50                   	push   %eax
    1775:	ff 35 24 84 04 00    	pushl  0x48424
    177b:	e8 38 16 00 00       	call   2db8 <_glibc_strerror_r>
    1780:	83 c4 14             	add    $0x14,%esp
    1783:	50                   	push   %eax
    1784:	ff 75 b4             	pushl  0xffffffb4(%ebp)
    1787:	ff 75 08             	pushl  0x8(%ebp)
    178a:	68 22 79 00 00       	push   $0x7922
    178f:	ff 35 cc 82 04 00    	pushl  0x482cc
    1795:	e8 ba 00 00 00       	call   1854 <fprintf>
    179a:	83 c4 20             	add    $0x20,%esp
    179d:	c9                   	leave  
    179e:	c3                   	ret    
    179f:	90                   	nop    

000017a0 <puts>:
    17a0:	55                   	push   %ebp
    17a1:	89 e5                	mov    %esp,%ebp
    17a3:	53                   	push   %ebx
    17a4:	83 ec 04             	sub    $0x4,%esp
    17a7:	8b 45 08             	mov    0x8(%ebp),%eax
    17aa:	8b 1d c8 82 04 00    	mov    0x482c8,%ebx
    17b0:	83 ec 08             	sub    $0x8,%esp
    17b3:	53                   	push   %ebx
    17b4:	50                   	push   %eax
    17b5:	e8 56 40 00 00       	call   5810 <fputs>
    17ba:	83 c4 10             	add    $0x10,%esp
    17bd:	40                   	inc    %eax
    17be:	89 45 f8             	mov    %eax,0xfffffff8(%ebp)
    17c1:	83 ec 08             	sub    $0x8,%esp
    17c4:	53                   	push   %ebx
    17c5:	6a 0a                	push   $0xa
    17c7:	e8 0c 40 00 00       	call   57d8 <fputc>
    17cc:	83 c4 10             	add    $0x10,%esp
    17cf:	83 f8 ff             	cmp    $0xffffffff,%eax
    17d2:	75 07                	jne    17db <puts+0x3b>
    17d4:	c7 45 f8 ff ff ff ff 	movl   $0xffffffff,0xfffffff8(%ebp)
    17db:	8b 45 f8             	mov    0xfffffff8(%ebp),%eax
    17de:	8b 5d fc             	mov    0xfffffffc(%ebp),%ebx
    17e1:	c9                   	leave  
    17e2:	c3                   	ret    
    17e3:	90                   	nop    

000017e4 <_stdio_term>:
    17e4:	55                   	push   %ebp
    17e5:	89 e5                	mov    %esp,%ebp
    17e7:	83 ec 08             	sub    $0x8,%esp
    17ea:	83 ec 0c             	sub    $0xc,%esp
    17ed:	6a 00                	push   $0x0
    17ef:	e8 2c 3f 00 00       	call   5720 <fflush>
    17f4:	83 c4 10             	add    $0x10,%esp
    17f7:	c9                   	leave  
    17f8:	c3                   	ret    

000017f9 <_stdio_init>:
    17f9:	55                   	push   %ebp
    17fa:	89 e5                	mov    %esp,%ebp
    17fc:	83 ec 08             	sub    $0x8,%esp
    17ff:	a1 24 84 04 00       	mov    0x48424,%eax
    1804:	89 45 fc             	mov    %eax,0xfffffffc(%ebp)
    1807:	83 ec 0c             	sub    $0xc,%esp
    180a:	6a 00                	push   $0x0
    180c:	e8 c7 15 00 00       	call   2dd8 <isatty>
    1811:	83 c4 10             	add    $0x10,%esp
    1814:	89 c2                	mov    %eax,%edx
    1816:	b8 01 00 00 00       	mov    $0x1,%eax
    181b:	29 d0                	sub    %edx,%eax
    181d:	c1 e0 08             	shl    $0x8,%eax
    1820:	66 31 05 40 82 04 00 	xor    %ax,0x48240
    1827:	83 ec 0c             	sub    $0xc,%esp
    182a:	6a 01                	push   $0x1
    182c:	e8 a7 15 00 00       	call   2dd8 <isatty>
    1831:	83 c4 10             	add    $0x10,%esp
    1834:	89 c2                	mov    %eax,%edx
    1836:	b8 01 00 00 00       	mov    $0x1,%eax
    183b:	29 d0                	sub    %edx,%eax
    183d:	c1 e0 08             	shl    $0x8,%eax
    1840:	66 31 05 6c 82 04 00 	xor    %ax,0x4826c
    1847:	8b 45 fc             	mov    0xfffffffc(%ebp),%eax
    184a:	a3 24 84 04 00       	mov    %eax,0x48424
    184f:	c9                   	leave  
    1850:	c3                   	ret    
    1851:	90                   	nop    
    1852:	90                   	nop    
    1853:	90                   	nop    

00001854 <fprintf>:
    1854:	55                   	push   %ebp
    1855:	89 e5                	mov    %esp,%ebp
    1857:	83 ec 08             	sub    $0x8,%esp
    185a:	8d 45 10             	lea    0x10(%ebp),%eax
    185d:	89 45 fc             	mov    %eax,0xfffffffc(%ebp)
    1860:	83 ec 04             	sub    $0x4,%esp
    1863:	ff 75 fc             	pushl  0xfffffffc(%ebp)
    1866:	ff 75 0c             	pushl  0xc(%ebp)
    1869:	ff 75 08             	pushl  0x8(%ebp)
    186c:	e8 14 08 00 00       	call   2085 <vfprintf>
    1871:	83 c4 10             	add    $0x10,%esp
    1874:	89 45 f8             	mov    %eax,0xfffffff8(%ebp)
    1877:	8b 45 f8             	mov    0xfffffff8(%ebp),%eax
    187a:	c9                   	leave  
    187b:	c3                   	ret    

0000187c <printf>:
    187c:	55                   	push   %ebp
    187d:	89 e5                	mov    %esp,%ebp
    187f:	83 ec 08             	sub    $0x8,%esp
    1882:	8d 45 0c             	lea    0xc(%ebp),%eax
    1885:	89 45 fc             	mov    %eax,0xfffffffc(%ebp)
    1888:	83 ec 04             	sub    $0x4,%esp
    188b:	ff 75 fc             	pushl  0xfffffffc(%ebp)
    188e:	ff 75 08             	pushl  0x8(%ebp)
    1891:	ff 35 c8 82 04 00    	pushl  0x482c8
    1897:	e8 e9 07 00 00       	call   2085 <vfprintf>
    189c:	83 c4 10             	add    $0x10,%esp
    189f:	89 45 f8             	mov    %eax,0xfffffff8(%ebp)
    18a2:	8b 45 f8             	mov    0xfffffff8(%ebp),%eax
    18a5:	c9                   	leave  
    18a6:	c3                   	ret    
    18a7:	90                   	nop    

000018a8 <sprintf>:
    18a8:	55                   	push   %ebp
    18a9:	89 e5                	mov    %esp,%ebp
    18ab:	83 ec 08             	sub    $0x8,%esp
    18ae:	8d 45 10             	lea    0x10(%ebp),%eax
    18b1:	89 45 fc             	mov    %eax,0xfffffffc(%ebp)
    18b4:	ff 75 fc             	pushl  0xfffffffc(%ebp)
    18b7:	ff 75 0c             	pushl  0xc(%ebp)
    18ba:	6a ff                	push   $0xffffffff
    18bc:	ff 75 08             	pushl  0x8(%ebp)
    18bf:	e8 e8 46 00 00       	call   5fac <vsnprintf>
    18c4:	83 c4 10             	add    $0x10,%esp
    18c7:	89 45 f8             	mov    %eax,0xfffffff8(%ebp)
    18ca:	8b 45 f8             	mov    0xfffffff8(%ebp),%eax
    18cd:	c9                   	leave  
    18ce:	c3                   	ret    
    18cf:	90                   	nop    
    18d0:	55                   	push   %ebp
    18d1:	89 e5                	mov    %esp,%ebp
    18d3:	83 ec 08             	sub    $0x8,%esp
    18d6:	b0 80                	mov    $0x80,%al
    18d8:	23 45 0c             	and    0xc(%ebp),%eax
    18db:	84 c0                	test   %al,%al
    18dd:	74 3e                	je     191d <sprintf+0x75>
    18df:	83 ec 0c             	sub    $0xc,%esp
    18e2:	ff 75 14             	pushl  0x14(%ebp)
    18e5:	e8 66 13 00 00       	call   2c50 <strlen>
    18ea:	83 c4 10             	add    $0x10,%esp
    18ed:	89 45 fc             	mov    %eax,0xfffffffc(%ebp)
    18f0:	8b 55 fc             	mov    0xfffffffc(%ebp),%edx
    18f3:	8d 45 10             	lea    0x10(%ebp),%eax
    18f6:	29 10                	sub    %edx,(%eax)
    18f8:	8b 45 10             	mov    0x10(%ebp),%eax
    18fb:	85 c0                	test   %eax,%eax
    18fd:	7e 18                	jle    1917 <sprintf+0x6f>
    18ff:	83 ec 04             	sub    $0x4,%esp
    1902:	ff 75 10             	pushl  0x10(%ebp)
    1905:	8b 45 0c             	mov    0xc(%ebp),%eax
    1908:	83 e0 7f             	and    $0x7f,%eax
    190b:	50                   	push   %eax
    190c:	ff 75 08             	pushl  0x8(%ebp)
    190f:	e8 1f 00 00 00       	call   1933 <sprintf+0x8b>
    1914:	83 c4 10             	add    $0x10,%esp
    1917:	8b 45 fc             	mov    0xfffffffc(%ebp),%eax
    191a:	89 45 10             	mov    %eax,0x10(%ebp)
    191d:	83 ec 04             	sub    $0x4,%esp
    1920:	ff 75 08             	pushl  0x8(%ebp)
    1923:	ff 75 10             	pushl  0x10(%ebp)
    1926:	ff 75 14             	pushl  0x14(%ebp)
    1929:	e8 28 40 00 00       	call   5956 <_stdio_fwrite>
    192e:	83 c4 10             	add    $0x10,%esp
    1931:	c9                   	leave  
    1932:	c3                   	ret    
    1933:	55                   	push   %ebp
    1934:	89 e5                	mov    %esp,%ebp
    1936:	83 ec 08             	sub    $0x8,%esp
    1939:	8a 45 0c             	mov    0xc(%ebp),%al
    193c:	88 45 ff             	mov    %al,0xffffffff(%ebp)
    193f:	83 7d 10 00          	cmpl   $0x0,0x10(%ebp)
    1943:	75 02                	jne    1947 <sprintf+0x9f>
    1945:	eb 1b                	jmp    1962 <sprintf+0xba>
    1947:	83 ec 04             	sub    $0x4,%esp
    194a:	ff 75 08             	pushl  0x8(%ebp)
    194d:	6a 01                	push   $0x1
    194f:	8d 45 ff             	lea    0xffffffff(%ebp),%eax
    1952:	50                   	push   %eax
    1953:	e8 fe 3f 00 00       	call   5956 <_stdio_fwrite>
    1958:	83 c4 10             	add    $0x10,%esp
    195b:	8d 45 10             	lea    0x10(%ebp),%eax
    195e:	ff 08                	decl   (%eax)
    1960:	eb dd                	jmp    193f <sprintf+0x97>
    1962:	c9                   	leave  
    1963:	c3                   	ret    
    1964:	55                   	push   %ebp
    1965:	89 e5                	mov    %esp,%ebp
    1967:	81 ec 18 01 00 00    	sub    $0x118,%esp
    196d:	c7 45 ec 00 00 00 00 	movl   $0x0,0xffffffec(%ebp)
    1974:	c7 45 d4 00 00 00 00 	movl   $0x0,0xffffffd4(%ebp)
    197b:	c7 45 d0 0b 00 00 00 	movl   $0xb,0xffffffd0(%ebp)
    1982:	c6 45 cf 20          	movb   $0x20,0xffffffcf(%ebp)
    1986:	83 ec 0c             	sub    $0xc,%esp
    1989:	ff 75 0c             	pushl  0xc(%ebp)
    198c:	e8 19 4c 00 00       	call   65aa <_ppfs_parsespec>
    1991:	83 c4 10             	add    $0x10,%esp
    1994:	83 ec 0c             	sub    $0xc,%esp
    1997:	ff 75 0c             	pushl  0xc(%ebp)
    199a:	e8 11 49 00 00       	call   62b0 <_ppfs_setargs>
    199f:	83 c4 10             	add    $0x10,%esp
    19a2:	8b 55 0c             	mov    0xc(%ebp),%edx
    19a5:	0f b6 42 26          	movzbl 0x26(%edx),%eax
    19a9:	c1 e0 02             	shl    $0x2,%eax
    19ac:	03 45 0c             	add    0xc(%ebp),%eax
    19af:	83 c0 24             	add    $0x24,%eax
    19b2:	89 45 f0             	mov    %eax,0xfffffff0(%ebp)
    19b5:	8b 4d 0c             	mov    0xc(%ebp),%ecx
    19b8:	83 c1 50             	add    $0x50,%ecx
    19bb:	89 8d 38 ff ff ff    	mov    %ecx,0xffffff38(%ebp)
    19c1:	8b 45 0c             	mov    0xc(%ebp),%eax
    19c4:	83 78 18 00          	cmpl   $0x0,0x18(%eax)
    19c8:	7e 21                	jle    19eb <sprintf+0x143>
    19ca:	8b 55 0c             	mov    0xc(%ebp),%edx
    19cd:	0f b6 42 26          	movzbl 0x26(%edx),%eax
    19d1:	89 c2                	mov    %eax,%edx
    19d3:	d1 e2                	shl    %edx
    19d5:	01 c2                	add    %eax,%edx
    19d7:	8d 04 95 00 00 00 00 	lea    0x0(,%edx,4),%eax
    19de:	01 85 38 ff ff ff    	add    %eax,0xffffff38(%ebp)
    19e4:	83 ad 38 ff ff ff 0c 	subl   $0xc,0xffffff38(%ebp)
    19eb:	c7 85 44 ff ff ff 00 	movl   $0x0,0xffffff44(%ebp)
    19f2:	00 00 00 
    19f5:	8b 85 44 ff ff ff    	mov    0xffffff44(%ebp),%eax
    19fb:	8b 4d 0c             	mov    0xc(%ebp),%ecx
    19fe:	3b 41 1c             	cmp    0x1c(%ecx),%eax
    1a01:	7c 02                	jl     1a05 <sprintf+0x15d>
    1a03:	eb 21                	jmp    1a26 <sprintf+0x17e>
    1a05:	8b 95 44 ff ff ff    	mov    0xffffff44(%ebp),%edx
    1a0b:	8b 85 38 ff ff ff    	mov    0xffffff38(%ebp),%eax
    1a11:	89 44 95 f4          	mov    %eax,0xfffffff4(%ebp,%edx,4)
    1a15:	83 85 38 ff ff ff 0c 	addl   $0xc,0xffffff38(%ebp)
    1a1c:	8d 85 44 ff ff ff    	lea    0xffffff44(%ebp),%eax
    1a22:	ff 00                	incl   (%eax)
    1a24:	eb cf                	jmp    19f5 <sprintf+0x14d>
    1a26:	c7 85 34 ff ff ff 00 	movl   $0x0,0xffffff34(%ebp)
    1a2d:	00 00 00 
    1a30:	8b 45 0c             	mov    0xc(%ebp),%eax
    1a33:	83 78 20 00          	cmpl   $0x0,0x20(%eax)
    1a37:	75 30                	jne    1a69 <sprintf+0x1c1>
    1a39:	8b 45 10             	mov    0x10(%ebp),%eax
    1a3c:	8b 00                	mov    (%eax),%eax
    1a3e:	99                   	cltd   
    1a3f:	52                   	push   %edx
    1a40:	50                   	push   %eax
    1a41:	8b 55 0c             	mov    0xc(%ebp),%edx
    1a44:	8b 42 10             	mov    0x10(%edx),%eax
    1a47:	25 00 0f 00 00       	and    $0xf00,%eax
    1a4c:	50                   	push   %eax
    1a4d:	8b 45 f4             	mov    0xfffffff4(%ebp),%eax
    1a50:	ff 30                	pushl  (%eax)
    1a52:	e8 dd 45 00 00       	call   6034 <_store_inttype>
    1a57:	83 c4 10             	add    $0x10,%esp
    1a5a:	c7 85 3c ff ff ff 00 	movl   $0x0,0xffffff3c(%ebp)
    1a61:	00 00 00 
    1a64:	e9 14 06 00 00       	jmp    207d <sprintf+0x7d5>
    1a69:	8b 4d 0c             	mov    0xc(%ebp),%ecx
    1a6c:	83 79 20 07          	cmpl   $0x7,0x20(%ecx)
    1a70:	0f 87 36 02 00 00    	ja     1cac <sprintf+0x404>
    1a76:	c7 45 d8 57 00 00 00 	movl   $0x57,0xffffffd8(%ebp)
    1a7d:	8b 55 0c             	mov    0xc(%ebp),%edx
    1a80:	8b 42 20             	mov    0x20(%edx),%eax
    1a83:	05 29 79 00 00       	add    $0x7929,%eax
    1a88:	0f be 00             	movsbl (%eax),%eax
    1a8b:	89 45 e0             	mov    %eax,0xffffffe0(%ebp)
    1a8e:	8b 45 e0             	mov    0xffffffe0(%ebp),%eax
    1a91:	83 f8 0a             	cmp    $0xa,%eax
    1a94:	75 2a                	jne    1ac0 <sprintf+0x218>
    1a96:	8b 4d 0c             	mov    0xc(%ebp),%ecx
    1a99:	8b 41 10             	mov    0x10(%ecx),%eax
    1a9c:	83 e0 20             	and    $0x20,%eax
    1a9f:	85 c0                	test   %eax,%eax
    1aa1:	74 07                	je     1aaa <sprintf+0x202>
    1aa3:	c7 45 d8 2c 00 00 00 	movl   $0x2c,0xffffffd8(%ebp)
    1aaa:	8b 55 0c             	mov    0xc(%ebp),%edx
    1aad:	8b 42 10             	mov    0x10(%edx),%eax
    1ab0:	83 e0 40             	and    $0x40,%eax
    1ab3:	85 c0                	test   %eax,%eax
    1ab5:	74 09                	je     1ac0 <sprintf+0x218>
    1ab7:	8d 45 d8             	lea    0xffffffd8(%ebp),%eax
    1aba:	81 08 80 00 00 00    	orl    $0x80,(%eax)
    1ac0:	8b 4d 0c             	mov    0xc(%ebp),%ecx
    1ac3:	83 79 20 05          	cmpl   $0x5,0x20(%ecx)
    1ac7:	77 22                	ja     1aeb <sprintf+0x243>
    1ac9:	8b 45 0c             	mov    0xc(%ebp),%eax
    1acc:	83 78 20 03          	cmpl   $0x3,0x20(%eax)
    1ad0:	75 07                	jne    1ad9 <sprintf+0x231>
    1ad2:	c7 45 d8 37 00 00 00 	movl   $0x37,0xffffffd8(%ebp)
    1ad9:	8b 55 0c             	mov    0xc(%ebp),%edx
    1adc:	83 7a 20 01          	cmpl   $0x1,0x20(%edx)
    1ae0:	75 0e                	jne    1af0 <sprintf+0x248>
    1ae2:	c7 45 d0 06 00 00 00 	movl   $0x6,0xffffffd0(%ebp)
    1ae9:	eb 05                	jmp    1af0 <sprintf+0x248>
    1aeb:	8d 45 e0             	lea    0xffffffe0(%ebp),%eax
    1aee:	f7 18                	negl   (%eax)
    1af0:	8b 4d 0c             	mov    0xc(%ebp),%ecx
    1af3:	83 79 04 00          	cmpl   $0x0,0x4(%ecx)
    1af7:	79 09                	jns    1b02 <sprintf+0x25a>
    1af9:	8b 55 0c             	mov    0xc(%ebp),%edx
    1afc:	8a 42 14             	mov    0x14(%edx),%al
    1aff:	88 45 cf             	mov    %al,0xffffffcf(%ebp)
    1b02:	83 ec 0c             	sub    $0xc,%esp
    1b05:	ff 75 d8             	pushl  0xffffffd8(%ebp)
    1b08:	ff 75 e0             	pushl  0xffffffe0(%ebp)
    1b0b:	ff 75 e0             	pushl  0xffffffe0(%ebp)
    1b0e:	ff 75 f4             	pushl  0xfffffff4(%ebp)
    1b11:	8b 45 f0             	mov    0xfffffff0(%ebp),%eax
    1b14:	8b 00                	mov    (%eax),%eax
    1b16:	25 00 0f 00 00       	and    $0xf00,%eax
    1b1b:	50                   	push   %eax
    1b1c:	e8 6f 45 00 00       	call   6090 <_load_inttype>
    1b21:	83 c4 0c             	add    $0xc,%esp
    1b24:	52                   	push   %edx
    1b25:	50                   	push   %eax
    1b26:	8d 85 48 ff ff ff    	lea    0xffffff48(%ebp),%eax
    1b2c:	83 c0 7f             	add    $0x7f,%eax
    1b2f:	50                   	push   %eax
    1b30:	e8 8f 41 00 00       	call   5cc4 <_uintmaxtostr>
    1b35:	83 c4 20             	add    $0x20,%esp
    1b38:	89 85 34 ff ff ff    	mov    %eax,0xffffff34(%ebp)
    1b3e:	8b 4d 0c             	mov    0xc(%ebp),%ecx
    1b41:	83 79 20 05          	cmpl   $0x5,0x20(%ecx)
    1b45:	76 4b                	jbe    1b92 <sprintf+0x2ea>
    1b47:	8b 85 34 ff ff ff    	mov    0xffffff34(%ebp),%eax
    1b4d:	80 38 2d             	cmpb   $0x2d,(%eax)
    1b50:	75 16                	jne    1b68 <sprintf+0x2c0>
    1b52:	8b 55 0c             	mov    0xc(%ebp),%edx
    1b55:	83 4a 10 02          	orl    $0x2,0x10(%edx)
    1b59:	ff 85 34 ff ff ff    	incl   0xffffff34(%ebp)
    1b5f:	c7 45 d0 02 00 00 00 	movl   $0x2,0xffffffd0(%ebp)
    1b66:	eb 2a                	jmp    1b92 <sprintf+0x2ea>
    1b68:	8b 4d 0c             	mov    0xc(%ebp),%ecx
    1b6b:	8b 41 10             	mov    0x10(%ecx),%eax
    1b6e:	83 e0 02             	and    $0x2,%eax
    1b71:	85 c0                	test   %eax,%eax
    1b73:	74 09                	je     1b7e <sprintf+0x2d6>
    1b75:	c7 45 d0 00 00 00 00 	movl   $0x0,0xffffffd0(%ebp)
    1b7c:	eb 14                	jmp    1b92 <sprintf+0x2ea>
    1b7e:	8b 55 0c             	mov    0xc(%ebp),%edx
    1b81:	8b 42 10             	mov    0x10(%edx),%eax
    1b84:	83 e0 01             	and    $0x1,%eax
    1b87:	85 c0                	test   %eax,%eax
    1b89:	74 07                	je     1b92 <sprintf+0x2ea>
    1b8b:	c7 45 d0 04 00 00 00 	movl   $0x4,0xffffffd0(%ebp)
    1b92:	8d 85 48 ff ff ff    	lea    0xffffff48(%ebp),%eax
    1b98:	2b 85 34 ff ff ff    	sub    0xffffff34(%ebp),%eax
    1b9e:	83 c0 7f             	add    $0x7f,%eax
    1ba1:	89 45 e4             	mov    %eax,0xffffffe4(%ebp)
    1ba4:	8b 4d 0c             	mov    0xc(%ebp),%ecx
    1ba7:	8b 49 04             	mov    0x4(%ecx),%ecx
    1baa:	89 8d 30 ff ff ff    	mov    %ecx,0xffffff30(%ebp)
    1bb0:	8b 45 0c             	mov    0xc(%ebp),%eax
    1bb3:	83 78 04 00          	cmpl   $0x0,0x4(%eax)
    1bb7:	79 0a                	jns    1bc3 <sprintf+0x31b>
    1bb9:	c7 85 30 ff ff ff 01 	movl   $0x1,0xffffff30(%ebp)
    1bc0:	00 00 00 
    1bc3:	8b 95 30 ff ff ff    	mov    0xffffff30(%ebp),%edx
    1bc9:	89 55 d4             	mov    %edx,0xffffffd4(%ebp)
    1bcc:	8b 4d 0c             	mov    0xc(%ebp),%ecx
    1bcf:	8b 41 10             	mov    0x10(%ecx),%eax
    1bd2:	83 e0 10             	and    $0x10,%eax
    1bd5:	85 c0                	test   %eax,%eax
    1bd7:	74 5b                	je     1c34 <sprintf+0x38c>
    1bd9:	8b 45 0c             	mov    0xc(%ebp),%eax
    1bdc:	83 78 20 02          	cmpl   $0x2,0x20(%eax)
    1be0:	77 07                	ja     1be9 <sprintf+0x341>
    1be2:	c7 45 d0 06 00 00 00 	movl   $0x6,0xffffffd0(%ebp)
    1be9:	8b 55 0c             	mov    0xc(%ebp),%edx
    1bec:	83 7a 20 03          	cmpl   $0x3,0x20(%edx)
    1bf0:	75 07                	jne    1bf9 <sprintf+0x351>
    1bf2:	c7 45 d0 09 00 00 00 	movl   $0x9,0xffffffd0(%ebp)
    1bf9:	8b 4d 0c             	mov    0xc(%ebp),%ecx
    1bfc:	83 79 20 04          	cmpl   $0x4,0x20(%ecx)
    1c00:	75 32                	jne    1c34 <sprintf+0x38c>
    1c02:	8b 45 d4             	mov    0xffffffd4(%ebp),%eax
    1c05:	3b 45 e4             	cmp    0xffffffe4(%ebp),%eax
    1c08:	77 2a                	ja     1c34 <sprintf+0x38c>
    1c0a:	8b 85 34 ff ff ff    	mov    0xffffff34(%ebp),%eax
    1c10:	80 38 30             	cmpb   $0x30,(%eax)
    1c13:	74 0c                	je     1c21 <sprintf+0x379>
    1c15:	8b 55 e4             	mov    0xffffffe4(%ebp),%edx
    1c18:	42                   	inc    %edx
    1c19:	89 95 2c ff ff ff    	mov    %edx,0xffffff2c(%ebp)
    1c1f:	eb 0a                	jmp    1c2b <sprintf+0x383>
    1c21:	c7 85 2c ff ff ff 01 	movl   $0x1,0xffffff2c(%ebp)
    1c28:	00 00 00 
    1c2b:	8b 8d 2c ff ff ff    	mov    0xffffff2c(%ebp),%ecx
    1c31:	89 4d d4             	mov    %ecx,0xffffffd4(%ebp)
    1c34:	8b 85 34 ff ff ff    	mov    0xffffff34(%ebp),%eax
    1c3a:	80 38 30             	cmpb   $0x30,(%eax)
    1c3d:	75 3d                	jne    1c7c <sprintf+0x3d4>
    1c3f:	83 7d d0 05          	cmpl   $0x5,0xffffffd0(%ebp)
    1c43:	7e 07                	jle    1c4c <sprintf+0x3a4>
    1c45:	c7 45 d0 0b 00 00 00 	movl   $0xb,0xffffffd0(%ebp)
    1c4c:	8b 55 0c             	mov    0xc(%ebp),%edx
    1c4f:	83 7a 20 01          	cmpl   $0x1,0x20(%edx)
    1c53:	75 1a                	jne    1c6f <sprintf+0x3c7>
    1c55:	c7 85 34 ff ff ff 3d 	movl   $0x793d,0xffffff34(%ebp)
    1c5c:	79 00 00 
    1c5f:	c7 45 e4 05 00 00 00 	movl   $0x5,0xffffffe4(%ebp)
    1c66:	c7 45 d4 00 00 00 00 	movl   $0x0,0xffffffd4(%ebp)
    1c6d:	eb 0d                	jmp    1c7c <sprintf+0x3d4>
    1c6f:	83 7d d4 00          	cmpl   $0x0,0xffffffd4(%ebp)
    1c73:	75 07                	jne    1c7c <sprintf+0x3d4>
    1c75:	c7 45 e4 00 00 00 00 	movl   $0x0,0xffffffe4(%ebp)
    1c7c:	8b 45 d4             	mov    0xffffffd4(%ebp),%eax
    1c7f:	3b 45 e4             	cmp    0xffffffe4(%ebp),%eax
    1c82:	76 10                	jbe    1c94 <sprintf+0x3ec>
    1c84:	8b 55 e4             	mov    0xffffffe4(%ebp),%edx
    1c87:	8b 45 d4             	mov    0xffffffd4(%ebp),%eax
    1c8a:	29 d0                	sub    %edx,%eax
    1c8c:	89 85 28 ff ff ff    	mov    %eax,0xffffff28(%ebp)
    1c92:	eb 0a                	jmp    1c9e <sprintf+0x3f6>
    1c94:	c7 85 28 ff ff ff 00 	movl   $0x0,0xffffff28(%ebp)
    1c9b:	00 00 00 
    1c9e:	8b 8d 28 ff ff ff    	mov    0xffffff28(%ebp),%ecx
    1ca4:	89 4d d4             	mov    %ecx,0xffffffd4(%ebp)
    1ca7:	e9 1c 02 00 00       	jmp    1ec8 <sprintf+0x620>
    1cac:	8b 45 0c             	mov    0xc(%ebp),%eax
    1caf:	83 78 20 0f          	cmpl   $0xf,0x20(%eax)
    1cb3:	0f 87 84 00 00 00    	ja     1d3d <sprintf+0x495>
    1cb9:	8b 55 10             	mov    0x10(%ebp),%edx
    1cbc:	89 95 24 ff ff ff    	mov    %edx,0xffffff24(%ebp)
    1cc2:	8b 4d 10             	mov    0x10(%ebp),%ecx
    1cc5:	89 8d 20 ff ff ff    	mov    %ecx,0xffffff20(%ebp)
    1ccb:	83 ec 08             	sub    $0x8,%esp
    1cce:	68 d0 18 00 00       	push   $0x18d0
    1cd3:	8b 45 0c             	mov    0xc(%ebp),%eax
    1cd6:	83 c0 04             	add    $0x4,%eax
    1cd9:	50                   	push   %eax
    1cda:	8b 55 0c             	mov    0xc(%ebp),%edx
    1cdd:	8b 42 10             	mov    0x10(%edx),%eax
    1ce0:	25 00 08 00 00       	and    $0x800,%eax
    1ce5:	85 c0                	test   %eax,%eax
    1ce7:	74 0d                	je     1cf6 <sprintf+0x44e>
    1ce9:	8b 45 f4             	mov    0xfffffff4(%ebp),%eax
    1cec:	db 28                	fldt   (%eax)
    1cee:	db bd 08 ff ff ff    	fstpt  0xffffff08(%ebp)
    1cf4:	eb 0b                	jmp    1d01 <sprintf+0x459>
    1cf6:	8b 45 f4             	mov    0xfffffff4(%ebp),%eax
    1cf9:	dd 00                	fldl   (%eax)
    1cfb:	db bd 08 ff ff ff    	fstpt  0xffffff08(%ebp)
    1d01:	ff b5 10 ff ff ff    	pushl  0xffffff10(%ebp)
    1d07:	ff b5 0c ff ff ff    	pushl  0xffffff0c(%ebp)
    1d0d:	ff b5 08 ff ff ff    	pushl  0xffffff08(%ebp)
    1d13:	ff 75 08             	pushl  0x8(%ebp)
    1d16:	e8 1d 05 00 00       	call   2238 <_fpmaxtostr>
    1d1b:	83 c4 20             	add    $0x20,%esp
    1d1e:	8b 95 20 ff ff ff    	mov    0xffffff20(%ebp),%edx
    1d24:	03 02                	add    (%edx),%eax
    1d26:	8b 8d 24 ff ff ff    	mov    0xffffff24(%ebp),%ecx
    1d2c:	89 01                	mov    %eax,(%ecx)
    1d2e:	c7 85 3c ff ff ff 00 	movl   $0x0,0xffffff3c(%ebp)
    1d35:	00 00 00 
    1d38:	e9 40 03 00 00       	jmp    207d <sprintf+0x7d5>
    1d3d:	8b 45 0c             	mov    0xc(%ebp),%eax
    1d40:	83 78 20 11          	cmpl   $0x11,0x20(%eax)
    1d44:	0f 87 c9 00 00 00    	ja     1e13 <sprintf+0x56b>
    1d4a:	66 c7 45 e8 00 00    	movw   $0x0,0xffffffe8(%ebp)
    1d50:	8b 55 0c             	mov    0xc(%ebp),%edx
    1d53:	83 7a 20 11          	cmpl   $0x11,0x20(%edx)
    1d57:	75 68                	jne    1dc1 <sprintf+0x519>
    1d59:	8b 45 f4             	mov    0xfffffff4(%ebp),%eax
    1d5c:	8b 00                	mov    (%eax),%eax
    1d5e:	89 45 ec             	mov    %eax,0xffffffec(%ebp)
    1d61:	85 c0                	test   %eax,%eax
    1d63:	75 05                	jne    1d6a <sprintf+0x4c2>
    1d65:	e9 10 01 00 00       	jmp    1e7a <sprintf+0x5d2>
    1d6a:	8d 45 e8             	lea    0xffffffe8(%ebp),%eax
    1d6d:	50                   	push   %eax
    1d6e:	8b 4d 0c             	mov    0xc(%ebp),%ecx
    1d71:	83 79 04 00          	cmpl   $0x0,0x4(%ecx)
    1d75:	78 0e                	js     1d85 <sprintf+0x4dd>
    1d77:	8b 45 0c             	mov    0xc(%ebp),%eax
    1d7a:	8b 40 04             	mov    0x4(%eax),%eax
    1d7d:	89 85 04 ff ff ff    	mov    %eax,0xffffff04(%ebp)
    1d83:	eb 0a                	jmp    1d8f <sprintf+0x4e7>
    1d85:	c7 85 04 ff ff ff ff 	movl   $0xffffffff,0xffffff04(%ebp)
    1d8c:	ff ff ff 
    1d8f:	ff b5 04 ff ff ff    	pushl  0xffffff04(%ebp)
    1d95:	8d 45 ec             	lea    0xffffffec(%ebp),%eax
    1d98:	50                   	push   %eax
    1d99:	8d 45 ec             	lea    0xffffffec(%ebp),%eax
    1d9c:	50                   	push   %eax
    1d9d:	e8 8a 28 00 00       	call   462c <wcsrtombs>
    1da2:	83 c4 10             	add    $0x10,%esp
    1da5:	89 45 e4             	mov    %eax,0xffffffe4(%ebp)
    1da8:	83 7d e4 ff          	cmpl   $0xffffffff,0xffffffe4(%ebp)
    1dac:	0f 85 16 01 00 00    	jne    1ec8 <sprintf+0x620>
    1db2:	c7 85 3c ff ff ff ff 	movl   $0xffffffff,0xffffff3c(%ebp)
    1db9:	ff ff ff 
    1dbc:	e9 bc 02 00 00       	jmp    207d <sprintf+0x7d5>
    1dc1:	8d 95 48 ff ff ff    	lea    0xffffff48(%ebp),%edx
    1dc7:	89 95 34 ff ff ff    	mov    %edx,0xffffff34(%ebp)
    1dcd:	83 ec 04             	sub    $0x4,%esp
    1dd0:	8d 45 e8             	lea    0xffffffe8(%ebp),%eax
    1dd3:	50                   	push   %eax
    1dd4:	8b 45 f4             	mov    0xfffffff4(%ebp),%eax
    1dd7:	0f b7 00             	movzwl (%eax),%eax
    1dda:	50                   	push   %eax
    1ddb:	ff b5 34 ff ff ff    	pushl  0xffffff34(%ebp)
    1de1:	e8 e2 27 00 00       	call   45c8 <wcrtomb>
    1de6:	83 c4 10             	add    $0x10,%esp
    1de9:	89 45 e4             	mov    %eax,0xffffffe4(%ebp)
    1dec:	83 7d e4 ff          	cmpl   $0xffffffff,0xffffffe4(%ebp)
    1df0:	75 0f                	jne    1e01 <sprintf+0x559>
    1df2:	c7 85 3c ff ff ff ff 	movl   $0xffffffff,0xffffff3c(%ebp)
    1df9:	ff ff ff 
    1dfc:	e9 7c 02 00 00       	jmp    207d <sprintf+0x7d5>
    1e01:	8b 45 e4             	mov    0xffffffe4(%ebp),%eax
    1e04:	8b 8d 34 ff ff ff    	mov    0xffffff34(%ebp),%ecx
    1e0a:	c6 04 08 00          	movb   $0x0,(%eax,%ecx,1)
    1e0e:	e9 b5 00 00 00       	jmp    1ec8 <sprintf+0x620>
    1e13:	8b 45 0c             	mov    0xc(%ebp),%eax
    1e16:	83 78 20 13          	cmpl   $0x13,0x20(%eax)
    1e1a:	0f 87 99 00 00 00    	ja     1eb9 <sprintf+0x611>
    1e20:	8b 55 0c             	mov    0xc(%ebp),%edx
    1e23:	83 7a 20 13          	cmpl   $0x13,0x20(%edx)
    1e27:	75 64                	jne    1e8d <sprintf+0x5e5>
    1e29:	8b 45 f4             	mov    0xfffffff4(%ebp),%eax
    1e2c:	8b 00                	mov    (%eax),%eax
    1e2e:	89 85 34 ff ff ff    	mov    %eax,0xffffff34(%ebp)
    1e34:	83 bd 34 ff ff ff 00 	cmpl   $0x0,0xffffff34(%ebp)
    1e3b:	74 3d                	je     1e7a <sprintf+0x5d2>
    1e3d:	8b 4d 0c             	mov    0xc(%ebp),%ecx
    1e40:	83 79 04 00          	cmpl   $0x0,0x4(%ecx)
    1e44:	78 0e                	js     1e54 <sprintf+0x5ac>
    1e46:	8b 45 0c             	mov    0xc(%ebp),%eax
    1e49:	8b 40 04             	mov    0x4(%eax),%eax
    1e4c:	89 85 00 ff ff ff    	mov    %eax,0xffffff00(%ebp)
    1e52:	eb 0a                	jmp    1e5e <sprintf+0x5b6>
    1e54:	c7 85 00 ff ff ff ff 	movl   $0xffffffff,0xffffff00(%ebp)
    1e5b:	ff ff ff 
    1e5e:	83 ec 08             	sub    $0x8,%esp
    1e61:	ff b5 00 ff ff ff    	pushl  0xffffff00(%ebp)
    1e67:	ff b5 34 ff ff ff    	pushl  0xffffff34(%ebp)
    1e6d:	e8 06 0e 00 00       	call   2c78 <strnlen>
    1e72:	83 c4 10             	add    $0x10,%esp
    1e75:	89 45 e4             	mov    %eax,0xffffffe4(%ebp)
    1e78:	eb 4e                	jmp    1ec8 <sprintf+0x620>
    1e7a:	c7 85 34 ff ff ff 43 	movl   $0x7943,0xffffff34(%ebp)
    1e81:	79 00 00 
    1e84:	c7 45 e4 06 00 00 00 	movl   $0x6,0xffffffe4(%ebp)
    1e8b:	eb 3b                	jmp    1ec8 <sprintf+0x620>
    1e8d:	8d 95 48 ff ff ff    	lea    0xffffff48(%ebp),%edx
    1e93:	89 95 34 ff ff ff    	mov    %edx,0xffffff34(%ebp)
    1e99:	8b 45 f4             	mov    0xfffffff4(%ebp),%eax
    1e9c:	8a 00                	mov    (%eax),%al
    1e9e:	8b 8d 34 ff ff ff    	mov    0xffffff34(%ebp),%ecx
    1ea4:	88 01                	mov    %al,(%ecx)
    1ea6:	8b 85 34 ff ff ff    	mov    0xffffff34(%ebp),%eax
    1eac:	c6 40 01 00          	movb   $0x0,0x1(%eax)
    1eb0:	c7 45 e4 01 00 00 00 	movl   $0x1,0xffffffe4(%ebp)
    1eb7:	eb 0f                	jmp    1ec8 <sprintf+0x620>
    1eb9:	c7 85 3c ff ff ff ff 	movl   $0xffffffff,0xffffff3c(%ebp)
    1ec0:	ff ff ff 
    1ec3:	e9 b5 01 00 00       	jmp    207d <sprintf+0x7d5>
    1ec8:	8b 45 d4             	mov    0xffffffd4(%ebp),%eax
    1ecb:	03 45 e4             	add    0xffffffe4(%ebp),%eax
    1ece:	89 85 40 ff ff ff    	mov    %eax,0xffffff40(%ebp)
    1ed4:	83 7d d0 0b          	cmpl   $0xb,0xffffffd0(%ebp)
    1ed8:	74 30                	je     1f0a <sprintf+0x662>
    1eda:	83 7d d0 05          	cmpl   $0x5,0xffffffd0(%ebp)
    1ede:	7f 0f                	jg     1eef <sprintf+0x647>
    1ee0:	8b 95 40 ff ff ff    	mov    0xffffff40(%ebp),%edx
    1ee6:	42                   	inc    %edx
    1ee7:	89 95 fc fe ff ff    	mov    %edx,0xfffffefc(%ebp)
    1eed:	eb 0f                	jmp    1efe <sprintf+0x656>
    1eef:	8b 8d 40 ff ff ff    	mov    0xffffff40(%ebp),%ecx
    1ef5:	83 c1 02             	add    $0x2,%ecx
    1ef8:	89 8d fc fe ff ff    	mov    %ecx,0xfffffefc(%ebp)
    1efe:	8b 85 fc fe ff ff    	mov    0xfffffefc(%ebp),%eax
    1f04:	89 85 40 ff ff ff    	mov    %eax,0xffffff40(%ebp)
    1f0a:	8b 55 0c             	mov    0xc(%ebp),%edx
    1f0d:	8b 42 08             	mov    0x8(%edx),%eax
    1f10:	3b 85 40 ff ff ff    	cmp    0xffffff40(%ebp),%eax
    1f16:	76 16                	jbe    1f2e <sprintf+0x686>
    1f18:	8b 95 40 ff ff ff    	mov    0xffffff40(%ebp),%edx
    1f1e:	8b 4d 0c             	mov    0xc(%ebp),%ecx
    1f21:	8b 41 08             	mov    0x8(%ecx),%eax
    1f24:	29 d0                	sub    %edx,%eax
    1f26:	89 85 f8 fe ff ff    	mov    %eax,0xfffffef8(%ebp)
    1f2c:	eb 0a                	jmp    1f38 <sprintf+0x690>
    1f2e:	c7 85 f8 fe ff ff 00 	movl   $0x0,0xfffffef8(%ebp)
    1f35:	00 00 00 
    1f38:	8b 85 f8 fe ff ff    	mov    0xfffffef8(%ebp),%eax
    1f3e:	89 45 dc             	mov    %eax,0xffffffdc(%ebp)
    1f41:	8b 4d 10             	mov    0x10(%ebp),%ecx
    1f44:	8b 55 10             	mov    0x10(%ebp),%edx
    1f47:	8b 45 dc             	mov    0xffffffdc(%ebp),%eax
    1f4a:	03 85 40 ff ff ff    	add    0xffffff40(%ebp),%eax
    1f50:	03 02                	add    (%edx),%eax
    1f52:	89 01                	mov    %eax,(%ecx)
    1f54:	80 7d cf 30          	cmpb   $0x30,0xffffffcf(%ebp)
    1f58:	75 0f                	jne    1f69 <sprintf+0x6c1>
    1f5a:	8b 55 dc             	mov    0xffffffdc(%ebp),%edx
    1f5d:	8d 45 d4             	lea    0xffffffd4(%ebp),%eax
    1f60:	01 10                	add    %edx,(%eax)
    1f62:	c7 45 dc 00 00 00 00 	movl   $0x0,0xffffffdc(%ebp)
    1f69:	8b 55 0c             	mov    0xc(%ebp),%edx
    1f6c:	8b 42 10             	mov    0x10(%edx),%eax
    1f6f:	83 e0 08             	and    $0x8,%eax
    1f72:	85 c0                	test   %eax,%eax
    1f74:	75 1a                	jne    1f90 <sprintf+0x6e8>
    1f76:	83 ec 04             	sub    $0x4,%esp
    1f79:	ff 75 dc             	pushl  0xffffffdc(%ebp)
    1f7c:	6a 20                	push   $0x20
    1f7e:	ff 75 08             	pushl  0x8(%ebp)
    1f81:	e8 ad f9 ff ff       	call   1933 <sprintf+0x8b>
    1f86:	83 c4 10             	add    $0x10,%esp
    1f89:	c7 45 dc 00 00 00 00 	movl   $0x0,0xffffffdc(%ebp)
    1f90:	83 ec 08             	sub    $0x8,%esp
    1f93:	ff 75 08             	pushl  0x8(%ebp)
    1f96:	b8 31 79 00 00       	mov    $0x7931,%eax
    1f9b:	03 45 d0             	add    0xffffffd0(%ebp),%eax
    1f9e:	50                   	push   %eax
    1f9f:	e8 6c 38 00 00       	call   5810 <fputs>
    1fa4:	83 c4 10             	add    $0x10,%esp
    1fa7:	83 ec 04             	sub    $0x4,%esp
    1faa:	ff 75 d4             	pushl  0xffffffd4(%ebp)
    1fad:	6a 30                	push   $0x30
    1faf:	ff 75 08             	pushl  0x8(%ebp)
    1fb2:	e8 7c f9 ff ff       	call   1933 <sprintf+0x8b>
    1fb7:	83 c4 10             	add    $0x10,%esp
    1fba:	83 7d ec 00          	cmpl   $0x0,0xffffffec(%ebp)
    1fbe:	75 1c                	jne    1fdc <sprintf+0x734>
    1fc0:	83 ec 04             	sub    $0x4,%esp
    1fc3:	ff 75 08             	pushl  0x8(%ebp)
    1fc6:	ff 75 e4             	pushl  0xffffffe4(%ebp)
    1fc9:	ff b5 34 ff ff ff    	pushl  0xffffff34(%ebp)
    1fcf:	e8 82 39 00 00       	call   5956 <_stdio_fwrite>
    1fd4:	83 c4 10             	add    $0x10,%esp
    1fd7:	e9 84 00 00 00       	jmp    2060 <sprintf+0x7b8>
    1fdc:	66 c7 45 e8 00 00    	movw   $0x0,0xffffffe8(%ebp)
    1fe2:	83 7d e4 00          	cmpl   $0x0,0xffffffe4(%ebp)
    1fe6:	75 02                	jne    1fea <sprintf+0x742>
    1fe8:	eb 76                	jmp    2060 <sprintf+0x7b8>
    1fea:	8b 4d e4             	mov    0xffffffe4(%ebp),%ecx
    1fed:	89 8d f4 fe ff ff    	mov    %ecx,0xfffffef4(%ebp)
    1ff3:	81 bd f4 fe ff ff 80 	cmpl   $0x80,0xfffffef4(%ebp)
    1ffa:	00 00 00 
    1ffd:	76 0a                	jbe    2009 <sprintf+0x761>
    1fff:	c7 85 f4 fe ff ff 80 	movl   $0x80,0xfffffef4(%ebp)
    2006:	00 00 00 
    2009:	8b 85 f4 fe ff ff    	mov    0xfffffef4(%ebp),%eax
    200f:	89 85 40 ff ff ff    	mov    %eax,0xffffff40(%ebp)
    2015:	8d 45 e8             	lea    0xffffffe8(%ebp),%eax
    2018:	50                   	push   %eax
    2019:	ff b5 40 ff ff ff    	pushl  0xffffff40(%ebp)
    201f:	8d 45 ec             	lea    0xffffffec(%ebp),%eax
    2022:	50                   	push   %eax
    2023:	8d 85 48 ff ff ff    	lea    0xffffff48(%ebp),%eax
    2029:	50                   	push   %eax
    202a:	e8 fd 25 00 00       	call   462c <wcsrtombs>
    202f:	83 c4 10             	add    $0x10,%esp
    2032:	89 85 40 ff ff ff    	mov    %eax,0xffffff40(%ebp)
    2038:	83 ec 04             	sub    $0x4,%esp
    203b:	ff 75 08             	pushl  0x8(%ebp)
    203e:	ff b5 40 ff ff ff    	pushl  0xffffff40(%ebp)
    2044:	8d 85 48 ff ff ff    	lea    0xffffff48(%ebp),%eax
    204a:	50                   	push   %eax
    204b:	e8 06 39 00 00       	call   5956 <_stdio_fwrite>
    2050:	83 c4 10             	add    $0x10,%esp
    2053:	8b 95 40 ff ff ff    	mov    0xffffff40(%ebp),%edx
    2059:	8d 45 e4             	lea    0xffffffe4(%ebp),%eax
    205c:	29 10                	sub    %edx,(%eax)
    205e:	eb 82                	jmp    1fe2 <sprintf+0x73a>
    2060:	83 ec 04             	sub    $0x4,%esp
    2063:	ff 75 dc             	pushl  0xffffffdc(%ebp)
    2066:	6a 20                	push   $0x20
    2068:	ff 75 08             	pushl  0x8(%ebp)
    206b:	e8 c3 f8 ff ff       	call   1933 <sprintf+0x8b>
    2070:	83 c4 10             	add    $0x10,%esp
    2073:	c7 85 3c ff ff ff 00 	movl   $0x0,0xffffff3c(%ebp)
    207a:	00 00 00 
    207d:	8b 85 3c ff ff ff    	mov    0xffffff3c(%ebp),%eax
    2083:	c9                   	leave  
    2084:	c3                   	ret    

00002085 <vfprintf>:
    2085:	55                   	push   %ebp
    2086:	89 e5                	mov    %esp,%ebp
    2088:	81 ec d8 00 00 00    	sub    $0xd8,%esp
    208e:	c7 85 34 ff ff ff 00 	movl   $0x0,0xffffff34(%ebp)
    2095:	00 00 00 
    2098:	8b 45 0c             	mov    0xc(%ebp),%eax
    209b:	89 85 2c ff ff ff    	mov    %eax,0xffffff2c(%ebp)
    20a1:	8b 45 08             	mov    0x8(%ebp),%eax
    20a4:	0f b7 00             	movzwl (%eax),%eax
    20a7:	25 00 08 00 00       	and    $0x800,%eax
    20ac:	85 c0                	test   %eax,%eax
    20ae:	74 1e                	je     20ce <vfprintf+0x49>
    20b0:	8b 45 08             	mov    0x8(%ebp),%eax
    20b3:	8b 55 08             	mov    0x8(%ebp),%edx
    20b6:	66 8b 12             	mov    (%edx),%dx
    20b9:	83 ca 08             	or     $0x8,%edx
    20bc:	66 89 10             	mov    %dx,(%eax)
    20bf:	c7 85 34 ff ff ff ff 	movl   $0xffffffff,0xffffff34(%ebp)
    20c6:	ff ff ff 
    20c9:	e9 5f 01 00 00       	jmp    222d <vfprintf+0x1a8>
    20ce:	8b 55 08             	mov    0x8(%ebp),%edx
    20d1:	8b 45 08             	mov    0x8(%ebp),%eax
    20d4:	66 8b 00             	mov    (%eax),%ax
    20d7:	0c 80                	or     $0x80,%al
    20d9:	66 89 02             	mov    %ax,(%edx)
    20dc:	83 ec 08             	sub    $0x8,%esp
    20df:	ff 75 0c             	pushl  0xc(%ebp)
    20e2:	8d 85 38 ff ff ff    	lea    0xffffff38(%ebp),%eax
    20e8:	50                   	push   %eax
    20e9:	e8 5e 40 00 00       	call   614c <_ppfs_init>
    20ee:	83 c4 10             	add    $0x10,%esp
    20f1:	85 c0                	test   %eax,%eax
    20f3:	79 35                	jns    212a <vfprintf+0xa5>
    20f5:	83 ec 04             	sub    $0x4,%esp
    20f8:	ff 75 08             	pushl  0x8(%ebp)
    20fb:	83 ec 04             	sub    $0x4,%esp
    20fe:	ff b5 38 ff ff ff    	pushl  0xffffff38(%ebp)
    2104:	e8 47 0b 00 00       	call   2c50 <strlen>
    2109:	83 c4 08             	add    $0x8,%esp
    210c:	50                   	push   %eax
    210d:	ff b5 38 ff ff ff    	pushl  0xffffff38(%ebp)
    2113:	e8 3e 38 00 00       	call   5956 <_stdio_fwrite>
    2118:	83 c4 10             	add    $0x10,%esp
    211b:	c7 85 34 ff ff ff ff 	movl   $0xffffffff,0xffffff34(%ebp)
    2122:	ff ff ff 
    2125:	e9 03 01 00 00       	jmp    222d <vfprintf+0x1a8>
    212a:	83 ec 08             	sub    $0x8,%esp
    212d:	ff 75 10             	pushl  0x10(%ebp)
    2130:	8d 85 38 ff ff ff    	lea    0xffffff38(%ebp),%eax
    2136:	50                   	push   %eax
    2137:	e8 18 41 00 00       	call   6254 <_ppfs_prepargs>
    213c:	83 c4 10             	add    $0x10,%esp
    213f:	8b 45 0c             	mov    0xc(%ebp),%eax
    2142:	80 38 00             	cmpb   $0x0,(%eax)
    2145:	74 0f                	je     2156 <vfprintf+0xd1>
    2147:	8b 45 0c             	mov    0xc(%ebp),%eax
    214a:	80 38 25             	cmpb   $0x25,(%eax)
    214d:	75 02                	jne    2151 <vfprintf+0xcc>
    214f:	eb 05                	jmp    2156 <vfprintf+0xd1>
    2151:	ff 45 0c             	incl   0xc(%ebp)
    2154:	eb e9                	jmp    213f <vfprintf+0xba>
    2156:	8b 85 2c ff ff ff    	mov    0xffffff2c(%ebp),%eax
    215c:	39 45 0c             	cmp    %eax,0xc(%ebp)
    215f:	74 4b                	je     21ac <vfprintf+0x127>
    2161:	83 ec 04             	sub    $0x4,%esp
    2164:	ff 75 08             	pushl  0x8(%ebp)
    2167:	8b 45 0c             	mov    0xc(%ebp),%eax
    216a:	2b 85 2c ff ff ff    	sub    0xffffff2c(%ebp),%eax
    2170:	50                   	push   %eax
    2171:	ff b5 2c ff ff ff    	pushl  0xffffff2c(%ebp)
    2177:	e8 da 37 00 00       	call   5956 <_stdio_fwrite>
    217c:	83 c4 10             	add    $0x10,%esp
    217f:	89 85 30 ff ff ff    	mov    %eax,0xffffff30(%ebp)
    2185:	8b 85 30 ff ff ff    	mov    0xffffff30(%ebp),%eax
    218b:	85 c0                	test   %eax,%eax
    218d:	79 0f                	jns    219e <vfprintf+0x119>
    218f:	c7 85 34 ff ff ff ff 	movl   $0xffffffff,0xffffff34(%ebp)
    2196:	ff ff ff 
    2199:	e9 8f 00 00 00       	jmp    222d <vfprintf+0x1a8>
    219e:	8b 95 30 ff ff ff    	mov    0xffffff30(%ebp),%edx
    21a4:	8d 85 34 ff ff ff    	lea    0xffffff34(%ebp),%eax
    21aa:	01 10                	add    %edx,(%eax)
    21ac:	8b 45 0c             	mov    0xc(%ebp),%eax
    21af:	80 38 00             	cmpb   $0x0,(%eax)
    21b2:	75 02                	jne    21b6 <vfprintf+0x131>
    21b4:	eb 77                	jmp    222d <vfprintf+0x1a8>
    21b6:	8b 45 0c             	mov    0xc(%ebp),%eax
    21b9:	80 78 01 25          	cmpb   $0x25,0x1(%eax)
    21bd:	74 5a                	je     2219 <vfprintf+0x194>
    21bf:	ff 45 0c             	incl   0xc(%ebp)
    21c2:	8b 45 0c             	mov    0xc(%ebp),%eax
    21c5:	89 85 38 ff ff ff    	mov    %eax,0xffffff38(%ebp)
    21cb:	83 ec 04             	sub    $0x4,%esp
    21ce:	8d 85 34 ff ff ff    	lea    0xffffff34(%ebp),%eax
    21d4:	50                   	push   %eax
    21d5:	8d 85 38 ff ff ff    	lea    0xffffff38(%ebp),%eax
    21db:	50                   	push   %eax
    21dc:	ff 75 08             	pushl  0x8(%ebp)
    21df:	e8 80 f7 ff ff       	call   1964 <sprintf+0xbc>
    21e4:	83 c4 10             	add    $0x10,%esp
    21e7:	89 85 30 ff ff ff    	mov    %eax,0xffffff30(%ebp)
    21ed:	83 bd 30 ff ff ff 00 	cmpl   $0x0,0xffffff30(%ebp)
    21f4:	79 0c                	jns    2202 <vfprintf+0x17d>
    21f6:	c7 85 34 ff ff ff ff 	movl   $0xffffffff,0xffffff34(%ebp)
    21fd:	ff ff ff 
    2200:	eb 2b                	jmp    222d <vfprintf+0x1a8>
    2202:	8b 85 38 ff ff ff    	mov    0xffffff38(%ebp),%eax
    2208:	89 45 0c             	mov    %eax,0xc(%ebp)
    220b:	8b 45 0c             	mov    0xc(%ebp),%eax
    220e:	89 85 2c ff ff ff    	mov    %eax,0xffffff2c(%ebp)
    2214:	e9 26 ff ff ff       	jmp    213f <vfprintf+0xba>
    2219:	ff 45 0c             	incl   0xc(%ebp)
    221c:	8b 45 0c             	mov    0xc(%ebp),%eax
    221f:	89 85 2c ff ff ff    	mov    %eax,0xffffff2c(%ebp)
    2225:	ff 45 0c             	incl   0xc(%ebp)
    2228:	e9 12 ff ff ff       	jmp    213f <vfprintf+0xba>
    222d:	8b 85 34 ff ff ff    	mov    0xffffff34(%ebp),%eax
    2233:	c9                   	leave  
    2234:	c3                   	ret    
    2235:	90                   	nop    
    2236:	90                   	nop    
    2237:	90                   	nop    

00002238 <_fpmaxtostr>:
    2238:	55                   	push   %ebp
    2239:	89 e5                	mov    %esp,%ebp
    223b:	53                   	push   %ebx
    223c:	81 ec 14 01 00 00    	sub    $0x114,%esp
    2242:	8b 45 18             	mov    0x18(%ebp),%eax
    2245:	8b 40 04             	mov    0x4(%eax),%eax
    2248:	89 45 d8             	mov    %eax,0xffffffd8(%ebp)
    224b:	8b 45 18             	mov    0x18(%ebp),%eax
    224e:	8b 00                	mov    (%eax),%eax
    2250:	89 45 d4             	mov    %eax,0xffffffd4(%ebp)
    2253:	8b 45 18             	mov    0x18(%ebp),%eax
    2256:	8a 40 08             	mov    0x8(%eax),%al
    2259:	88 85 16 ff ff ff    	mov    %al,0xffffff16(%ebp)
    225f:	c6 85 48 ff ff ff 65 	movb   $0x65,0xffffff48(%ebp)
    2266:	8a 85 16 ff ff ff    	mov    0xffffff16(%ebp),%al
    226c:	83 c8 20             	or     $0x20,%eax
    226f:	3c 61                	cmp    $0x61,%al
    2271:	75 09                	jne    227c <_fpmaxtostr+0x44>
    2273:	8d 85 16 ff ff ff    	lea    0xffffff16(%ebp),%eax
    2279:	80 00 06             	addb   $0x6,(%eax)
    227c:	83 7d d4 00          	cmpl   $0x0,0xffffffd4(%ebp)
    2280:	79 07                	jns    2289 <_fpmaxtostr+0x51>
    2282:	c7 45 d4 06 00 00 00 	movl   $0x6,0xffffffd4(%ebp)
    2289:	c6 85 18 ff ff ff 00 	movb   $0x0,0xffffff18(%ebp)
    2290:	8b 45 18             	mov    0x18(%ebp),%eax
    2293:	8b 40 0c             	mov    0xc(%eax),%eax
    2296:	83 e0 02             	and    $0x2,%eax
    2299:	85 c0                	test   %eax,%eax
    229b:	74 09                	je     22a6 <_fpmaxtostr+0x6e>
    229d:	c6 85 18 ff ff ff 2b 	movb   $0x2b,0xffffff18(%ebp)
    22a4:	eb 14                	jmp    22ba <_fpmaxtostr+0x82>
    22a6:	8b 45 18             	mov    0x18(%ebp),%eax
    22a9:	8b 40 0c             	mov    0xc(%eax),%eax
    22ac:	83 e0 01             	and    $0x1,%eax
    22af:	85 c0                	test   %eax,%eax
    22b1:	74 07                	je     22ba <_fpmaxtostr+0x82>
    22b3:	c6 85 18 ff ff ff 20 	movb   $0x20,0xffffff18(%ebp)
    22ba:	c6 85 19 ff ff ff 00 	movb   $0x0,0xffffff19(%ebp)
    22c1:	c7 85 7c ff ff ff 00 	movl   $0x0,0xffffff7c(%ebp)
    22c8:	00 00 00 
    22cb:	db 6d 0c             	fldt   0xc(%ebp)
    22ce:	db 6d 0c             	fldt   0xc(%ebp)
    22d1:	d9 c9                	fxch   %st(1)
    22d3:	da e9                	fucompp 
    22d5:	df e0                	fnstsw %ax
    22d7:	80 e4 45             	and    $0x45,%ah
    22da:	80 f4 40             	xor    $0x40,%ah
    22dd:	75 02                	jne    22e1 <_fpmaxtostr+0xa9>
    22df:	eb 0c                	jmp    22ed <_fpmaxtostr+0xb5>
    22e1:	c7 85 7c ff ff ff 08 	movl   $0x8,0xffffff7c(%ebp)
    22e8:	00 00 00 
    22eb:	eb 76                	jmp    2363 <_fpmaxtostr+0x12b>
    22ed:	db 6d 0c             	fldt   0xc(%ebp)
    22f0:	d9 ee                	fldz   
    22f2:	d9 c9                	fxch   %st(1)
    22f4:	da e9                	fucompp 
    22f6:	df e0                	fnstsw %ax
    22f8:	80 e4 45             	and    $0x45,%ah
    22fb:	80 fc 40             	cmp    $0x40,%ah
    22fe:	74 02                	je     2302 <_fpmaxtostr+0xca>
    2300:	eb 27                	jmp    2329 <_fpmaxtostr+0xf1>
    2302:	d9 e8                	fld1   
    2304:	db 6d 0c             	fldt   0xc(%ebp)
    2307:	de f9                	fdivrp %st,%st(1)
    2309:	d9 ee                	fldz   
    230b:	da e9                	fucompp 
    230d:	df e0                	fnstsw %ax
    230f:	f6 c4 45             	test   $0x45,%ah
    2312:	74 02                	je     2316 <_fpmaxtostr+0xde>
    2314:	eb 07                	jmp    231d <_fpmaxtostr+0xe5>
    2316:	c6 85 18 ff ff ff 2d 	movb   $0x2d,0xffffff18(%ebp)
    231d:	c7 45 e0 ff ff ff ff 	movl   $0xffffffff,0xffffffe0(%ebp)
    2324:	e9 9c 01 00 00       	jmp    24c5 <_fpmaxtostr+0x28d>
    2329:	db 6d 0c             	fldt   0xc(%ebp)
    232c:	d9 ee                	fldz   
    232e:	da e9                	fucompp 
    2330:	df e0                	fnstsw %ax
    2332:	f6 c4 45             	test   $0x45,%ah
    2335:	74 02                	je     2339 <_fpmaxtostr+0x101>
    2337:	eb 0e                	jmp    2347 <_fpmaxtostr+0x10f>
    2339:	c6 85 18 ff ff ff 2d 	movb   $0x2d,0xffffff18(%ebp)
    2340:	8d 45 0c             	lea    0xc(%ebp),%eax
    2343:	80 70 09 80          	xorb   $0x80,0x9(%eax)
    2347:	db 6d 0c             	fldt   0xc(%ebp)
    234a:	db 2d 20 7a 00 00    	fldt   0x7a20
    2350:	de f9                	fdivrp %st,%st(1)
    2352:	db 6d 0c             	fldt   0xc(%ebp)
    2355:	da e9                	fucompp 
    2357:	df e0                	fnstsw %ax
    2359:	80 e4 45             	and    $0x45,%ah
    235c:	80 fc 40             	cmp    $0x40,%ah
    235f:	74 02                	je     2363 <_fpmaxtostr+0x12b>
    2361:	eb 4f                	jmp    23b2 <_fpmaxtostr+0x17a>
    2363:	8b 45 18             	mov    0x18(%ebp),%eax
    2366:	66 c7 40 10 20 00    	movw   $0x20,0x10(%eax)
    236c:	8d 85 68 ff ff ff    	lea    0xffffff68(%ebp),%eax
    2372:	83 c0 18             	add    $0x18,%eax
    2375:	89 85 64 ff ff ff    	mov    %eax,0xffffff64(%ebp)
    237b:	c7 85 74 ff ff ff 70 	movl   $0x70,0xffffff74(%ebp)
    2382:	00 00 00 
    2385:	c7 85 78 ff ff ff 03 	movl   $0x3,0xffffff78(%ebp)
    238c:	00 00 00 
    238f:	80 bd 16 ff ff ff 60 	cmpb   $0x60,0xffffff16(%ebp)
    2396:	7f 09                	jg     23a1 <_fpmaxtostr+0x169>
    2398:	8d 85 7c ff ff ff    	lea    0xffffff7c(%ebp),%eax
    239e:	83 00 04             	addl   $0x4,(%eax)
    23a1:	8d 85 7c ff ff ff    	lea    0xffffff7c(%ebp),%eax
    23a7:	81 00 60 79 00 00    	addl   $0x7960,(%eax)
    23ad:	e9 dc 06 00 00       	jmp    2a8e <_fpmaxtostr+0x856>
    23b2:	c7 45 e0 08 00 00 00 	movl   $0x8,0xffffffe0(%ebp)
    23b9:	c7 45 f0 0d 00 00 00 	movl   $0xd,0xfffffff0(%ebp)
    23c0:	c7 45 ec 00 10 00 00 	movl   $0x1000,0xffffffec(%ebp)
    23c7:	c7 45 dc 00 00 00 00 	movl   $0x0,0xffffffdc(%ebp)
    23ce:	db 6d 0c             	fldt   0xc(%ebp)
    23d1:	db 2d 30 7a 00 00    	fldt   0x7a30
    23d7:	da e9                	fucompp 
    23d9:	df e0                	fnstsw %ax
    23db:	f6 c4 45             	test   $0x45,%ah
    23de:	74 02                	je     23e2 <_fpmaxtostr+0x1aa>
    23e0:	eb 07                	jmp    23e9 <_fpmaxtostr+0x1b1>
    23e2:	c7 45 dc 01 00 00 00 	movl   $0x1,0xffffffdc(%ebp)
    23e9:	90                   	nop    
    23ea:	8d 45 f0             	lea    0xfffffff0(%ebp),%eax
    23ed:	ff 08                	decl   (%eax)
    23ef:	83 7d dc 00          	cmpl   $0x0,0xffffffdc(%ebp)
    23f3:	74 4c                	je     2441 <_fpmaxtostr+0x209>
    23f5:	8b 55 f0             	mov    0xfffffff0(%ebp),%edx
    23f8:	89 d0                	mov    %edx,%eax
    23fa:	d1 e0                	shl    %eax
    23fc:	01 d0                	add    %edx,%eax
    23fe:	c1 e0 02             	shl    $0x2,%eax
    2401:	db 6d 0c             	fldt   0xc(%ebp)
    2404:	db a8 80 79 00 00    	fldt   0x7980(%eax)
    240a:	de c9                	fmulp  %st,%st(1)
    240c:	db 2d 40 7a 00 00    	fldt   0x7a40
    2412:	da e9                	fucompp 
    2414:	df e0                	fnstsw %ax
    2416:	f6 c4 45             	test   $0x45,%ah
    2419:	74 02                	je     241d <_fpmaxtostr+0x1e5>
    241b:	eb 70                	jmp    248d <_fpmaxtostr+0x255>
    241d:	8b 55 f0             	mov    0xfffffff0(%ebp),%edx
    2420:	89 d0                	mov    %edx,%eax
    2422:	d1 e0                	shl    %eax
    2424:	01 d0                	add    %edx,%eax
    2426:	c1 e0 02             	shl    $0x2,%eax
    2429:	db 6d 0c             	fldt   0xc(%ebp)
    242c:	db a8 80 79 00 00    	fldt   0x7980(%eax)
    2432:	de c9                	fmulp  %st,%st(1)
    2434:	db 7d 0c             	fstpt  0xc(%ebp)
    2437:	8b 55 ec             	mov    0xffffffec(%ebp),%edx
    243a:	8d 45 e0             	lea    0xffffffe0(%ebp),%eax
    243d:	29 10                	sub    %edx,(%eax)
    243f:	eb 4c                	jmp    248d <_fpmaxtostr+0x255>
    2441:	8b 55 f0             	mov    0xfffffff0(%ebp),%edx
    2444:	89 d0                	mov    %edx,%eax
    2446:	d1 e0                	shl    %eax
    2448:	01 d0                	add    %edx,%eax
    244a:	c1 e0 02             	shl    $0x2,%eax
    244d:	db 6d 0c             	fldt   0xc(%ebp)
    2450:	db a8 80 79 00 00    	fldt   0x7980(%eax)
    2456:	de f9                	fdivrp %st,%st(1)
    2458:	db 2d 30 7a 00 00    	fldt   0x7a30
    245e:	d9 c9                	fxch   %st(1)
    2460:	da e9                	fucompp 
    2462:	df e0                	fnstsw %ax
    2464:	f6 c4 05             	test   $0x5,%ah
    2467:	74 02                	je     246b <_fpmaxtostr+0x233>
    2469:	eb 22                	jmp    248d <_fpmaxtostr+0x255>
    246b:	8b 55 f0             	mov    0xfffffff0(%ebp),%edx
    246e:	89 d0                	mov    %edx,%eax
    2470:	d1 e0                	shl    %eax
    2472:	01 d0                	add    %edx,%eax
    2474:	c1 e0 02             	shl    $0x2,%eax
    2477:	db 6d 0c             	fldt   0xc(%ebp)
    247a:	db a8 80 79 00 00    	fldt   0x7980(%eax)
    2480:	de f9                	fdivrp %st,%st(1)
    2482:	db 7d 0c             	fstpt  0xc(%ebp)
    2485:	8b 55 ec             	mov    0xffffffec(%ebp),%edx
    2488:	8d 45 e0             	lea    0xffffffe0(%ebp),%eax
    248b:	01 10                	add    %edx,(%eax)
    248d:	8d 45 ec             	lea    0xffffffec(%ebp),%eax
    2490:	d1 38                	sarl   (%eax)
    2492:	83 7d f0 00          	cmpl   $0x0,0xfffffff0(%ebp)
    2496:	0f 85 4e ff ff ff    	jne    23ea <_fpmaxtostr+0x1b2>
    249c:	db 6d 0c             	fldt   0xc(%ebp)
    249f:	db 2d 40 7a 00 00    	fldt   0x7a40
    24a5:	d9 c9                	fxch   %st(1)
    24a7:	da e9                	fucompp 
    24a9:	df e0                	fnstsw %ax
    24ab:	f6 c4 05             	test   $0x5,%ah
    24ae:	74 02                	je     24b2 <_fpmaxtostr+0x27a>
    24b0:	eb 13                	jmp    24c5 <_fpmaxtostr+0x28d>
    24b2:	db 6d 0c             	fldt   0xc(%ebp)
    24b5:	db 2d 80 79 00 00    	fldt   0x7980
    24bb:	de f9                	fdivrp %st,%st(1)
    24bd:	db 7d 0c             	fstpt  0xc(%ebp)
    24c0:	8d 45 e0             	lea    0xffffffe0(%ebp),%eax
    24c3:	ff 00                	incl   (%eax)
    24c5:	8d 85 28 ff ff ff    	lea    0xffffff28(%ebp),%eax
    24cb:	83 c0 02             	add    $0x2,%eax
    24ce:	89 45 cc             	mov    %eax,0xffffffcc(%ebp)
    24d1:	c7 45 f0 00 00 00 00 	movl   $0x0,0xfffffff0(%ebp)
    24d8:	d9 bd 0c ff ff ff    	fnstcw 0xffffff0c(%ebp)
    24de:	8b 85 0c ff ff ff    	mov    0xffffff0c(%ebp),%eax
    24e4:	b4 0c                	mov    $0xc,%ah
    24e6:	66 89 85 0a ff ff ff 	mov    %ax,0xffffff0a(%ebp)
    24ed:	db 6d 0c             	fldt   0xc(%ebp)
    24f0:	d9 ad 0a ff ff ff    	fldcw  0xffffff0a(%ebp)
    24f6:	df bd 00 ff ff ff    	fistpll 0xffffff00(%ebp)
    24fc:	d9 ad 0c ff ff ff    	fldcw  0xffffff0c(%ebp)
    2502:	8b 85 00 ff ff ff    	mov    0xffffff00(%ebp),%eax
    2508:	8b 95 04 ff ff ff    	mov    0xffffff04(%ebp),%edx
    250e:	89 45 f4             	mov    %eax,0xfffffff4(%ebp)
    2511:	8b 45 f4             	mov    0xfffffff4(%ebp),%eax
    2514:	ba 00 00 00 00       	mov    $0x0,%edx
    2519:	52                   	push   %edx
    251a:	50                   	push   %eax
    251b:	df 2c 24             	fildll (%esp,1)
    251e:	8d 64 24 08          	lea    0x8(%esp,1),%esp
    2522:	db 6d 0c             	fldt   0xc(%ebp)
    2525:	de e1                	fsubp  %st,%st(1)
    2527:	db 2d 40 7a 00 00    	fldt   0x7a40
    252d:	de c9                	fmulp  %st,%st(1)
    252f:	db 7d 0c             	fstpt  0xc(%ebp)
    2532:	8d 45 cc             	lea    0xffffffcc(%ebp),%eax
    2535:	83 00 09             	addl   $0x9,(%eax)
    2538:	c7 45 ec 00 00 00 00 	movl   $0x0,0xffffffec(%ebp)
    253f:	8d 45 ec             	lea    0xffffffec(%ebp),%eax
    2542:	ff 00                	incl   (%eax)
    2544:	8b 55 ec             	mov    0xffffffec(%ebp),%edx
    2547:	8b 45 cc             	mov    0xffffffcc(%ebp),%eax
    254a:	89 c1                	mov    %eax,%ecx
    254c:	29 d1                	sub    %edx,%ecx
    254e:	8b 55 f4             	mov    0xfffffff4(%ebp),%edx
    2551:	c7 85 f4 fe ff ff 0a 	movl   $0xa,0xfffffef4(%ebp)
    2558:	00 00 00 
    255b:	89 d0                	mov    %edx,%eax
    255d:	ba 00 00 00 00       	mov    $0x0,%edx
    2562:	f7 b5 f4 fe ff ff    	divl   0xfffffef4(%ebp)
    2568:	8d 42 30             	lea    0x30(%edx),%eax
    256b:	88 01                	mov    %al,(%ecx)
    256d:	8b 55 f4             	mov    0xfffffff4(%ebp),%edx
    2570:	b8 cd cc cc cc       	mov    $0xcccccccd,%eax
    2575:	f7 e2                	mul    %edx
    2577:	89 d0                	mov    %edx,%eax
    2579:	c1 e8 03             	shr    $0x3,%eax
    257c:	89 45 f4             	mov    %eax,0xfffffff4(%ebp)
    257f:	83 7d ec 08          	cmpl   $0x8,0xffffffec(%ebp)
    2583:	7e ba                	jle    253f <_fpmaxtostr+0x307>
    2585:	8d 45 f0             	lea    0xfffffff0(%ebp),%eax
    2588:	ff 00                	incl   (%eax)
    258a:	83 7d f0 02          	cmpl   $0x2,0xfffffff0(%ebp)
    258e:	0f 8e 59 ff ff ff    	jle    24ed <_fpmaxtostr+0x2b5>
    2594:	80 bd 16 ff ff ff 60 	cmpb   $0x60,0xffffff16(%ebp)
    259b:	7f 12                	jg     25af <_fpmaxtostr+0x377>
    259d:	8d 85 48 ff ff ff    	lea    0xffffff48(%ebp),%eax
    25a3:	80 28 20             	subb   $0x20,(%eax)
    25a6:	8d 85 16 ff ff ff    	lea    0xffffff16(%ebp),%eax
    25ac:	80 00 20             	addb   $0x20,(%eax)
    25af:	8a 85 16 ff ff ff    	mov    0xffffff16(%ebp),%al
    25b5:	88 85 17 ff ff ff    	mov    %al,0xffffff17(%ebp)
    25bb:	80 bd 16 ff ff ff 67 	cmpb   $0x67,0xffffff16(%ebp)
    25c2:	75 0b                	jne    25cf <_fpmaxtostr+0x397>
    25c4:	83 7d d4 00          	cmpl   $0x0,0xffffffd4(%ebp)
    25c8:	7e 05                	jle    25cf <_fpmaxtostr+0x397>
    25ca:	8d 45 d4             	lea    0xffffffd4(%ebp),%eax
    25cd:	ff 08                	decl   (%eax)
    25cf:	8b 45 d4             	mov    0xffffffd4(%ebp),%eax
    25d2:	89 45 e8             	mov    %eax,0xffffffe8(%ebp)
    25d5:	80 bd 16 ff ff ff 66 	cmpb   $0x66,0xffffff16(%ebp)
    25dc:	75 32                	jne    2610 <_fpmaxtostr+0x3d8>
    25de:	8b 55 e0             	mov    0xffffffe0(%ebp),%edx
    25e1:	8d 45 e8             	lea    0xffffffe8(%ebp),%eax
    25e4:	01 10                	add    %edx,(%eax)
    25e6:	83 7d e8 ff          	cmpl   $0xffffffff,0xffffffe8(%ebp)
    25ea:	7d 24                	jge    2610 <_fpmaxtostr+0x3d8>
    25ec:	83 ec 04             	sub    $0x4,%esp
    25ef:	6a 15                	push   $0x15
    25f1:	6a 30                	push   $0x30
    25f3:	8d 85 28 ff ff ff    	lea    0xffffff28(%ebp),%eax
    25f9:	50                   	push   %eax
    25fa:	e8 05 06 00 00       	call   2c04 <memset>
    25ff:	83 c4 10             	add    $0x10,%esp
    2602:	c7 45 e0 ff ff ff ff 	movl   $0xffffffff,0xffffffe0(%ebp)
    2609:	c7 45 e8 ff ff ff ff 	movl   $0xffffffff,0xffffffe8(%ebp)
    2610:	8d 85 28 ff ff ff    	lea    0xffffff28(%ebp),%eax
    2616:	89 45 cc             	mov    %eax,0xffffffcc(%ebp)
    2619:	8b 45 cc             	mov    0xffffffcc(%ebp),%eax
    261c:	c6 00 00             	movb   $0x0,(%eax)
    261f:	8d 45 cc             	lea    0xffffffcc(%ebp),%eax
    2622:	ff 00                	incl   (%eax)
    2624:	8b 45 cc             	mov    0xffffffcc(%ebp),%eax
    2627:	c6 00 30             	movb   $0x30,(%eax)
    262a:	c7 45 f0 00 00 00 00 	movl   $0x0,0xfffffff0(%ebp)
    2631:	8b 45 cc             	mov    0xffffffcc(%ebp),%eax
    2634:	83 c0 16             	add    $0x16,%eax
    2637:	89 45 c8             	mov    %eax,0xffffffc8(%ebp)
    263a:	83 7d e8 14          	cmpl   $0x14,0xffffffe8(%ebp)
    263e:	7f 1b                	jg     265b <_fpmaxtostr+0x423>
    2640:	8b 45 e8             	mov    0xffffffe8(%ebp),%eax
    2643:	03 45 cc             	add    0xffffffcc(%ebp),%eax
    2646:	83 c0 02             	add    $0x2,%eax
    2649:	89 45 c8             	mov    %eax,0xffffffc8(%ebp)
    264c:	8b 45 c8             	mov    0xffffffc8(%ebp),%eax
    264f:	80 38 34             	cmpb   $0x34,(%eax)
    2652:	7e 07                	jle    265b <_fpmaxtostr+0x423>
    2654:	c7 45 f0 01 00 00 00 	movl   $0x1,0xfffffff0(%ebp)
    265b:	90                   	nop    
    265c:	8d 45 c8             	lea    0xffffffc8(%ebp),%eax
    265f:	ff 08                	decl   (%eax)
    2661:	8b 55 c8             	mov    0xffffffc8(%ebp),%edx
    2664:	8a 45 f0             	mov    0xfffffff0(%ebp),%al
    2667:	00 02                	add    %al,(%edx)
    2669:	8b 45 c8             	mov    0xffffffc8(%ebp),%eax
    266c:	80 38 30             	cmpb   $0x30,(%eax)
    266f:	74 eb                	je     265c <_fpmaxtostr+0x424>
    2671:	8b 45 c8             	mov    0xffffffc8(%ebp),%eax
    2674:	80 38 39             	cmpb   $0x39,(%eax)
    2677:	7f e3                	jg     265c <_fpmaxtostr+0x424>
    2679:	8b 45 e0             	mov    0xffffffe0(%ebp),%eax
    267c:	89 45 e4             	mov    %eax,0xffffffe4(%ebp)
    267f:	8b 45 c8             	mov    0xffffffc8(%ebp),%eax
    2682:	3b 45 cc             	cmp    0xffffffcc(%ebp),%eax
    2685:	77 0d                	ja     2694 <_fpmaxtostr+0x45c>
    2687:	8d 45 e4             	lea    0xffffffe4(%ebp),%eax
    268a:	ff 00                	incl   (%eax)
    268c:	8b 45 cc             	mov    0xffffffcc(%ebp),%eax
    268f:	89 45 c8             	mov    %eax,0xffffffc8(%ebp)
    2692:	eb 05                	jmp    2699 <_fpmaxtostr+0x461>
    2694:	8d 45 cc             	lea    0xffffffcc(%ebp),%eax
    2697:	ff 00                	incl   (%eax)
    2699:	8d 45 c8             	lea    0xffffffc8(%ebp),%eax
    269c:	ff 00                	incl   (%eax)
    269e:	8b 45 c8             	mov    0xffffffc8(%ebp),%eax
    26a1:	c6 00 00             	movb   $0x0,(%eax)
    26a4:	80 bd 16 ff ff ff 67 	cmpb   $0x67,0xffffff16(%ebp)
    26ab:	75 22                	jne    26cf <_fpmaxtostr+0x497>
    26ad:	83 7d e4 fc          	cmpl   $0xfffffffc,0xffffffe4(%ebp)
    26b1:	7c 1c                	jl     26cf <_fpmaxtostr+0x497>
    26b3:	8b 45 e4             	mov    0xffffffe4(%ebp),%eax
    26b6:	3b 45 e8             	cmp    0xffffffe8(%ebp),%eax
    26b9:	7f 14                	jg     26cf <_fpmaxtostr+0x497>
    26bb:	c6 85 16 ff ff ff 66 	movb   $0x66,0xffffff16(%ebp)
    26c2:	8b 45 e4             	mov    0xffffffe4(%ebp),%eax
    26c5:	8b 55 e8             	mov    0xffffffe8(%ebp),%edx
    26c8:	29 c2                	sub    %eax,%edx
    26ca:	89 d0                	mov    %edx,%eax
    26cc:	89 45 d4             	mov    %eax,0xffffffd4(%ebp)
    26cf:	8b 45 e4             	mov    0xffffffe4(%ebp),%eax
    26d2:	89 45 e0             	mov    %eax,0xffffffe0(%ebp)
    26d5:	80 bd 16 ff ff ff 66 	cmpb   $0x66,0xffffff16(%ebp)
    26dc:	74 07                	je     26e5 <_fpmaxtostr+0x4ad>
    26de:	c7 45 e4 00 00 00 00 	movl   $0x0,0xffffffe4(%ebp)
    26e5:	83 7d e4 00          	cmpl   $0x0,0xffffffe4(%ebp)
    26e9:	79 0b                	jns    26f6 <_fpmaxtostr+0x4be>
    26eb:	8d 45 cc             	lea    0xffffffcc(%ebp),%eax
    26ee:	ff 08                	decl   (%eax)
    26f0:	8b 45 cc             	mov    0xffffffcc(%ebp),%eax
    26f3:	c6 00 30             	movb   $0x30,(%eax)
    26f6:	c7 85 74 ff ff ff b0 	movl   $0xb0,0xffffff74(%ebp)
    26fd:	00 00 00 
    2700:	c7 85 78 ff ff ff 01 	movl   $0x1,0xffffff78(%ebp)
    2707:	00 00 00 
    270a:	8d 85 18 ff ff ff    	lea    0xffffff18(%ebp),%eax
    2710:	83 c0 04             	add    $0x4,%eax
    2713:	89 85 7c ff ff ff    	mov    %eax,0xffffff7c(%ebp)
    2719:	8b 45 cc             	mov    0xffffffcc(%ebp),%eax
    271c:	8a 00                	mov    (%eax),%al
    271e:	88 85 1c ff ff ff    	mov    %al,0xffffff1c(%ebp)
    2724:	8d 45 cc             	lea    0xffffffcc(%ebp),%eax
    2727:	ff 00                	incl   (%eax)
    2729:	c6 85 1d ff ff ff 00 	movb   $0x0,0xffffff1d(%ebp)
    2730:	8d 85 68 ff ff ff    	lea    0xffffff68(%ebp),%eax
    2736:	83 c0 18             	add    $0x18,%eax
    2739:	89 85 64 ff ff ff    	mov    %eax,0xffffff64(%ebp)
    273f:	8b 55 cc             	mov    0xffffffcc(%ebp),%edx
    2742:	8b 45 c8             	mov    0xffffffc8(%ebp),%eax
    2745:	29 d0                	sub    %edx,%eax
    2747:	89 45 f0             	mov    %eax,0xfffffff0(%ebp)
    274a:	83 7d e4 00          	cmpl   $0x0,0xffffffe4(%ebp)
    274e:	0f 88 b6 00 00 00    	js     280a <_fpmaxtostr+0x5d2>
    2754:	8b 85 64 ff ff ff    	mov    0xffffff64(%ebp),%eax
    275a:	c7 00 70 00 00 00    	movl   $0x70,(%eax)
    2760:	8b 95 64 ff ff ff    	mov    0xffffff64(%ebp),%edx
    2766:	83 c2 08             	add    $0x8,%edx
    2769:	8b 45 cc             	mov    0xffffffcc(%ebp),%eax
    276c:	89 02                	mov    %eax,(%edx)
    276e:	8b 45 e4             	mov    0xffffffe4(%ebp),%eax
    2771:	3b 45 f0             	cmp    0xfffffff0(%ebp),%eax
    2774:	7c 60                	jl     27d6 <_fpmaxtostr+0x59e>
    2776:	8b 95 64 ff ff ff    	mov    0xffffff64(%ebp),%edx
    277c:	83 c2 04             	add    $0x4,%edx
    277f:	8b 45 f0             	mov    0xfffffff0(%ebp),%eax
    2782:	89 02                	mov    %eax,(%edx)
    2784:	8d 85 64 ff ff ff    	lea    0xffffff64(%ebp),%eax
    278a:	83 00 0c             	addl   $0xc,(%eax)
    278d:	8b 55 f0             	mov    0xfffffff0(%ebp),%edx
    2790:	8d 45 e4             	lea    0xffffffe4(%ebp),%eax
    2793:	29 10                	sub    %edx,(%eax)
    2795:	c7 45 f0 00 00 00 00 	movl   $0x0,0xfffffff0(%ebp)
    279c:	83 7d e4 00          	cmpl   $0x0,0xffffffe4(%ebp)
    27a0:	7e 61                	jle    2803 <_fpmaxtostr+0x5cb>
    27a2:	8b 85 64 ff ff ff    	mov    0xffffff64(%ebp),%eax
    27a8:	c7 00 b0 00 00 00    	movl   $0xb0,(%eax)
    27ae:	8b 95 64 ff ff ff    	mov    0xffffff64(%ebp),%edx
    27b4:	83 c2 04             	add    $0x4,%edx
    27b7:	8b 45 e4             	mov    0xffffffe4(%ebp),%eax
    27ba:	89 02                	mov    %eax,(%edx)
    27bc:	8b 85 64 ff ff ff    	mov    0xffffff64(%ebp),%eax
    27c2:	83 c0 08             	add    $0x8,%eax
    27c5:	c7 00 63 79 00 00    	movl   $0x7963,(%eax)
    27cb:	8d 85 64 ff ff ff    	lea    0xffffff64(%ebp),%eax
    27d1:	83 00 0c             	addl   $0xc,(%eax)
    27d4:	eb 2d                	jmp    2803 <_fpmaxtostr+0x5cb>
    27d6:	83 7d e4 00          	cmpl   $0x0,0xffffffe4(%ebp)
    27da:	7e 27                	jle    2803 <_fpmaxtostr+0x5cb>
    27dc:	8b 95 64 ff ff ff    	mov    0xffffff64(%ebp),%edx
    27e2:	83 c2 04             	add    $0x4,%edx
    27e5:	8b 45 e4             	mov    0xffffffe4(%ebp),%eax
    27e8:	89 02                	mov    %eax,(%edx)
    27ea:	8d 85 64 ff ff ff    	lea    0xffffff64(%ebp),%eax
    27f0:	83 00 0c             	addl   $0xc,(%eax)
    27f3:	8b 55 e4             	mov    0xffffffe4(%ebp),%edx
    27f6:	8d 45 cc             	lea    0xffffffcc(%ebp),%eax
    27f9:	01 10                	add    %edx,(%eax)
    27fb:	8b 55 e4             	mov    0xffffffe4(%ebp),%edx
    27fe:	8d 45 f0             	lea    0xfffffff0(%ebp),%eax
    2801:	29 10                	sub    %edx,(%eax)
    2803:	c7 45 e4 ff ff ff ff 	movl   $0xffffffff,0xffffffe4(%ebp)
    280a:	8b 45 18             	mov    0x18(%ebp),%eax
    280d:	8b 40 0c             	mov    0xc(%eax),%eax
    2810:	83 e0 10             	and    $0x10,%eax
    2813:	85 c0                	test   %eax,%eax
    2815:	75 17                	jne    282e <_fpmaxtostr+0x5f6>
    2817:	83 7d f0 00          	cmpl   $0x0,0xfffffff0(%ebp)
    281b:	75 11                	jne    282e <_fpmaxtostr+0x5f6>
    281d:	80 bd 17 ff ff ff 67 	cmpb   $0x67,0xffffff17(%ebp)
    2824:	74 76                	je     289c <_fpmaxtostr+0x664>
    2826:	83 7d d4 00          	cmpl   $0x0,0xffffffd4(%ebp)
    282a:	7f 02                	jg     282e <_fpmaxtostr+0x5f6>
    282c:	eb 6e                	jmp    289c <_fpmaxtostr+0x664>
    282e:	8b 85 64 ff ff ff    	mov    0xffffff64(%ebp),%eax
    2834:	c7 00 70 00 00 00    	movl   $0x70,(%eax)
    283a:	8b 45 18             	mov    0x18(%ebp),%eax
    283d:	8a 40 0c             	mov    0xc(%eax),%al
    2840:	83 e0 80             	and    $0xffffff80,%eax
    2843:	84 c0                	test   %al,%al
    2845:	74 20                	je     2867 <_fpmaxtostr+0x62f>
    2847:	8b 85 64 ff ff ff    	mov    0xffffff64(%ebp),%eax
    284d:	83 c0 04             	add    $0x4,%eax
    2850:	c7 00 01 00 00 00    	movl   $0x1,(%eax)
    2856:	8b 85 64 ff ff ff    	mov    0xffffff64(%ebp),%eax
    285c:	83 c0 08             	add    $0x8,%eax
    285f:	c7 00 70 79 00 00    	movl   $0x7970,(%eax)
    2865:	eb 2c                	jmp    2893 <_fpmaxtostr+0x65b>
    2867:	8b 95 64 ff ff ff    	mov    0xffffff64(%ebp),%edx
    286d:	83 c2 04             	add    $0x4,%edx
    2870:	a1 e8 83 04 00       	mov    0x483e8,%eax
    2875:	8b 80 6c 09 00 00    	mov    0x96c(%eax),%eax
    287b:	89 02                	mov    %eax,(%edx)
    287d:	8b 95 64 ff ff ff    	mov    0xffffff64(%ebp),%edx
    2883:	83 c2 08             	add    $0x8,%edx
    2886:	a1 e8 83 04 00       	mov    0x483e8,%eax
    288b:	8b 80 a0 09 00 00    	mov    0x9a0(%eax),%eax
    2891:	89 02                	mov    %eax,(%edx)
    2893:	8d 85 64 ff ff ff    	lea    0xffffff64(%ebp),%eax
    2899:	83 00 0c             	addl   $0xc,(%eax)
    289c:	8d 45 e4             	lea    0xffffffe4(%ebp),%eax
    289f:	ff 00                	incl   (%eax)
    28a1:	83 7d e4 00          	cmpl   $0x0,0xffffffe4(%ebp)
    28a5:	79 34                	jns    28db <_fpmaxtostr+0x6a3>
    28a7:	8b 85 64 ff ff ff    	mov    0xffffff64(%ebp),%eax
    28ad:	c7 00 b0 00 00 00    	movl   $0xb0,(%eax)
    28b3:	8b 95 64 ff ff ff    	mov    0xffffff64(%ebp),%edx
    28b9:	83 c2 04             	add    $0x4,%edx
    28bc:	8b 45 e4             	mov    0xffffffe4(%ebp),%eax
    28bf:	f7 d8                	neg    %eax
    28c1:	89 02                	mov    %eax,(%edx)
    28c3:	8b 85 64 ff ff ff    	mov    0xffffff64(%ebp),%eax
    28c9:	83 c0 08             	add    $0x8,%eax
    28cc:	c7 00 63 79 00 00    	movl   $0x7963,(%eax)
    28d2:	8d 85 64 ff ff ff    	lea    0xffffff64(%ebp),%eax
    28d8:	83 00 0c             	addl   $0xc,(%eax)
    28db:	83 7d f0 00          	cmpl   $0x0,0xfffffff0(%ebp)
    28df:	74 31                	je     2912 <_fpmaxtostr+0x6da>
    28e1:	8b 85 64 ff ff ff    	mov    0xffffff64(%ebp),%eax
    28e7:	c7 00 70 00 00 00    	movl   $0x70,(%eax)
    28ed:	8b 95 64 ff ff ff    	mov    0xffffff64(%ebp),%edx
    28f3:	83 c2 04             	add    $0x4,%edx
    28f6:	8b 45 f0             	mov    0xfffffff0(%ebp),%eax
    28f9:	89 02                	mov    %eax,(%edx)
    28fb:	8b 95 64 ff ff ff    	mov    0xffffff64(%ebp),%edx
    2901:	83 c2 08             	add    $0x8,%edx
    2904:	8b 45 cc             	mov    0xffffffcc(%ebp),%eax
    2907:	89 02                	mov    %eax,(%edx)
    2909:	8d 85 64 ff ff ff    	lea    0xffffff64(%ebp),%eax
    290f:	83 00 0c             	addl   $0xc,(%eax)
    2912:	80 bd 17 ff ff ff 67 	cmpb   $0x67,0xffffff17(%ebp)
    2919:	75 0f                	jne    292a <_fpmaxtostr+0x6f2>
    291b:	8b 45 18             	mov    0x18(%ebp),%eax
    291e:	8b 40 0c             	mov    0xc(%eax),%eax
    2921:	83 e0 10             	and    $0x10,%eax
    2924:	85 c0                	test   %eax,%eax
    2926:	75 02                	jne    292a <_fpmaxtostr+0x6f2>
    2928:	eb 4d                	jmp    2977 <_fpmaxtostr+0x73f>
    292a:	8b 45 e4             	mov    0xffffffe4(%ebp),%eax
    292d:	8d 55 f0             	lea    0xfffffff0(%ebp),%edx
    2930:	29 02                	sub    %eax,(%edx)
    2932:	8b 45 f0             	mov    0xfffffff0(%ebp),%eax
    2935:	3b 45 d4             	cmp    0xffffffd4(%ebp),%eax
    2938:	7d 3d                	jge    2977 <_fpmaxtostr+0x73f>
    293a:	8b 55 f0             	mov    0xfffffff0(%ebp),%edx
    293d:	8b 45 d4             	mov    0xffffffd4(%ebp),%eax
    2940:	29 d0                	sub    %edx,%eax
    2942:	89 45 f0             	mov    %eax,0xfffffff0(%ebp)
    2945:	8b 85 64 ff ff ff    	mov    0xffffff64(%ebp),%eax
    294b:	c7 00 b0 00 00 00    	movl   $0xb0,(%eax)
    2951:	8b 95 64 ff ff ff    	mov    0xffffff64(%ebp),%edx
    2957:	83 c2 04             	add    $0x4,%edx
    295a:	8b 45 f0             	mov    0xfffffff0(%ebp),%eax
    295d:	89 02                	mov    %eax,(%edx)
    295f:	8b 85 64 ff ff ff    	mov    0xffffff64(%ebp),%eax
    2965:	83 c0 08             	add    $0x8,%eax
    2968:	c7 00 63 79 00 00    	movl   $0x7963,(%eax)
    296e:	8d 85 64 ff ff ff    	lea    0xffffff64(%ebp),%eax
    2974:	83 00 0c             	addl   $0xc,(%eax)
    2977:	80 bd 16 ff ff ff 66 	cmpb   $0x66,0xffffff16(%ebp)
    297e:	0f 84 0a 01 00 00    	je     2a8e <_fpmaxtostr+0x856>
    2984:	8d 85 48 ff ff ff    	lea    0xffffff48(%ebp),%eax
    298a:	83 c0 10             	add    $0x10,%eax
    298d:	89 85 10 ff ff ff    	mov    %eax,0xffffff10(%ebp)
    2993:	8a 85 48 ff ff ff    	mov    0xffffff48(%ebp),%al
    2999:	88 85 0f ff ff ff    	mov    %al,0xffffff0f(%ebp)
    299f:	c6 85 0e ff ff ff 2b 	movb   $0x2b,0xffffff0e(%ebp)
    29a6:	83 7d e0 00          	cmpl   $0x0,0xffffffe0(%ebp)
    29aa:	79 0c                	jns    29b8 <_fpmaxtostr+0x780>
    29ac:	c6 85 0e ff ff ff 2d 	movb   $0x2d,0xffffff0e(%ebp)
    29b3:	8d 45 e0             	lea    0xffffffe0(%ebp),%eax
    29b6:	f7 18                	negl   (%eax)
    29b8:	8d 85 10 ff ff ff    	lea    0xffffff10(%ebp),%eax
    29be:	ff 08                	decl   (%eax)
    29c0:	8b 85 10 ff ff ff    	mov    0xffffff10(%ebp),%eax
    29c6:	c6 00 00             	movb   $0x0,(%eax)
    29c9:	c7 45 ec 02 00 00 00 	movl   $0x2,0xffffffec(%ebp)
    29d0:	8d 85 10 ff ff ff    	lea    0xffffff10(%ebp),%eax
    29d6:	ff 08                	decl   (%eax)
    29d8:	8b 9d 10 ff ff ff    	mov    0xffffff10(%ebp),%ebx
    29de:	8b 4d e0             	mov    0xffffffe0(%ebp),%ecx
    29e1:	b8 67 66 66 66       	mov    $0x66666667,%eax
    29e6:	f7 e9                	imul   %ecx
    29e8:	c1 fa 02             	sar    $0x2,%edx
    29eb:	89 c8                	mov    %ecx,%eax
    29ed:	c1 f8 1f             	sar    $0x1f,%eax
    29f0:	29 c2                	sub    %eax,%edx
    29f2:	89 d0                	mov    %edx,%eax
    29f4:	c1 e0 02             	shl    $0x2,%eax
    29f7:	01 d0                	add    %edx,%eax
    29f9:	d1 e0                	shl    %eax
    29fb:	29 c1                	sub    %eax,%ecx
    29fd:	89 c8                	mov    %ecx,%eax
    29ff:	83 c0 30             	add    $0x30,%eax
    2a02:	88 03                	mov    %al,(%ebx)
    2a04:	8b 4d e0             	mov    0xffffffe0(%ebp),%ecx
    2a07:	b8 67 66 66 66       	mov    $0x66666667,%eax
    2a0c:	f7 e9                	imul   %ecx
    2a0e:	c1 fa 02             	sar    $0x2,%edx
    2a11:	89 c8                	mov    %ecx,%eax
    2a13:	c1 f8 1f             	sar    $0x1f,%eax
    2a16:	29 c2                	sub    %eax,%edx
    2a18:	89 d0                	mov    %edx,%eax
    2a1a:	89 45 e0             	mov    %eax,0xffffffe0(%ebp)
    2a1d:	8d 45 ec             	lea    0xffffffec(%ebp),%eax
    2a20:	ff 00                	incl   (%eax)
    2a22:	83 7d ec 03          	cmpl   $0x3,0xffffffec(%ebp)
    2a26:	7e a8                	jle    29d0 <_fpmaxtostr+0x798>
    2a28:	83 7d e0 00          	cmpl   $0x0,0xffffffe0(%ebp)
    2a2c:	75 a2                	jne    29d0 <_fpmaxtostr+0x798>
    2a2e:	8d 85 10 ff ff ff    	lea    0xffffff10(%ebp),%eax
    2a34:	ff 08                	decl   (%eax)
    2a36:	8b 95 10 ff ff ff    	mov    0xffffff10(%ebp),%edx
    2a3c:	8a 85 0e ff ff ff    	mov    0xffffff0e(%ebp),%al
    2a42:	88 02                	mov    %al,(%edx)
    2a44:	8d 85 10 ff ff ff    	lea    0xffffff10(%ebp),%eax
    2a4a:	ff 08                	decl   (%eax)
    2a4c:	8b 95 10 ff ff ff    	mov    0xffffff10(%ebp),%edx
    2a52:	8a 85 0f ff ff ff    	mov    0xffffff0f(%ebp),%al
    2a58:	88 02                	mov    %al,(%edx)
    2a5a:	8b 85 64 ff ff ff    	mov    0xffffff64(%ebp),%eax
    2a60:	c7 00 70 00 00 00    	movl   $0x70,(%eax)
    2a66:	8b 95 64 ff ff ff    	mov    0xffffff64(%ebp),%edx
    2a6c:	83 c2 04             	add    $0x4,%edx
    2a6f:	8b 45 ec             	mov    0xffffffec(%ebp),%eax
    2a72:	89 02                	mov    %eax,(%edx)
    2a74:	8b 95 64 ff ff ff    	mov    0xffffff64(%ebp),%edx
    2a7a:	83 c2 08             	add    $0x8,%edx
    2a7d:	8b 85 10 ff ff ff    	mov    0xffffff10(%ebp),%eax
    2a83:	89 02                	mov    %eax,(%edx)
    2a85:	8d 85 64 ff ff ff    	lea    0xffffff64(%ebp),%eax
    2a8b:	83 00 0c             	addl   $0xc,(%eax)
    2a8e:	8b 85 64 ff ff ff    	mov    0xffffff64(%ebp),%eax
    2a94:	89 85 60 ff ff ff    	mov    %eax,0xffffff60(%ebp)
    2a9a:	8d 85 68 ff ff ff    	lea    0xffffff68(%ebp),%eax
    2aa0:	83 c0 10             	add    $0x10,%eax
    2aa3:	89 85 64 ff ff ff    	mov    %eax,0xffffff64(%ebp)
    2aa9:	8b 85 64 ff ff ff    	mov    0xffffff64(%ebp),%eax
    2aaf:	8b 10                	mov    (%eax),%edx
    2ab1:	8d 45 d8             	lea    0xffffffd8(%ebp),%eax
    2ab4:	29 10                	sub    %edx,(%eax)
    2ab6:	8d 85 64 ff ff ff    	lea    0xffffff64(%ebp),%eax
    2abc:	83 00 0c             	addl   $0xc,(%eax)
    2abf:	8b 85 64 ff ff ff    	mov    0xffffff64(%ebp),%eax
    2ac5:	3b 85 60 ff ff ff    	cmp    0xffffff60(%ebp),%eax
    2acb:	72 dc                	jb     2aa9 <_fpmaxtostr+0x871>
    2acd:	8d 85 68 ff ff ff    	lea    0xffffff68(%ebp),%eax
    2ad3:	89 85 64 ff ff ff    	mov    %eax,0xffffff64(%ebp)
    2ad9:	8b 85 64 ff ff ff    	mov    0xffffff64(%ebp),%eax
    2adf:	c7 00 a0 00 00 00    	movl   $0xa0,(%eax)
    2ae5:	8b 95 64 ff ff ff    	mov    0xffffff64(%ebp),%edx
    2aeb:	83 c2 04             	add    $0x4,%edx
    2aee:	80 bd 18 ff ff ff 00 	cmpb   $0x0,0xffffff18(%ebp)
    2af5:	0f 95 c0             	setne  %al
    2af8:	0f b6 c0             	movzbl %al,%eax
    2afb:	89 45 f0             	mov    %eax,0xfffffff0(%ebp)
    2afe:	8b 45 f0             	mov    0xfffffff0(%ebp),%eax
    2b01:	89 02                	mov    %eax,(%edx)
    2b03:	8b 95 64 ff ff ff    	mov    0xffffff64(%ebp),%edx
    2b09:	83 c2 08             	add    $0x8,%edx
    2b0c:	8d 85 18 ff ff ff    	lea    0xffffff18(%ebp),%eax
    2b12:	89 02                	mov    %eax,(%edx)
    2b14:	8b 55 f0             	mov    0xfffffff0(%ebp),%edx
    2b17:	8d 45 d8             	lea    0xffffffd8(%ebp),%eax
    2b1a:	29 10                	sub    %edx,(%eax)
    2b1c:	8b 45 d8             	mov    0xffffffd8(%ebp),%eax
    2b1f:	85 c0                	test   %eax,%eax
    2b21:	7e 7f                	jle    2ba2 <_fpmaxtostr+0x96a>
    2b23:	8b 45 18             	mov    0x18(%ebp),%eax
    2b26:	8b 40 0c             	mov    0xc(%eax),%eax
    2b29:	83 e0 08             	and    $0x8,%eax
    2b2c:	85 c0                	test   %eax,%eax
    2b2e:	74 34                	je     2b64 <_fpmaxtostr+0x92c>
    2b30:	8b 85 60 ff ff ff    	mov    0xffffff60(%ebp),%eax
    2b36:	c7 00 a0 00 00 00    	movl   $0xa0,(%eax)
    2b3c:	8b 95 60 ff ff ff    	mov    0xffffff60(%ebp),%edx
    2b42:	83 c2 04             	add    $0x4,%edx
    2b45:	8b 45 d8             	mov    0xffffffd8(%ebp),%eax
    2b48:	89 02                	mov    %eax,(%edx)
    2b4a:	8b 85 60 ff ff ff    	mov    0xffffff60(%ebp),%eax
    2b50:	83 c0 08             	add    $0x8,%eax
    2b53:	c7 00 63 79 00 00    	movl   $0x7963,(%eax)
    2b59:	8d 85 60 ff ff ff    	lea    0xffffff60(%ebp),%eax
    2b5f:	83 00 0c             	addl   $0xc,(%eax)
    2b62:	eb 3e                	jmp    2ba2 <_fpmaxtostr+0x96a>
    2b64:	8b 45 18             	mov    0x18(%ebp),%eax
    2b67:	66 83 78 10 30       	cmpw   $0x30,0x10(%eax)
    2b6c:	75 1b                	jne    2b89 <_fpmaxtostr+0x951>
    2b6e:	8b 8d 64 ff ff ff    	mov    0xffffff64(%ebp),%ecx
    2b74:	83 c1 10             	add    $0x10,%ecx
    2b77:	8b 95 64 ff ff ff    	mov    0xffffff64(%ebp),%edx
    2b7d:	83 c2 10             	add    $0x10,%edx
    2b80:	8b 45 d8             	mov    0xffffffd8(%ebp),%eax
    2b83:	03 02                	add    (%edx),%eax
    2b85:	89 01                	mov    %eax,(%ecx)
    2b87:	eb 19                	jmp    2ba2 <_fpmaxtostr+0x96a>
    2b89:	8b 8d 64 ff ff ff    	mov    0xffffff64(%ebp),%ecx
    2b8f:	83 c1 04             	add    $0x4,%ecx
    2b92:	8b 95 64 ff ff ff    	mov    0xffffff64(%ebp),%edx
    2b98:	83 c2 04             	add    $0x4,%edx
    2b9b:	8b 45 d8             	mov    0xffffffd8(%ebp),%eax
    2b9e:	03 02                	add    (%edx),%eax
    2ba0:	89 01                	mov    %eax,(%ecx)
    2ba2:	c7 45 d0 00 00 00 00 	movl   $0x0,0xffffffd0(%ebp)
    2ba9:	8b 85 64 ff ff ff    	mov    0xffffff64(%ebp),%eax
    2baf:	83 c0 08             	add    $0x8,%eax
    2bb2:	ff 30                	pushl  (%eax)
    2bb4:	8b 85 64 ff ff ff    	mov    0xffffff64(%ebp),%eax
    2bba:	83 c0 04             	add    $0x4,%eax
    2bbd:	ff 30                	pushl  (%eax)
    2bbf:	8b 85 64 ff ff ff    	mov    0xffffff64(%ebp),%eax
    2bc5:	ff 30                	pushl  (%eax)
    2bc7:	ff 75 08             	pushl  0x8(%ebp)
    2bca:	8b 45 1c             	mov    0x1c(%ebp),%eax
    2bcd:	ff d0                	call   *%eax
    2bcf:	83 c4 10             	add    $0x10,%esp
    2bd2:	8b 85 64 ff ff ff    	mov    0xffffff64(%ebp),%eax
    2bd8:	83 c0 04             	add    $0x4,%eax
    2bdb:	8b 10                	mov    (%eax),%edx
    2bdd:	8d 45 d0             	lea    0xffffffd0(%ebp),%eax
    2be0:	01 10                	add    %edx,(%eax)
    2be2:	8d 85 64 ff ff ff    	lea    0xffffff64(%ebp),%eax
    2be8:	83 00 0c             	addl   $0xc,(%eax)
    2beb:	8b 85 64 ff ff ff    	mov    0xffffff64(%ebp),%eax
    2bf1:	3b 85 60 ff ff ff    	cmp    0xffffff60(%ebp),%eax
    2bf7:	72 b0                	jb     2ba9 <_fpmaxtostr+0x971>
    2bf9:	8b 45 d0             	mov    0xffffffd0(%ebp),%eax
    2bfc:	8b 5d fc             	mov    0xfffffffc(%ebp),%ebx
    2bff:	c9                   	leave  
    2c00:	c3                   	ret    
    2c01:	90                   	nop    
    2c02:	90                   	nop    
    2c03:	90                   	nop    

00002c04 <memset>:
    2c04:	55                   	push   %ebp
    2c05:	89 e5                	mov    %esp,%ebp
    2c07:	57                   	push   %edi
    2c08:	83 ec 08             	sub    $0x8,%esp
    2c0b:	8b 45 0c             	mov    0xc(%ebp),%eax
    2c0e:	8b 7d 08             	mov    0x8(%ebp),%edi
    2c11:	8b 4d 10             	mov    0x10(%ebp),%ecx
    2c14:	f3 aa                	repz stos %al,%es:(%edi)
    2c16:	89 c8                	mov    %ecx,%eax
    2c18:	89 45 f8             	mov    %eax,0xfffffff8(%ebp)
    2c1b:	89 f8                	mov    %edi,%eax
    2c1d:	89 45 f4             	mov    %eax,0xfffffff4(%ebp)
    2c20:	8b 45 08             	mov    0x8(%ebp),%eax
    2c23:	83 c4 08             	add    $0x8,%esp
    2c26:	5f                   	pop    %edi
    2c27:	c9                   	leave  
    2c28:	c3                   	ret    
    2c29:	90                   	nop    
    2c2a:	90                   	nop    
    2c2b:	90                   	nop    

00002c2c <strcasecmp>:
    2c2c:	55                   	push   %ebp
    2c2d:	89 e5                	mov    %esp,%ebp
    2c2f:	83 ec 08             	sub    $0x8,%esp
    2c32:	8b 55 08             	mov    0x8(%ebp),%edx
    2c35:	8b 45 0c             	mov    0xc(%ebp),%eax
    2c38:	83 ec 04             	sub    $0x4,%esp
    2c3b:	ff 35 e8 83 04 00    	pushl  0x483e8
    2c41:	50                   	push   %eax
    2c42:	52                   	push   %edx
    2c43:	e8 10 1c 00 00       	call   4858 <__strcasecmp_l>
    2c48:	83 c4 10             	add    $0x10,%esp
    2c4b:	c9                   	leave  
    2c4c:	c3                   	ret    
    2c4d:	90                   	nop    
    2c4e:	90                   	nop    
    2c4f:	90                   	nop    

00002c50 <strlen>:
    2c50:	55                   	push   %ebp
    2c51:	89 e5                	mov    %esp,%ebp
    2c53:	57                   	push   %edi
    2c54:	83 ec 04             	sub    $0x4,%esp
    2c57:	8b 7d 08             	mov    0x8(%ebp),%edi
    2c5a:	b8 00 00 00 00       	mov    $0x0,%eax
    2c5f:	b9 ff ff ff ff       	mov    $0xffffffff,%ecx
    2c64:	f2 ae                	repnz scas %es:(%edi),%al
    2c66:	f7 d1                	not    %ecx
    2c68:	49                   	dec    %ecx
    2c69:	89 f8                	mov    %edi,%eax
    2c6b:	89 45 f8             	mov    %eax,0xfffffff8(%ebp)
    2c6e:	89 c8                	mov    %ecx,%eax
    2c70:	83 c4 04             	add    $0x4,%esp
    2c73:	5f                   	pop    %edi
    2c74:	c9                   	leave  
    2c75:	c3                   	ret    
    2c76:	90                   	nop    
    2c77:	90                   	nop    

00002c78 <strnlen>:
    2c78:	55                   	push   %ebp
    2c79:	89 e5                	mov    %esp,%ebp
    2c7b:	83 ec 04             	sub    $0x4,%esp
    2c7e:	8b 4d 08             	mov    0x8(%ebp),%ecx
    2c81:	8b 55 0c             	mov    0xc(%ebp),%edx
    2c84:	89 c8                	mov    %ecx,%eax
    2c86:	eb 06                	jmp    2c8e <strnlen+0x16>
    2c88:	80 38 00             	cmpb   $0x0,(%eax)
    2c8b:	74 07                	je     2c94 <strnlen+0x1c>
    2c8d:	40                   	inc    %eax
    2c8e:	4a                   	dec    %edx
    2c8f:	83 fa ff             	cmp    $0xffffffff,%edx
    2c92:	75 f4                	jne    2c88 <strnlen+0x10>
    2c94:	29 c8                	sub    %ecx,%eax
    2c96:	89 c1                	mov    %eax,%ecx
    2c98:	89 d0                	mov    %edx,%eax
    2c9a:	89 45 fc             	mov    %eax,0xfffffffc(%ebp)
    2c9d:	89 c8                	mov    %ecx,%eax
    2c9f:	c9                   	leave  
    2ca0:	c3                   	ret    
    2ca1:	90                   	nop    
    2ca2:	90                   	nop    
    2ca3:	90                   	nop    

00002ca4 <strerror>:
    2ca4:	55                   	push   %ebp
    2ca5:	89 e5                	mov    %esp,%ebp
    2ca7:	83 ec 08             	sub    $0x8,%esp
    2caa:	83 ec 04             	sub    $0x4,%esp
    2cad:	6a 32                	push   $0x32
    2caf:	68 40 a4 04 00       	push   $0x4a440
    2cb4:	ff 75 08             	pushl  0x8(%ebp)
    2cb7:	e8 0c 00 00 00       	call   2cc8 <_susv3_strerror_r>
    2cbc:	83 c4 10             	add    $0x10,%esp
    2cbf:	b8 40 a4 04 00       	mov    $0x4a440,%eax
    2cc4:	c9                   	leave  
    2cc5:	c3                   	ret    
    2cc6:	90                   	nop    
    2cc7:	90                   	nop    

00002cc8 <_susv3_strerror_r>:
    2cc8:	55                   	push   %ebp
    2cc9:	89 e5                	mov    %esp,%ebp
    2ccb:	83 ec 68             	sub    $0x68,%esp
    2cce:	c7 45 f0 16 00 00 00 	movl   $0x16,0xfffffff0(%ebp)
    2cd5:	8b 45 08             	mov    0x8(%ebp),%eax
    2cd8:	89 45 f4             	mov    %eax,0xfffffff4(%ebp)
    2cdb:	83 7d f4 7c          	cmpl   $0x7c,0xfffffff4(%ebp)
    2cdf:	77 32                	ja     2d13 <_susv3_strerror_r+0x4b>
    2ce1:	c7 45 a4 60 7a 00 00 	movl   $0x7a60,0xffffffa4(%ebp)
    2ce8:	83 7d f4 00          	cmpl   $0x0,0xfffffff4(%ebp)
    2cec:	75 02                	jne    2cf0 <_susv3_strerror_r+0x28>
    2cee:	eb 12                	jmp    2d02 <_susv3_strerror_r+0x3a>
    2cf0:	8b 45 a4             	mov    0xffffffa4(%ebp),%eax
    2cf3:	80 38 00             	cmpb   $0x0,(%eax)
    2cf6:	75 05                	jne    2cfd <_susv3_strerror_r+0x35>
    2cf8:	8d 45 f4             	lea    0xfffffff4(%ebp),%eax
    2cfb:	ff 08                	decl   (%eax)
    2cfd:	ff 45 a4             	incl   0xffffffa4(%ebp)
    2d00:	eb e6                	jmp    2ce8 <_susv3_strerror_r+0x20>
    2d02:	8b 45 a4             	mov    0xffffffa4(%ebp),%eax
    2d05:	80 38 00             	cmpb   $0x0,(%eax)
    2d08:	74 09                	je     2d13 <_susv3_strerror_r+0x4b>
    2d0a:	c7 45 f0 00 00 00 00 	movl   $0x0,0xfffffff0(%ebp)
    2d11:	eb 38                	jmp    2d4b <_susv3_strerror_r+0x83>
    2d13:	83 ec 0c             	sub    $0xc,%esp
    2d16:	6a 00                	push   $0x0
    2d18:	6a f6                	push   $0xfffffff6
    2d1a:	8b 45 08             	mov    0x8(%ebp),%eax
    2d1d:	99                   	cltd   
    2d1e:	52                   	push   %edx
    2d1f:	50                   	push   %eax
    2d20:	8d 45 a8             	lea    0xffffffa8(%ebp),%eax
    2d23:	83 c0 31             	add    $0x31,%eax
    2d26:	50                   	push   %eax
    2d27:	e8 98 2f 00 00       	call   5cc4 <_uintmaxtostr>
    2d2c:	83 c4 20             	add    $0x20,%esp
    2d2f:	89 45 a4             	mov    %eax,0xffffffa4(%ebp)
    2d32:	83 6d a4 0e          	subl   $0xe,0xffffffa4(%ebp)
    2d36:	83 ec 04             	sub    $0x4,%esp
    2d39:	6a 0e                	push   $0xe
    2d3b:	68 4c 7a 00 00       	push   $0x7a4c
    2d40:	ff 75 a4             	pushl  0xffffffa4(%ebp)
    2d43:	e8 24 3e 00 00       	call   6b6c <memcpy>
    2d48:	83 c4 10             	add    $0x10,%esp
    2d4b:	83 7d 0c 00          	cmpl   $0x0,0xc(%ebp)
    2d4f:	75 07                	jne    2d58 <_susv3_strerror_r+0x90>
    2d51:	c7 45 10 00 00 00 00 	movl   $0x0,0x10(%ebp)
    2d58:	83 ec 0c             	sub    $0xc,%esp
    2d5b:	ff 75 a4             	pushl  0xffffffa4(%ebp)
    2d5e:	e8 ed fe ff ff       	call   2c50 <strlen>
    2d63:	83 c4 10             	add    $0x10,%esp
    2d66:	40                   	inc    %eax
    2d67:	89 45 f4             	mov    %eax,0xfffffff4(%ebp)
    2d6a:	8b 45 f4             	mov    0xfffffff4(%ebp),%eax
    2d6d:	3b 45 10             	cmp    0x10(%ebp),%eax
    2d70:	76 0d                	jbe    2d7f <_susv3_strerror_r+0xb7>
    2d72:	8b 45 10             	mov    0x10(%ebp),%eax
    2d75:	89 45 f4             	mov    %eax,0xfffffff4(%ebp)
    2d78:	c7 45 f0 22 00 00 00 	movl   $0x22,0xfffffff0(%ebp)
    2d7f:	83 7d f4 00          	cmpl   $0x0,0xfffffff4(%ebp)
    2d83:	74 1e                	je     2da3 <_susv3_strerror_r+0xdb>
    2d85:	83 ec 04             	sub    $0x4,%esp
    2d88:	ff 75 f4             	pushl  0xfffffff4(%ebp)
    2d8b:	ff 75 a4             	pushl  0xffffffa4(%ebp)
    2d8e:	ff 75 0c             	pushl  0xc(%ebp)
    2d91:	e8 d6 3d 00 00       	call   6b6c <memcpy>
    2d96:	83 c4 10             	add    $0x10,%esp
    2d99:	8b 45 f4             	mov    0xfffffff4(%ebp),%eax
    2d9c:	03 45 0c             	add    0xc(%ebp),%eax
    2d9f:	48                   	dec    %eax
    2da0:	c6 00 00             	movb   $0x0,(%eax)
    2da3:	83 7d f0 00          	cmpl   $0x0,0xfffffff0(%ebp)
    2da7:	74 08                	je     2db1 <_susv3_strerror_r+0xe9>
    2da9:	8b 45 f0             	mov    0xfffffff0(%ebp),%eax
    2dac:	a3 24 84 04 00       	mov    %eax,0x48424
    2db1:	8b 45 f0             	mov    0xfffffff0(%ebp),%eax
    2db4:	c9                   	leave  
    2db5:	c3                   	ret    
    2db6:	90                   	nop    
    2db7:	90                   	nop    

00002db8 <_glibc_strerror_r>:
    2db8:	55                   	push   %ebp
    2db9:	89 e5                	mov    %esp,%ebp
    2dbb:	83 ec 08             	sub    $0x8,%esp
    2dbe:	83 ec 04             	sub    $0x4,%esp
    2dc1:	ff 75 10             	pushl  0x10(%ebp)
    2dc4:	ff 75 0c             	pushl  0xc(%ebp)
    2dc7:	ff 75 08             	pushl  0x8(%ebp)
    2dca:	e8 f9 fe ff ff       	call   2cc8 <_susv3_strerror_r>
    2dcf:	83 c4 10             	add    $0x10,%esp
    2dd2:	8b 45 0c             	mov    0xc(%ebp),%eax
    2dd5:	c9                   	leave  
    2dd6:	c3                   	ret    
    2dd7:	90                   	nop    

00002dd8 <isatty>:
    2dd8:	55                   	push   %ebp
    2dd9:	89 e5                	mov    %esp,%ebp
    2ddb:	83 ec 58             	sub    $0x58,%esp
    2dde:	83 7d 08 02          	cmpl   $0x2,0x8(%ebp)
    2de2:	7f 09                	jg     2ded <isatty+0x15>
    2de4:	c7 45 b4 01 00 00 00 	movl   $0x1,0xffffffb4(%ebp)
    2deb:	eb 07                	jmp    2df4 <isatty+0x1c>
    2ded:	c7 45 b4 00 00 00 00 	movl   $0x0,0xffffffb4(%ebp)
    2df4:	8b 45 b4             	mov    0xffffffb4(%ebp),%eax
    2df7:	c9                   	leave  
    2df8:	c3                   	ret    
    2df9:	90                   	nop    
    2dfa:	90                   	nop    
    2dfb:	90                   	nop    
    2dfc:	90                   	nop    
    2dfd:	90                   	nop    
    2dfe:	90                   	nop    
    2dff:	90                   	nop    

00002e00 <__libc_sigaction>:
    2e00:	55                   	push   %ebp
    2e01:	89 e5                	mov    %esp,%ebp
    2e03:	81 ec 48 01 00 00    	sub    $0x148,%esp
    2e09:	83 7d 0c 00          	cmpl   $0x0,0xc(%ebp)
    2e0d:	0f 84 81 00 00 00    	je     2e94 <__libc_sigaction+0x94>
    2e13:	8b 45 0c             	mov    0xc(%ebp),%eax
    2e16:	8b 00                	mov    (%eax),%eax
    2e18:	89 85 58 ff ff ff    	mov    %eax,0xffffff58(%ebp)
    2e1e:	83 ec 04             	sub    $0x4,%esp
    2e21:	68 80 00 00 00       	push   $0x80
    2e26:	8b 45 0c             	mov    0xc(%ebp),%eax
    2e29:	83 c0 04             	add    $0x4,%eax
    2e2c:	50                   	push   %eax
    2e2d:	8d 85 58 ff ff ff    	lea    0xffffff58(%ebp),%eax
    2e33:	83 c0 0c             	add    $0xc,%eax
    2e36:	50                   	push   %eax
    2e37:	e8 30 3d 00 00       	call   6b6c <memcpy>
    2e3c:	83 c4 10             	add    $0x10,%esp
    2e3f:	8b 45 0c             	mov    0xc(%ebp),%eax
    2e42:	8b 80 84 00 00 00    	mov    0x84(%eax),%eax
    2e48:	89 85 5c ff ff ff    	mov    %eax,0xffffff5c(%ebp)
    2e4e:	8b 45 0c             	mov    0xc(%ebp),%eax
    2e51:	8b 80 84 00 00 00    	mov    0x84(%eax),%eax
    2e57:	0d 00 00 00 04       	or     $0x4000000,%eax
    2e5c:	89 85 5c ff ff ff    	mov    %eax,0xffffff5c(%ebp)
    2e62:	8b 45 0c             	mov    0xc(%ebp),%eax
    2e65:	8b 80 84 00 00 00    	mov    0x84(%eax),%eax
    2e6b:	83 e0 04             	and    $0x4,%eax
    2e6e:	85 c0                	test   %eax,%eax
    2e70:	74 0c                	je     2e7e <__libc_sigaction+0x7e>
    2e72:	c7 85 c4 fe ff ff 50 	movl   $0x2f50,0xfffffec4(%ebp)
    2e79:	2f 00 00 
    2e7c:	eb 0a                	jmp    2e88 <__libc_sigaction+0x88>
    2e7e:	c7 85 c4 fe ff ff 58 	movl   $0x2f58,0xfffffec4(%ebp)
    2e85:	2f 00 00 
    2e88:	8b 85 c4 fe ff ff    	mov    0xfffffec4(%ebp),%eax
    2e8e:	89 85 60 ff ff ff    	mov    %eax,0xffffff60(%ebp)
    2e94:	6a 08                	push   $0x8
    2e96:	83 7d 10 00          	cmpl   $0x0,0x10(%ebp)
    2e9a:	74 0e                	je     2eaa <__libc_sigaction+0xaa>
    2e9c:	8d 85 c8 fe ff ff    	lea    0xfffffec8(%ebp),%eax
    2ea2:	89 85 c0 fe ff ff    	mov    %eax,0xfffffec0(%ebp)
    2ea8:	eb 0a                	jmp    2eb4 <__libc_sigaction+0xb4>
    2eaa:	c7 85 c0 fe ff ff 00 	movl   $0x0,0xfffffec0(%ebp)
    2eb1:	00 00 00 
    2eb4:	ff b5 c0 fe ff ff    	pushl  0xfffffec0(%ebp)
    2eba:	83 7d 0c 00          	cmpl   $0x0,0xc(%ebp)
    2ebe:	74 0e                	je     2ece <__libc_sigaction+0xce>
    2ec0:	8d 85 58 ff ff ff    	lea    0xffffff58(%ebp),%eax
    2ec6:	89 85 bc fe ff ff    	mov    %eax,0xfffffebc(%ebp)
    2ecc:	eb 0a                	jmp    2ed8 <__libc_sigaction+0xd8>
    2ece:	c7 85 bc fe ff ff 00 	movl   $0x0,0xfffffebc(%ebp)
    2ed5:	00 00 00 
    2ed8:	ff b5 bc fe ff ff    	pushl  0xfffffebc(%ebp)
    2ede:	ff 75 08             	pushl  0x8(%ebp)
    2ee1:	e8 ee 12 00 00       	call   41d4 <__syscall_rt_sigaction>
    2ee6:	83 c4 10             	add    $0x10,%esp
    2ee9:	89 45 f4             	mov    %eax,0xfffffff4(%ebp)
    2eec:	83 7d 10 00          	cmpl   $0x0,0x10(%ebp)
    2ef0:	74 50                	je     2f42 <__libc_sigaction+0x142>
    2ef2:	83 7d f4 00          	cmpl   $0x0,0xfffffff4(%ebp)
    2ef6:	78 4a                	js     2f42 <__libc_sigaction+0x142>
    2ef8:	8b 55 10             	mov    0x10(%ebp),%edx
    2efb:	8b 85 c8 fe ff ff    	mov    0xfffffec8(%ebp),%eax
    2f01:	89 02                	mov    %eax,(%edx)
    2f03:	83 ec 04             	sub    $0x4,%esp
    2f06:	68 80 00 00 00       	push   $0x80
    2f0b:	8d 85 c8 fe ff ff    	lea    0xfffffec8(%ebp),%eax
    2f11:	83 c0 0c             	add    $0xc,%eax
    2f14:	50                   	push   %eax
    2f15:	8b 45 10             	mov    0x10(%ebp),%eax
    2f18:	83 c0 04             	add    $0x4,%eax
    2f1b:	50                   	push   %eax
    2f1c:	e8 4b 3c 00 00       	call   6b6c <memcpy>
    2f21:	83 c4 10             	add    $0x10,%esp
    2f24:	8b 55 10             	mov    0x10(%ebp),%edx
    2f27:	8b 85 cc fe ff ff    	mov    0xfffffecc(%ebp),%eax
    2f2d:	89 82 84 00 00 00    	mov    %eax,0x84(%edx)
    2f33:	8b 55 10             	mov    0x10(%ebp),%edx
    2f36:	8b 85 d0 fe ff ff    	mov    0xfffffed0(%ebp),%eax
    2f3c:	89 82 88 00 00 00    	mov    %eax,0x88(%edx)
    2f42:	8b 45 f4             	mov    0xfffffff4(%ebp),%eax
    2f45:	c9                   	leave  
    2f46:	c3                   	ret    
    2f47:	89 f6                	mov    %esi,%esi
    2f49:	8d bc 27 00 00 00 00 	lea    0x0(%edi,1),%edi
    2f50:	b8 ad 00 00 00       	mov    $0xad,%eax
    2f55:	cd 80                	int    $0x80
    2f57:	90                   	nop    
    2f58:	58                   	pop    %eax
    2f59:	b8 77 00 00 00       	mov    $0x77,%eax
    2f5e:	cd 80                	int    $0x80

00002f60 <atoi>:
    2f60:	55                   	push   %ebp
    2f61:	89 e5                	mov    %esp,%ebp
    2f63:	83 ec 08             	sub    $0x8,%esp
    2f66:	83 ec 04             	sub    $0x4,%esp
    2f69:	6a 0a                	push   $0xa
    2f6b:	6a 00                	push   $0x0
    2f6d:	ff 75 08             	pushl  0x8(%ebp)
    2f70:	e8 07 00 00 00       	call   2f7c <strtol>
    2f75:	83 c4 10             	add    $0x10,%esp
    2f78:	c9                   	leave  
    2f79:	c3                   	ret    
    2f7a:	90                   	nop    
    2f7b:	90                   	nop    

00002f7c <strtol>:
    2f7c:	55                   	push   %ebp
    2f7d:	89 e5                	mov    %esp,%ebp
    2f7f:	83 ec 08             	sub    $0x8,%esp
    2f82:	6a 01                	push   $0x1
    2f84:	ff 75 10             	pushl  0x10(%ebp)
    2f87:	ff 75 0c             	pushl  0xc(%ebp)
    2f8a:	ff 75 08             	pushl  0x8(%ebp)
    2f8d:	e8 06 00 00 00       	call   2f98 <_stdlib_strto_l>
    2f92:	83 c4 10             	add    $0x10,%esp
    2f95:	c9                   	leave  
    2f96:	c3                   	ret    
    2f97:	90                   	nop    

00002f98 <_stdlib_strto_l>:
    2f98:	55                   	push   %ebp
    2f99:	89 e5                	mov    %esp,%ebp
    2f9b:	83 ec 08             	sub    $0x8,%esp
    2f9e:	8b 45 08             	mov    0x8(%ebp),%eax
    2fa1:	83 ec 0c             	sub    $0xc,%esp
    2fa4:	ff 35 e8 83 04 00    	pushl  0x483e8
    2faa:	ff 75 14             	pushl  0x14(%ebp)
    2fad:	ff 75 10             	pushl  0x10(%ebp)
    2fb0:	ff 75 0c             	pushl  0xc(%ebp)
    2fb3:	50                   	push   %eax
    2fb4:	e8 07 19 00 00       	call   48c0 <_stdlib_strto_l_l>
    2fb9:	83 c4 20             	add    $0x20,%esp
    2fbc:	c9                   	leave  
    2fbd:	c3                   	ret    
    2fbe:	90                   	nop    
    2fbf:	90                   	nop    

00002fc0 <exit>:
    2fc0:	55                   	push   %ebp
    2fc1:	89 e5                	mov    %esp,%ebp
    2fc3:	83 ec 08             	sub    $0x8,%esp
    2fc6:	83 3d 74 a4 04 00 00 	cmpl   $0x0,0x4a474
    2fcd:	74 10                	je     2fdf <exit+0x1f>
    2fcf:	83 ec 0c             	sub    $0xc,%esp
    2fd2:	ff 75 08             	pushl  0x8(%ebp)
    2fd5:	a1 74 a4 04 00       	mov    0x4a474,%eax
    2fda:	ff d0                	call   *%eax
    2fdc:	83 c4 10             	add    $0x10,%esp
    2fdf:	83 3d 20 84 04 00 00 	cmpl   $0x0,0x48420
    2fe6:	74 07                	je     2fef <exit+0x2f>
    2fe8:	a1 20 84 04 00       	mov    0x48420,%eax
    2fed:	ff d0                	call   *%eax
    2fef:	b8 e4 17 00 00       	mov    $0x17e4,%eax
    2ff4:	85 c0                	test   %eax,%eax
    2ff6:	74 05                	je     2ffd <exit+0x3d>
    2ff8:	e8 e7 e7 ff ff       	call   17e4 <_stdio_term>
    2ffd:	83 ec 0c             	sub    $0xc,%esp
    3000:	ff 75 08             	pushl  0x8(%ebp)
    3003:	e8 cc 0c 00 00       	call   3cd4 <_exit>

00003008 <__add_to_environ>:
    3008:	55                   	push   %ebp
    3009:	89 e5                	mov    %esp,%ebp
    300b:	56                   	push   %esi
    300c:	53                   	push   %ebx
    300d:	83 ec 20             	sub    $0x20,%esp
    3010:	83 ec 0c             	sub    $0xc,%esp
    3013:	ff 75 08             	pushl  0x8(%ebp)
    3016:	e8 35 fc ff ff       	call   2c50 <strlen>
    301b:	83 c4 10             	add    $0x10,%esp
    301e:	89 45 f4             	mov    %eax,0xfffffff4(%ebp)
    3021:	83 7d 0c 00          	cmpl   $0x0,0xc(%ebp)
    3025:	74 16                	je     303d <__add_to_environ+0x35>
    3027:	83 ec 0c             	sub    $0xc,%esp
    302a:	ff 75 0c             	pushl  0xc(%ebp)
    302d:	e8 1e fc ff ff       	call   2c50 <strlen>
    3032:	83 c4 10             	add    $0x10,%esp
    3035:	89 45 dc             	mov    %eax,0xffffffdc(%ebp)
    3038:	ff 45 dc             	incl   0xffffffdc(%ebp)
    303b:	eb 07                	jmp    3044 <__add_to_environ+0x3c>
    303d:	c7 45 dc 00 00 00 00 	movl   $0x0,0xffffffdc(%ebp)
    3044:	8b 45 dc             	mov    0xffffffdc(%ebp),%eax
    3047:	89 45 f0             	mov    %eax,0xfffffff0(%ebp)
    304a:	8b 15 14 84 04 00    	mov    0x48414,%edx
    3050:	89 55 e4             	mov    %edx,0xffffffe4(%ebp)
    3053:	c7 45 e0 00 00 00 00 	movl   $0x0,0xffffffe0(%ebp)
    305a:	83 7d e4 00          	cmpl   $0x0,0xffffffe4(%ebp)
    305e:	74 3c                	je     309c <__add_to_environ+0x94>
    3060:	8b 45 e4             	mov    0xffffffe4(%ebp),%eax
    3063:	83 38 00             	cmpl   $0x0,(%eax)
    3066:	75 02                	jne    306a <__add_to_environ+0x62>
    3068:	eb 32                	jmp    309c <__add_to_environ+0x94>
    306a:	83 ec 04             	sub    $0x4,%esp
    306d:	ff 75 f4             	pushl  0xfffffff4(%ebp)
    3070:	ff 75 08             	pushl  0x8(%ebp)
    3073:	8b 55 e4             	mov    0xffffffe4(%ebp),%edx
    3076:	ff 32                	pushl  (%edx)
    3078:	e8 5f 3b 00 00       	call   6bdc <strncmp>
    307d:	83 c4 10             	add    $0x10,%esp
    3080:	85 c0                	test   %eax,%eax
    3082:	75 0f                	jne    3093 <__add_to_environ+0x8b>
    3084:	8b 45 f4             	mov    0xfffffff4(%ebp),%eax
    3087:	8b 55 e4             	mov    0xffffffe4(%ebp),%edx
    308a:	03 02                	add    (%edx),%eax
    308c:	80 38 3d             	cmpb   $0x3d,(%eax)
    308f:	75 02                	jne    3093 <__add_to_environ+0x8b>
    3091:	eb 09                	jmp    309c <__add_to_environ+0x94>
    3093:	ff 45 e0             	incl   0xffffffe0(%ebp)
    3096:	83 45 e4 04          	addl   $0x4,0xffffffe4(%ebp)
    309a:	eb c4                	jmp    3060 <__add_to_environ+0x58>
    309c:	83 7d e4 00          	cmpl   $0x0,0xffffffe4(%ebp)
    30a0:	74 0c                	je     30ae <__add_to_environ+0xa6>
    30a2:	8b 45 e4             	mov    0xffffffe4(%ebp),%eax
    30a5:	83 38 00             	cmpl   $0x0,(%eax)
    30a8:	0f 85 40 01 00 00    	jne    31ee <__add_to_environ+0x1e6>
    30ae:	83 ec 08             	sub    $0x8,%esp
    30b1:	8b 45 e0             	mov    0xffffffe0(%ebp),%eax
    30b4:	c1 e0 02             	shl    $0x2,%eax
    30b7:	83 c0 08             	add    $0x8,%eax
    30ba:	50                   	push   %eax
    30bb:	ff 35 78 a4 04 00    	pushl  0x4a478
    30c1:	e8 b2 05 00 00       	call   3678 <realloc>
    30c6:	83 c4 10             	add    $0x10,%esp
    30c9:	89 45 ec             	mov    %eax,0xffffffec(%ebp)
    30cc:	83 7d ec 00          	cmpl   $0x0,0xffffffec(%ebp)
    30d0:	75 0c                	jne    30de <__add_to_environ+0xd6>
    30d2:	c7 45 e8 ff ff ff ff 	movl   $0xffffffff,0xffffffe8(%ebp)
    30d9:	e9 8e 01 00 00       	jmp    326c <__add_to_environ+0x264>
    30de:	83 7d 10 00          	cmpl   $0x0,0x10(%ebp)
    30e2:	74 18                	je     30fc <__add_to_environ+0xf4>
    30e4:	8b 45 e0             	mov    0xffffffe0(%ebp),%eax
    30e7:	8d 0c 85 00 00 00 00 	lea    0x0(,%eax,4),%ecx
    30ee:	8b 55 ec             	mov    0xffffffec(%ebp),%edx
    30f1:	8b 45 10             	mov    0x10(%ebp),%eax
    30f4:	89 04 0a             	mov    %eax,(%edx,%ecx,1)
    30f7:	e9 a9 00 00 00       	jmp    31a5 <__add_to_environ+0x19d>
    30fc:	8b 45 e0             	mov    0xffffffe0(%ebp),%eax
    30ff:	8d 1c 85 00 00 00 00 	lea    0x0(,%eax,4),%ebx
    3106:	8b 75 ec             	mov    0xffffffec(%ebp),%esi
    3109:	83 ec 0c             	sub    $0xc,%esp
    310c:	8b 45 f0             	mov    0xfffffff0(%ebp),%eax
    310f:	03 45 f4             	add    0xfffffff4(%ebp),%eax
    3112:	40                   	inc    %eax
    3113:	50                   	push   %eax
    3114:	e8 e7 03 00 00       	call   3500 <malloc>
    3119:	83 c4 10             	add    $0x10,%esp
    311c:	89 04 1e             	mov    %eax,(%esi,%ebx,1)
    311f:	8b 45 e0             	mov    0xffffffe0(%ebp),%eax
    3122:	8d 14 85 00 00 00 00 	lea    0x0(,%eax,4),%edx
    3129:	8b 45 ec             	mov    0xffffffec(%ebp),%eax
    312c:	83 3c 10 00          	cmpl   $0x0,(%eax,%edx,1)
    3130:	75 16                	jne    3148 <__add_to_environ+0x140>
    3132:	c7 05 24 84 04 00 0c 	movl   $0xc,0x48424
    3139:	00 00 00 
    313c:	c7 45 e8 ff ff ff ff 	movl   $0xffffffff,0xffffffe8(%ebp)
    3143:	e9 24 01 00 00       	jmp    326c <__add_to_environ+0x264>
    3148:	83 ec 04             	sub    $0x4,%esp
    314b:	ff 75 f4             	pushl  0xfffffff4(%ebp)
    314e:	ff 75 08             	pushl  0x8(%ebp)
    3151:	8b 45 e0             	mov    0xffffffe0(%ebp),%eax
    3154:	8d 14 85 00 00 00 00 	lea    0x0(,%eax,4),%edx
    315b:	8b 45 ec             	mov    0xffffffec(%ebp),%eax
    315e:	ff 34 10             	pushl  (%eax,%edx,1)
    3161:	e8 06 3a 00 00       	call   6b6c <memcpy>
    3166:	83 c4 10             	add    $0x10,%esp
    3169:	8b 45 e0             	mov    0xffffffe0(%ebp),%eax
    316c:	8d 0c 85 00 00 00 00 	lea    0x0(,%eax,4),%ecx
    3173:	8b 55 ec             	mov    0xffffffec(%ebp),%edx
    3176:	8b 45 f4             	mov    0xfffffff4(%ebp),%eax
    3179:	03 04 0a             	add    (%edx,%ecx,1),%eax
    317c:	c6 00 3d             	movb   $0x3d,(%eax)
    317f:	83 ec 04             	sub    $0x4,%esp
    3182:	ff 75 f0             	pushl  0xfffffff0(%ebp)
    3185:	ff 75 0c             	pushl  0xc(%ebp)
    3188:	8b 45 e0             	mov    0xffffffe0(%ebp),%eax
    318b:	8d 0c 85 00 00 00 00 	lea    0x0(,%eax,4),%ecx
    3192:	8b 55 ec             	mov    0xffffffec(%ebp),%edx
    3195:	8b 45 f4             	mov    0xfffffff4(%ebp),%eax
    3198:	03 04 0a             	add    (%edx,%ecx,1),%eax
    319b:	40                   	inc    %eax
    319c:	50                   	push   %eax
    319d:	e8 ca 39 00 00       	call   6b6c <memcpy>
    31a2:	83 c4 10             	add    $0x10,%esp
    31a5:	a1 14 84 04 00       	mov    0x48414,%eax
    31aa:	3b 05 78 a4 04 00    	cmp    0x4a478,%eax
    31b0:	74 1b                	je     31cd <__add_to_environ+0x1c5>
    31b2:	83 ec 04             	sub    $0x4,%esp
    31b5:	8b 45 e0             	mov    0xffffffe0(%ebp),%eax
    31b8:	c1 e0 02             	shl    $0x2,%eax
    31bb:	50                   	push   %eax
    31bc:	ff 35 14 84 04 00    	pushl  0x48414
    31c2:	ff 75 ec             	pushl  0xffffffec(%ebp)
    31c5:	e8 a2 39 00 00       	call   6b6c <memcpy>
    31ca:	83 c4 10             	add    $0x10,%esp
    31cd:	8b 45 e0             	mov    0xffffffe0(%ebp),%eax
    31d0:	c1 e0 02             	shl    $0x2,%eax
    31d3:	03 45 ec             	add    0xffffffec(%ebp),%eax
    31d6:	83 c0 04             	add    $0x4,%eax
    31d9:	c7 00 00 00 00 00    	movl   $0x0,(%eax)
    31df:	8b 45 ec             	mov    0xffffffec(%ebp),%eax
    31e2:	a3 14 84 04 00       	mov    %eax,0x48414
    31e7:	a3 78 a4 04 00       	mov    %eax,0x4a478
    31ec:	eb 77                	jmp    3265 <__add_to_environ+0x25d>
    31ee:	83 7d 14 00          	cmpl   $0x0,0x14(%ebp)
    31f2:	74 71                	je     3265 <__add_to_environ+0x25d>
    31f4:	83 7d 10 00          	cmpl   $0x0,0x10(%ebp)
    31f8:	74 08                	je     3202 <__add_to_environ+0x1fa>
    31fa:	8b 45 10             	mov    0x10(%ebp),%eax
    31fd:	89 45 ec             	mov    %eax,0xffffffec(%ebp)
    3200:	eb 5b                	jmp    325d <__add_to_environ+0x255>
    3202:	83 ec 0c             	sub    $0xc,%esp
    3205:	8b 45 f0             	mov    0xfffffff0(%ebp),%eax
    3208:	03 45 f4             	add    0xfffffff4(%ebp),%eax
    320b:	40                   	inc    %eax
    320c:	50                   	push   %eax
    320d:	e8 ee 02 00 00       	call   3500 <malloc>
    3212:	83 c4 10             	add    $0x10,%esp
    3215:	89 45 ec             	mov    %eax,0xffffffec(%ebp)
    3218:	83 7d ec 00          	cmpl   $0x0,0xffffffec(%ebp)
    321c:	75 09                	jne    3227 <__add_to_environ+0x21f>
    321e:	c7 45 e8 ff ff ff ff 	movl   $0xffffffff,0xffffffe8(%ebp)
    3225:	eb 45                	jmp    326c <__add_to_environ+0x264>
    3227:	83 ec 04             	sub    $0x4,%esp
    322a:	ff 75 f4             	pushl  0xfffffff4(%ebp)
    322d:	ff 75 08             	pushl  0x8(%ebp)
    3230:	ff 75 ec             	pushl  0xffffffec(%ebp)
    3233:	e8 34 39 00 00       	call   6b6c <memcpy>
    3238:	83 c4 10             	add    $0x10,%esp
    323b:	8b 45 f4             	mov    0xfffffff4(%ebp),%eax
    323e:	03 45 ec             	add    0xffffffec(%ebp),%eax
    3241:	c6 00 3d             	movb   $0x3d,(%eax)
    3244:	83 ec 04             	sub    $0x4,%esp
    3247:	ff 75 f0             	pushl  0xfffffff0(%ebp)
    324a:	ff 75 0c             	pushl  0xc(%ebp)
    324d:	8b 45 f4             	mov    0xfffffff4(%ebp),%eax
    3250:	03 45 ec             	add    0xffffffec(%ebp),%eax
    3253:	40                   	inc    %eax
    3254:	50                   	push   %eax
    3255:	e8 12 39 00 00       	call   6b6c <memcpy>
    325a:	83 c4 10             	add    $0x10,%esp
    325d:	8b 45 ec             	mov    0xffffffec(%ebp),%eax
    3260:	8b 55 e4             	mov    0xffffffe4(%ebp),%edx
    3263:	89 02                	mov    %eax,(%edx)
    3265:	c7 45 e8 00 00 00 00 	movl   $0x0,0xffffffe8(%ebp)
    326c:	8b 45 e8             	mov    0xffffffe8(%ebp),%eax
    326f:	8d 65 f8             	lea    0xfffffff8(%ebp),%esp
    3272:	5b                   	pop    %ebx
    3273:	5e                   	pop    %esi
    3274:	c9                   	leave  
    3275:	c3                   	ret    

00003276 <setenv>:
    3276:	55                   	push   %ebp
    3277:	89 e5                	mov    %esp,%ebp
    3279:	83 ec 08             	sub    $0x8,%esp
    327c:	ff 75 10             	pushl  0x10(%ebp)
    327f:	6a 00                	push   $0x0
    3281:	ff 75 0c             	pushl  0xc(%ebp)
    3284:	ff 75 08             	pushl  0x8(%ebp)
    3287:	e8 7c fd ff ff       	call   3008 <__add_to_environ>
    328c:	83 c4 10             	add    $0x10,%esp
    328f:	c9                   	leave  
    3290:	c3                   	ret    

00003291 <unsetenv>:
    3291:	55                   	push   %ebp
    3292:	89 e5                	mov    %esp,%ebp
    3294:	83 ec 18             	sub    $0x18,%esp
    3297:	83 7d 08 00          	cmpl   $0x0,0x8(%ebp)
    329b:	74 1e                	je     32bb <unsetenv+0x2a>
    329d:	8b 45 08             	mov    0x8(%ebp),%eax
    32a0:	80 38 00             	cmpb   $0x0,(%eax)
    32a3:	74 16                	je     32bb <unsetenv+0x2a>
    32a5:	83 ec 08             	sub    $0x8,%esp
    32a8:	6a 3d                	push   $0x3d
    32aa:	ff 75 08             	pushl  0x8(%ebp)
    32ad:	e8 fa 38 00 00       	call   6bac <strchr>
    32b2:	83 c4 10             	add    $0x10,%esp
    32b5:	85 c0                	test   %eax,%eax
    32b7:	75 02                	jne    32bb <unsetenv+0x2a>
    32b9:	eb 16                	jmp    32d1 <unsetenv+0x40>
    32bb:	c7 05 24 84 04 00 16 	movl   $0x16,0x48424
    32c2:	00 00 00 
    32c5:	c7 45 f0 ff ff ff ff 	movl   $0xffffffff,0xfffffff0(%ebp)
    32cc:	e9 80 00 00 00       	jmp    3351 <unsetenv+0xc0>
    32d1:	83 ec 0c             	sub    $0xc,%esp
    32d4:	ff 75 08             	pushl  0x8(%ebp)
    32d7:	e8 74 f9 ff ff       	call   2c50 <strlen>
    32dc:	83 c4 10             	add    $0x10,%esp
    32df:	89 45 fc             	mov    %eax,0xfffffffc(%ebp)
    32e2:	a1 14 84 04 00       	mov    0x48414,%eax
    32e7:	89 45 f8             	mov    %eax,0xfffffff8(%ebp)
    32ea:	8b 45 f8             	mov    0xfffffff8(%ebp),%eax
    32ed:	83 38 00             	cmpl   $0x0,(%eax)
    32f0:	75 02                	jne    32f4 <unsetenv+0x63>
    32f2:	eb 56                	jmp    334a <unsetenv+0xb9>
    32f4:	8b 45 f8             	mov    0xfffffff8(%ebp),%eax
    32f7:	83 ec 04             	sub    $0x4,%esp
    32fa:	ff 75 fc             	pushl  0xfffffffc(%ebp)
    32fd:	ff 75 08             	pushl  0x8(%ebp)
    3300:	ff 30                	pushl  (%eax)
    3302:	e8 d5 38 00 00       	call   6bdc <strncmp>
    3307:	83 c4 10             	add    $0x10,%esp
    330a:	85 c0                	test   %eax,%eax
    330c:	75 34                	jne    3342 <unsetenv+0xb1>
    330e:	8b 45 f8             	mov    0xfffffff8(%ebp),%eax
    3311:	8b 55 fc             	mov    0xfffffffc(%ebp),%edx
    3314:	8b 00                	mov    (%eax),%eax
    3316:	01 d0                	add    %edx,%eax
    3318:	80 38 3d             	cmpb   $0x3d,(%eax)
    331b:	75 25                	jne    3342 <unsetenv+0xb1>
    331d:	8b 45 f8             	mov    0xfffffff8(%ebp),%eax
    3320:	89 45 f4             	mov    %eax,0xfffffff4(%ebp)
    3323:	8b 55 f4             	mov    0xfffffff4(%ebp),%edx
    3326:	8b 45 f4             	mov    0xfffffff4(%ebp),%eax
    3329:	83 c0 04             	add    $0x4,%eax
    332c:	8b 00                	mov    (%eax),%eax
    332e:	89 02                	mov    %eax,(%edx)
    3330:	8b 45 f4             	mov    0xfffffff4(%ebp),%eax
    3333:	89 c2                	mov    %eax,%edx
    3335:	8d 45 f4             	lea    0xfffffff4(%ebp),%eax
    3338:	83 00 04             	addl   $0x4,(%eax)
    333b:	83 3a 00             	cmpl   $0x0,(%edx)
    333e:	75 e3                	jne    3323 <unsetenv+0x92>
    3340:	eb a8                	jmp    32ea <unsetenv+0x59>
    3342:	8d 45 f8             	lea    0xfffffff8(%ebp),%eax
    3345:	83 00 04             	addl   $0x4,(%eax)
    3348:	eb a0                	jmp    32ea <unsetenv+0x59>
    334a:	c7 45 f0 00 00 00 00 	movl   $0x0,0xfffffff0(%ebp)
    3351:	8b 45 f0             	mov    0xfffffff0(%ebp),%eax
    3354:	c9                   	leave  
    3355:	c3                   	ret    

00003356 <clearenv>:
    3356:	55                   	push   %ebp
    3357:	89 e5                	mov    %esp,%ebp
    3359:	83 ec 08             	sub    $0x8,%esp
    335c:	a1 14 84 04 00       	mov    0x48414,%eax
    3361:	3b 05 78 a4 04 00    	cmp    0x4a478,%eax
    3367:	75 24                	jne    338d <clearenv+0x37>
    3369:	83 3d 14 84 04 00 00 	cmpl   $0x0,0x48414
    3370:	74 1b                	je     338d <clearenv+0x37>
    3372:	83 ec 0c             	sub    $0xc,%esp
    3375:	ff 35 14 84 04 00    	pushl  0x48414
    337b:	e8 99 02 00 00       	call   3619 <free>
    3380:	83 c4 10             	add    $0x10,%esp
    3383:	c7 05 78 a4 04 00 00 	movl   $0x0,0x4a478
    338a:	00 00 00 
    338d:	c7 05 14 84 04 00 00 	movl   $0x0,0x48414
    3394:	00 00 00 
    3397:	b8 00 00 00 00       	mov    $0x0,%eax
    339c:	c9                   	leave  
    339d:	c3                   	ret    

0000339e <putenv>:
    339e:	55                   	push   %ebp
    339f:	89 e5                	mov    %esp,%ebp
    33a1:	83 ec 18             	sub    $0x18,%esp
    33a4:	83 ec 08             	sub    $0x8,%esp
    33a7:	6a 3d                	push   $0x3d
    33a9:	ff 75 08             	pushl  0x8(%ebp)
    33ac:	e8 fb 37 00 00       	call   6bac <strchr>
    33b1:	83 c4 10             	add    $0x10,%esp
    33b4:	89 45 f8             	mov    %eax,0xfffffff8(%ebp)
    33b7:	83 7d f8 00          	cmpl   $0x0,0xfffffff8(%ebp)
    33bb:	74 45                	je     3402 <putenv+0x64>
    33bd:	83 ec 08             	sub    $0x8,%esp
    33c0:	8b 55 08             	mov    0x8(%ebp),%edx
    33c3:	8b 45 f8             	mov    0xfffffff8(%ebp),%eax
    33c6:	29 d0                	sub    %edx,%eax
    33c8:	50                   	push   %eax
    33c9:	ff 75 08             	pushl  0x8(%ebp)
    33cc:	e8 4b 38 00 00       	call   6c1c <strndup>
    33d1:	83 c4 10             	add    $0x10,%esp
    33d4:	89 45 f4             	mov    %eax,0xfffffff4(%ebp)
    33d7:	6a 01                	push   $0x1
    33d9:	ff 75 08             	pushl  0x8(%ebp)
    33dc:	6a 00                	push   $0x0
    33de:	ff 75 f4             	pushl  0xfffffff4(%ebp)
    33e1:	e8 22 fc ff ff       	call   3008 <__add_to_environ>
    33e6:	83 c4 10             	add    $0x10,%esp
    33e9:	89 45 fc             	mov    %eax,0xfffffffc(%ebp)
    33ec:	83 ec 0c             	sub    $0xc,%esp
    33ef:	ff 75 f4             	pushl  0xfffffff4(%ebp)
    33f2:	e8 22 02 00 00       	call   3619 <free>
    33f7:	83 c4 10             	add    $0x10,%esp
    33fa:	8b 45 fc             	mov    0xfffffffc(%ebp),%eax
    33fd:	89 45 f0             	mov    %eax,0xfffffff0(%ebp)
    3400:	eb 15                	jmp    3417 <putenv+0x79>
    3402:	83 ec 0c             	sub    $0xc,%esp
    3405:	ff 75 08             	pushl  0x8(%ebp)
    3408:	e8 84 fe ff ff       	call   3291 <unsetenv>
    340d:	83 c4 10             	add    $0x10,%esp
    3410:	c7 45 f0 00 00 00 00 	movl   $0x0,0xfffffff0(%ebp)
    3417:	8b 45 f0             	mov    0xfffffff0(%ebp),%eax
    341a:	c9                   	leave  
    341b:	c3                   	ret    
    341c:	55                   	push   %ebp
    341d:	89 e5                	mov    %esp,%ebp
    341f:	83 ec 18             	sub    $0x18,%esp
    3422:	83 45 08 08          	addl   $0x8,0x8(%ebp)
    3426:	83 ec 08             	sub    $0x8,%esp
    3429:	8d 45 08             	lea    0x8(%ebp),%eax
    342c:	50                   	push   %eax
    342d:	ff 75 0c             	pushl  0xc(%ebp)
    3430:	e8 7f 03 00 00       	call   37b4 <__heap_alloc>
    3435:	83 c4 10             	add    $0x10,%esp
    3438:	89 45 fc             	mov    %eax,0xfffffffc(%ebp)
    343b:	83 7d fc 00          	cmpl   $0x0,0xfffffffc(%ebp)
    343f:	0f 85 a2 00 00 00    	jne    34e7 <putenv+0x149>
    3445:	81 7d 08 ff 0f 00 00 	cmpl   $0xfff,0x8(%ebp)
    344c:	76 14                	jbe    3462 <putenv+0xc4>
    344e:	8b 45 08             	mov    0x8(%ebp),%eax
    3451:	05 ff 0f 00 00       	add    $0xfff,%eax
    3456:	89 45 ec             	mov    %eax,0xffffffec(%ebp)
    3459:	81 65 ec 00 f0 ff ff 	andl   $0xfffff000,0xffffffec(%ebp)
    3460:	eb 07                	jmp    3469 <putenv+0xcb>
    3462:	c7 45 ec 00 10 00 00 	movl   $0x1000,0xffffffec(%ebp)
    3469:	8b 45 ec             	mov    0xffffffec(%ebp),%eax
    346c:	89 45 f4             	mov    %eax,0xfffffff4(%ebp)
    346f:	83 ec 0c             	sub    $0xc,%esp
    3472:	ff 75 f4             	pushl  0xfffffff4(%ebp)
    3475:	e8 92 08 00 00       	call   3d0c <sbrk>
    347a:	83 c4 10             	add    $0x10,%esp
    347d:	89 45 f8             	mov    %eax,0xfffffff8(%ebp)
    3480:	83 7d f8 ff          	cmpl   $0xffffffff,0xfffffff8(%ebp)
    3484:	74 32                	je     34b8 <putenv+0x11a>
    3486:	8b 55 f8             	mov    0xfffffff8(%ebp),%edx
    3489:	83 c2 07             	add    $0x7,%edx
    348c:	b8 f8 ff ff ff       	mov    $0xfffffff8,%eax
    3491:	21 d0                	and    %edx,%eax
    3493:	89 45 f0             	mov    %eax,0xfffffff0(%ebp)
    3496:	8b 45 f8             	mov    0xfffffff8(%ebp),%eax
    3499:	3b 45 f0             	cmp    0xfffffff0(%ebp),%eax
    349c:	74 1a                	je     34b8 <putenv+0x11a>
    349e:	83 ec 0c             	sub    $0xc,%esp
    34a1:	8b 55 f8             	mov    0xfffffff8(%ebp),%edx
    34a4:	8b 45 f0             	mov    0xfffffff0(%ebp),%eax
    34a7:	29 d0                	sub    %edx,%eax
    34a9:	50                   	push   %eax
    34aa:	e8 5d 08 00 00       	call   3d0c <sbrk>
    34af:	83 c4 10             	add    $0x10,%esp
    34b2:	8b 45 f0             	mov    0xfffffff0(%ebp),%eax
    34b5:	89 45 f8             	mov    %eax,0xfffffff8(%ebp)
    34b8:	83 7d f8 ff          	cmpl   $0xffffffff,0xfffffff8(%ebp)
    34bc:	74 29                	je     34e7 <putenv+0x149>
    34be:	83 ec 04             	sub    $0x4,%esp
    34c1:	ff 75 f4             	pushl  0xfffffff4(%ebp)
    34c4:	ff 75 f8             	pushl  0xfffffff8(%ebp)
    34c7:	ff 75 0c             	pushl  0xc(%ebp)
    34ca:	e8 f5 04 00 00       	call   39c4 <__heap_free>
    34cf:	83 c4 10             	add    $0x10,%esp
    34d2:	83 ec 08             	sub    $0x8,%esp
    34d5:	8d 45 08             	lea    0x8(%ebp),%eax
    34d8:	50                   	push   %eax
    34d9:	ff 75 0c             	pushl  0xc(%ebp)
    34dc:	e8 d3 02 00 00       	call   37b4 <__heap_alloc>
    34e1:	83 c4 10             	add    $0x10,%esp
    34e4:	89 45 fc             	mov    %eax,0xfffffffc(%ebp)
    34e7:	83 7d fc 00          	cmpl   $0x0,0xfffffffc(%ebp)
    34eb:	74 0e                	je     34fb <putenv+0x15d>
    34ed:	8b 55 fc             	mov    0xfffffffc(%ebp),%edx
    34f0:	8b 45 08             	mov    0x8(%ebp),%eax
    34f3:	89 02                	mov    %eax,(%edx)
    34f5:	8d 45 fc             	lea    0xfffffffc(%ebp),%eax
    34f8:	83 00 08             	addl   $0x8,(%eax)
    34fb:	8b 45 fc             	mov    0xfffffffc(%ebp),%eax
    34fe:	c9                   	leave  
    34ff:	c3                   	ret    

00003500 <malloc>:
    3500:	55                   	push   %ebp
    3501:	89 e5                	mov    %esp,%ebp
    3503:	83 ec 08             	sub    $0x8,%esp
    3506:	83 7d 08 00          	cmpl   $0x0,0x8(%ebp)
    350a:	75 09                	jne    3515 <malloc+0x15>
    350c:	c7 45 f8 00 00 00 00 	movl   $0x0,0xfffffff8(%ebp)
    3513:	eb 3d                	jmp    3552 <malloc+0x52>
    3515:	83 7d 08 f0          	cmpl   $0xfffffff0,0x8(%ebp)
    3519:	76 02                	jbe    351d <malloc+0x1d>
    351b:	eb 1c                	jmp    3539 <malloc+0x39>
    351d:	83 ec 08             	sub    $0x8,%esp
    3520:	68 e0 83 04 00       	push   $0x483e0
    3525:	ff 75 08             	pushl  0x8(%ebp)
    3528:	e8 ef fe ff ff       	call   341c <putenv+0x7e>
    352d:	83 c4 10             	add    $0x10,%esp
    3530:	89 45 fc             	mov    %eax,0xfffffffc(%ebp)
    3533:	83 7d fc 00          	cmpl   $0x0,0xfffffffc(%ebp)
    3537:	75 13                	jne    354c <malloc+0x4c>
    3539:	c7 05 24 84 04 00 0c 	movl   $0xc,0x48424
    3540:	00 00 00 
    3543:	c7 45 f8 00 00 00 00 	movl   $0x0,0xfffffff8(%ebp)
    354a:	eb 06                	jmp    3552 <malloc+0x52>
    354c:	8b 45 fc             	mov    0xfffffffc(%ebp),%eax
    354f:	89 45 f8             	mov    %eax,0xfffffff8(%ebp)
    3552:	8b 45 f8             	mov    0xfffffff8(%ebp),%eax
    3555:	c9                   	leave  
    3556:	c3                   	ret    
    3557:	90                   	nop    
    3558:	55                   	push   %ebp
    3559:	89 e5                	mov    %esp,%ebp
    355b:	83 ec 18             	sub    $0x18,%esp
    355e:	83 7d 08 00          	cmpl   $0x0,0x8(%ebp)
    3562:	75 05                	jne    3569 <malloc+0x69>
    3564:	e9 ae 00 00 00       	jmp    3617 <malloc+0x117>
    3569:	8b 45 08             	mov    0x8(%ebp),%eax
    356c:	83 e8 08             	sub    $0x8,%eax
    356f:	8b 00                	mov    (%eax),%eax
    3571:	89 45 fc             	mov    %eax,0xfffffffc(%ebp)
    3574:	83 6d 08 08          	subl   $0x8,0x8(%ebp)
    3578:	83 ec 04             	sub    $0x4,%esp
    357b:	ff 75 fc             	pushl  0xfffffffc(%ebp)
    357e:	ff 75 08             	pushl  0x8(%ebp)
    3581:	ff 75 0c             	pushl  0xc(%ebp)
    3584:	e8 3b 04 00 00       	call   39c4 <__heap_free>
    3589:	83 c4 10             	add    $0x10,%esp
    358c:	89 45 f8             	mov    %eax,0xfffffff8(%ebp)
    358f:	8b 45 f8             	mov    0xfffffff8(%ebp),%eax
    3592:	81 38 ff 7f 00 00    	cmpl   $0x7fff,(%eax)
    3598:	77 02                	ja     359c <malloc+0x9c>
    359a:	eb 7b                	jmp    3617 <malloc+0x117>
    359c:	8b 45 f8             	mov    0xfffffff8(%ebp),%eax
    359f:	8b 10                	mov    (%eax),%edx
    35a1:	8b 45 f8             	mov    0xfffffff8(%ebp),%eax
    35a4:	29 d0                	sub    %edx,%eax
    35a6:	83 c0 0c             	add    $0xc,%eax
    35a9:	89 45 f4             	mov    %eax,0xfffffff4(%ebp)
    35ac:	8b 45 f8             	mov    0xfffffff8(%ebp),%eax
    35af:	83 c0 0c             	add    $0xc,%eax
    35b2:	89 45 f0             	mov    %eax,0xfffffff0(%ebp)
    35b5:	83 ec 0c             	sub    $0xc,%esp
    35b8:	6a 00                	push   $0x0
    35ba:	e8 4d 07 00 00       	call   3d0c <sbrk>
    35bf:	83 c4 10             	add    $0x10,%esp
    35c2:	39 45 f0             	cmp    %eax,0xfffffff0(%ebp)
    35c5:	74 02                	je     35c9 <malloc+0xc9>
    35c7:	eb 4e                	jmp    3617 <malloc+0x117>
    35c9:	83 ec 08             	sub    $0x8,%esp
    35cc:	ff 75 f8             	pushl  0xfffffff8(%ebp)
    35cf:	ff 75 0c             	pushl  0xc(%ebp)
    35d2:	e8 5d 00 00 00       	call   3634 <free+0x1b>
    35d7:	83 c4 10             	add    $0x10,%esp
    35da:	8b 45 0c             	mov    0xc(%ebp),%eax
    35dd:	83 38 00             	cmpl   $0x0,(%eax)
    35e0:	75 1f                	jne    3601 <malloc+0x101>
    35e2:	83 ec 04             	sub    $0x4,%esp
    35e5:	68 00 20 00 00       	push   $0x2000
    35ea:	ff 75 f4             	pushl  0xfffffff4(%ebp)
    35ed:	ff 75 0c             	pushl  0xc(%ebp)
    35f0:	e8 cf 03 00 00       	call   39c4 <__heap_free>
    35f5:	83 c4 10             	add    $0x10,%esp
    35f8:	8d 45 f4             	lea    0xfffffff4(%ebp),%eax
    35fb:	81 00 00 20 00 00    	addl   $0x2000,(%eax)
    3601:	83 ec 0c             	sub    $0xc,%esp
    3604:	8b 45 f0             	mov    0xfffffff0(%ebp),%eax
    3607:	8b 55 f4             	mov    0xfffffff4(%ebp),%edx
    360a:	29 c2                	sub    %eax,%edx
    360c:	89 d0                	mov    %edx,%eax
    360e:	50                   	push   %eax
    360f:	e8 f8 06 00 00       	call   3d0c <sbrk>
    3614:	83 c4 10             	add    $0x10,%esp
    3617:	c9                   	leave  
    3618:	c3                   	ret    

00003619 <free>:
    3619:	55                   	push   %ebp
    361a:	89 e5                	mov    %esp,%ebp
    361c:	83 ec 08             	sub    $0x8,%esp
    361f:	83 ec 08             	sub    $0x8,%esp
    3622:	68 e0 83 04 00       	push   $0x483e0
    3627:	ff 75 08             	pushl  0x8(%ebp)
    362a:	e8 29 ff ff ff       	call   3558 <malloc+0x58>
    362f:	83 c4 10             	add    $0x10,%esp
    3632:	c9                   	leave  
    3633:	c3                   	ret    
    3634:	55                   	push   %ebp
    3635:	89 e5                	mov    %esp,%ebp
    3637:	8b 45 0c             	mov    0xc(%ebp),%eax
    363a:	83 78 04 00          	cmpl   $0x0,0x4(%eax)
    363e:	74 0f                	je     364f <free+0x36>
    3640:	8b 45 0c             	mov    0xc(%ebp),%eax
    3643:	8b 50 04             	mov    0x4(%eax),%edx
    3646:	8b 45 0c             	mov    0xc(%ebp),%eax
    3649:	8b 40 08             	mov    0x8(%eax),%eax
    364c:	89 42 08             	mov    %eax,0x8(%edx)
    364f:	8b 45 0c             	mov    0xc(%ebp),%eax
    3652:	83 78 08 00          	cmpl   $0x0,0x8(%eax)
    3656:	74 11                	je     3669 <free+0x50>
    3658:	8b 45 0c             	mov    0xc(%ebp),%eax
    365b:	8b 50 08             	mov    0x8(%eax),%edx
    365e:	8b 45 0c             	mov    0xc(%ebp),%eax
    3661:	8b 40 04             	mov    0x4(%eax),%eax
    3664:	89 42 04             	mov    %eax,0x4(%edx)
    3667:	eb 0b                	jmp    3674 <free+0x5b>
    3669:	8b 45 08             	mov    0x8(%ebp),%eax
    366c:	8b 55 0c             	mov    0xc(%ebp),%edx
    366f:	8b 52 04             	mov    0x4(%edx),%edx
    3672:	89 10                	mov    %edx,(%eax)
    3674:	c9                   	leave  
    3675:	c3                   	ret    
    3676:	90                   	nop    
    3677:	90                   	nop    

00003678 <realloc>:
    3678:	55                   	push   %ebp
    3679:	89 e5                	mov    %esp,%ebp
    367b:	83 ec 18             	sub    $0x18,%esp
    367e:	83 7d 08 00          	cmpl   $0x0,0x8(%ebp)
    3682:	75 16                	jne    369a <realloc+0x22>
    3684:	83 ec 0c             	sub    $0xc,%esp
    3687:	ff 75 0c             	pushl  0xc(%ebp)
    368a:	e8 71 fe ff ff       	call   3500 <malloc>
    368f:	83 c4 10             	add    $0x10,%esp
    3692:	89 45 ec             	mov    %eax,0xffffffec(%ebp)
    3695:	e9 13 01 00 00       	jmp    37ad <realloc+0x135>
    369a:	83 7d 0c 00          	cmpl   $0x0,0xc(%ebp)
    369e:	75 24                	jne    36c4 <realloc+0x4c>
    36a0:	83 ec 0c             	sub    $0xc,%esp
    36a3:	ff 75 08             	pushl  0x8(%ebp)
    36a6:	e8 6e ff ff ff       	call   3619 <free>
    36ab:	83 c4 10             	add    $0x10,%esp
    36ae:	83 ec 0c             	sub    $0xc,%esp
    36b1:	ff 75 0c             	pushl  0xc(%ebp)
    36b4:	e8 47 fe ff ff       	call   3500 <malloc>
    36b9:	83 c4 10             	add    $0x10,%esp
    36bc:	89 45 ec             	mov    %eax,0xffffffec(%ebp)
    36bf:	e9 e9 00 00 00       	jmp    37ad <realloc+0x135>
    36c4:	8b 45 08             	mov    0x8(%ebp),%eax
    36c7:	83 e8 08             	sub    $0x8,%eax
    36ca:	89 45 f8             	mov    %eax,0xfffffff8(%ebp)
    36cd:	8b 45 08             	mov    0x8(%ebp),%eax
    36d0:	83 e8 08             	sub    $0x8,%eax
    36d3:	8b 00                	mov    (%eax),%eax
    36d5:	89 45 fc             	mov    %eax,0xfffffffc(%ebp)
    36d8:	8b 45 0c             	mov    0xc(%ebp),%eax
    36db:	83 c0 0f             	add    $0xf,%eax
    36de:	83 e0 f8             	and    $0xfffffff8,%eax
    36e1:	89 45 0c             	mov    %eax,0xc(%ebp)
    36e4:	8b 45 0c             	mov    0xc(%ebp),%eax
    36e7:	3b 45 fc             	cmp    0xfffffffc(%ebp),%eax
    36ea:	0f 86 84 00 00 00    	jbe    3774 <realloc+0xfc>
    36f0:	8b 55 fc             	mov    0xfffffffc(%ebp),%edx
    36f3:	8b 45 0c             	mov    0xc(%ebp),%eax
    36f6:	29 d0                	sub    %edx,%eax
    36f8:	89 45 f4             	mov    %eax,0xfffffff4(%ebp)
    36fb:	83 ec 04             	sub    $0x4,%esp
    36fe:	ff 75 f4             	pushl  0xfffffff4(%ebp)
    3701:	8b 45 fc             	mov    0xfffffffc(%ebp),%eax
    3704:	03 45 f8             	add    0xfffffff8(%ebp),%eax
    3707:	50                   	push   %eax
    3708:	68 e0 83 04 00       	push   $0x483e0
    370d:	e8 ae 01 00 00       	call   38c0 <__heap_alloc_at>
    3712:	83 c4 10             	add    $0x10,%esp
    3715:	89 45 f4             	mov    %eax,0xfffffff4(%ebp)
    3718:	83 7d f4 00          	cmpl   $0x0,0xfffffff4(%ebp)
    371c:	74 0d                	je     372b <realloc+0xb3>
    371e:	8b 45 f8             	mov    0xfffffff8(%ebp),%eax
    3721:	8b 55 f4             	mov    0xfffffff4(%ebp),%edx
    3724:	03 55 fc             	add    0xfffffffc(%ebp),%edx
    3727:	89 10                	mov    %edx,(%eax)
    3729:	eb 7c                	jmp    37a7 <realloc+0x12f>
    372b:	83 ec 0c             	sub    $0xc,%esp
    372e:	8b 45 0c             	mov    0xc(%ebp),%eax
    3731:	83 e8 08             	sub    $0x8,%eax
    3734:	50                   	push   %eax
    3735:	e8 c6 fd ff ff       	call   3500 <malloc>
    373a:	83 c4 10             	add    $0x10,%esp
    373d:	89 45 f0             	mov    %eax,0xfffffff0(%ebp)
    3740:	83 7d f0 00          	cmpl   $0x0,0xfffffff0(%ebp)
    3744:	74 26                	je     376c <realloc+0xf4>
    3746:	83 ec 04             	sub    $0x4,%esp
    3749:	8b 45 fc             	mov    0xfffffffc(%ebp),%eax
    374c:	83 e8 08             	sub    $0x8,%eax
    374f:	50                   	push   %eax
    3750:	ff 75 08             	pushl  0x8(%ebp)
    3753:	ff 75 f0             	pushl  0xfffffff0(%ebp)
    3756:	e8 11 34 00 00       	call   6b6c <memcpy>
    375b:	83 c4 10             	add    $0x10,%esp
    375e:	83 ec 0c             	sub    $0xc,%esp
    3761:	ff 75 08             	pushl  0x8(%ebp)
    3764:	e8 b0 fe ff ff       	call   3619 <free>
    3769:	83 c4 10             	add    $0x10,%esp
    376c:	8b 45 f0             	mov    0xfffffff0(%ebp),%eax
    376f:	89 45 08             	mov    %eax,0x8(%ebp)
    3772:	eb 33                	jmp    37a7 <realloc+0x12f>
    3774:	8b 45 0c             	mov    0xc(%ebp),%eax
    3777:	83 c0 20             	add    $0x20,%eax
    377a:	3b 45 fc             	cmp    0xfffffffc(%ebp),%eax
    377d:	77 28                	ja     37a7 <realloc+0x12f>
    377f:	83 ec 04             	sub    $0x4,%esp
    3782:	8b 55 0c             	mov    0xc(%ebp),%edx
    3785:	8b 45 fc             	mov    0xfffffffc(%ebp),%eax
    3788:	29 d0                	sub    %edx,%eax
    378a:	50                   	push   %eax
    378b:	8b 45 0c             	mov    0xc(%ebp),%eax
    378e:	03 45 f8             	add    0xfffffff8(%ebp),%eax
    3791:	50                   	push   %eax
    3792:	68 e0 83 04 00       	push   $0x483e0
    3797:	e8 28 02 00 00       	call   39c4 <__heap_free>
    379c:	83 c4 10             	add    $0x10,%esp
    379f:	8b 55 f8             	mov    0xfffffff8(%ebp),%edx
    37a2:	8b 45 0c             	mov    0xc(%ebp),%eax
    37a5:	89 02                	mov    %eax,(%edx)
    37a7:	8b 45 08             	mov    0x8(%ebp),%eax
    37aa:	89 45 ec             	mov    %eax,0xffffffec(%ebp)
    37ad:	8b 45 ec             	mov    0xffffffec(%ebp),%eax
    37b0:	c9                   	leave  
    37b1:	c3                   	ret    
    37b2:	90                   	nop    
    37b3:	90                   	nop    

000037b4 <__heap_alloc>:
    37b4:	55                   	push   %ebp
    37b5:	89 e5                	mov    %esp,%ebp
    37b7:	83 ec 18             	sub    $0x18,%esp
    37ba:	8b 45 0c             	mov    0xc(%ebp),%eax
    37bd:	8b 00                	mov    (%eax),%eax
    37bf:	89 45 f8             	mov    %eax,0xfffffff8(%ebp)
    37c2:	c7 45 f4 00 00 00 00 	movl   $0x0,0xfffffff4(%ebp)
    37c9:	8b 45 f8             	mov    0xfffffff8(%ebp),%eax
    37cc:	83 c0 07             	add    $0x7,%eax
    37cf:	83 e0 f8             	and    $0xfffffff8,%eax
    37d2:	89 45 f8             	mov    %eax,0xfffffff8(%ebp)
    37d5:	83 7d f8 0b          	cmpl   $0xb,0xfffffff8(%ebp)
    37d9:	77 07                	ja     37e2 <__heap_alloc+0x2e>
    37db:	c7 45 f8 10 00 00 00 	movl   $0x10,0xfffffff8(%ebp)
    37e2:	8b 45 08             	mov    0x8(%ebp),%eax
    37e5:	8b 00                	mov    (%eax),%eax
    37e7:	89 45 fc             	mov    %eax,0xfffffffc(%ebp)
    37ea:	83 7d fc 00          	cmpl   $0x0,0xfffffffc(%ebp)
    37ee:	75 02                	jne    37f2 <__heap_alloc+0x3e>
    37f0:	eb 42                	jmp    3834 <__heap_alloc+0x80>
    37f2:	8b 45 fc             	mov    0xfffffffc(%ebp),%eax
    37f5:	8b 00                	mov    (%eax),%eax
    37f7:	3b 45 f8             	cmp    0xfffffff8(%ebp),%eax
    37fa:	72 2d                	jb     3829 <__heap_alloc+0x75>
    37fc:	8b 45 fc             	mov    0xfffffffc(%ebp),%eax
    37ff:	8b 10                	mov    (%eax),%edx
    3801:	8b 45 fc             	mov    0xfffffffc(%ebp),%eax
    3804:	29 d0                	sub    %edx,%eax
    3806:	83 c0 0c             	add    $0xc,%eax
    3809:	89 45 f4             	mov    %eax,0xfffffff4(%ebp)
    380c:	83 ec 04             	sub    $0x4,%esp
    380f:	ff 75 f8             	pushl  0xfffffff8(%ebp)
    3812:	ff 75 fc             	pushl  0xfffffffc(%ebp)
    3815:	ff 75 08             	pushl  0x8(%ebp)
    3818:	e8 1c 00 00 00       	call   3839 <__heap_alloc+0x85>
    381d:	83 c4 10             	add    $0x10,%esp
    3820:	89 c2                	mov    %eax,%edx
    3822:	8b 45 0c             	mov    0xc(%ebp),%eax
    3825:	89 10                	mov    %edx,(%eax)
    3827:	eb 0b                	jmp    3834 <__heap_alloc+0x80>
    3829:	8b 45 fc             	mov    0xfffffffc(%ebp),%eax
    382c:	8b 40 04             	mov    0x4(%eax),%eax
    382f:	89 45 fc             	mov    %eax,0xfffffffc(%ebp)
    3832:	eb b6                	jmp    37ea <__heap_alloc+0x36>
    3834:	8b 45 f4             	mov    0xfffffff4(%ebp),%eax
    3837:	c9                   	leave  
    3838:	c3                   	ret    
    3839:	55                   	push   %ebp
    383a:	89 e5                	mov    %esp,%ebp
    383c:	83 ec 08             	sub    $0x8,%esp
    383f:	8b 45 0c             	mov    0xc(%ebp),%eax
    3842:	8b 00                	mov    (%eax),%eax
    3844:	89 45 fc             	mov    %eax,0xfffffffc(%ebp)
    3847:	8b 45 10             	mov    0x10(%ebp),%eax
    384a:	83 c0 30             	add    $0x30,%eax
    384d:	39 45 fc             	cmp    %eax,0xfffffffc(%ebp)
    3850:	73 19                	jae    386b <__heap_alloc+0xb7>
    3852:	83 ec 08             	sub    $0x8,%esp
    3855:	ff 75 0c             	pushl  0xc(%ebp)
    3858:	ff 75 08             	pushl  0x8(%ebp)
    385b:	e8 1d 00 00 00       	call   387d <__heap_alloc+0xc9>
    3860:	83 c4 10             	add    $0x10,%esp
    3863:	8b 45 fc             	mov    0xfffffffc(%ebp),%eax
    3866:	89 45 10             	mov    %eax,0x10(%ebp)
    3869:	eb 0d                	jmp    3878 <__heap_alloc+0xc4>
    386b:	8b 4d 0c             	mov    0xc(%ebp),%ecx
    386e:	8b 55 10             	mov    0x10(%ebp),%edx
    3871:	8b 45 fc             	mov    0xfffffffc(%ebp),%eax
    3874:	29 d0                	sub    %edx,%eax
    3876:	89 01                	mov    %eax,(%ecx)
    3878:	8b 45 10             	mov    0x10(%ebp),%eax
    387b:	c9                   	leave  
    387c:	c3                   	ret    
    387d:	55                   	push   %ebp
    387e:	89 e5                	mov    %esp,%ebp
    3880:	8b 45 0c             	mov    0xc(%ebp),%eax
    3883:	83 78 04 00          	cmpl   $0x0,0x4(%eax)
    3887:	74 0f                	je     3898 <__heap_alloc+0xe4>
    3889:	8b 45 0c             	mov    0xc(%ebp),%eax
    388c:	8b 50 04             	mov    0x4(%eax),%edx
    388f:	8b 45 0c             	mov    0xc(%ebp),%eax
    3892:	8b 40 08             	mov    0x8(%eax),%eax
    3895:	89 42 08             	mov    %eax,0x8(%edx)
    3898:	8b 45 0c             	mov    0xc(%ebp),%eax
    389b:	83 78 08 00          	cmpl   $0x0,0x8(%eax)
    389f:	74 11                	je     38b2 <__heap_alloc+0xfe>
    38a1:	8b 45 0c             	mov    0xc(%ebp),%eax
    38a4:	8b 50 08             	mov    0x8(%eax),%edx
    38a7:	8b 45 0c             	mov    0xc(%ebp),%eax
    38aa:	8b 40 04             	mov    0x4(%eax),%eax
    38ad:	89 42 04             	mov    %eax,0x4(%edx)
    38b0:	eb 0b                	jmp    38bd <__heap_alloc+0x109>
    38b2:	8b 45 08             	mov    0x8(%ebp),%eax
    38b5:	8b 55 0c             	mov    0xc(%ebp),%edx
    38b8:	8b 52 04             	mov    0x4(%edx),%edx
    38bb:	89 10                	mov    %edx,(%eax)
    38bd:	c9                   	leave  
    38be:	c3                   	ret    
    38bf:	90                   	nop    

000038c0 <__heap_alloc_at>:
    38c0:	55                   	push   %ebp
    38c1:	89 e5                	mov    %esp,%ebp
    38c3:	83 ec 18             	sub    $0x18,%esp
    38c6:	c7 45 f8 00 00 00 00 	movl   $0x0,0xfffffff8(%ebp)
    38cd:	8b 45 10             	mov    0x10(%ebp),%eax
    38d0:	83 c0 07             	add    $0x7,%eax
    38d3:	83 e0 f8             	and    $0xfffffff8,%eax
    38d6:	89 45 10             	mov    %eax,0x10(%ebp)
    38d9:	8b 45 08             	mov    0x8(%ebp),%eax
    38dc:	8b 00                	mov    (%eax),%eax
    38de:	89 45 fc             	mov    %eax,0xfffffffc(%ebp)
    38e1:	83 7d fc 00          	cmpl   $0x0,0xfffffffc(%ebp)
    38e5:	75 02                	jne    38e9 <__heap_alloc_at+0x29>
    38e7:	eb 4e                	jmp    3937 <__heap_alloc_at+0x77>
    38e9:	8b 45 fc             	mov    0xfffffffc(%ebp),%eax
    38ec:	8b 10                	mov    (%eax),%edx
    38ee:	8b 45 fc             	mov    0xfffffffc(%ebp),%eax
    38f1:	29 d0                	sub    %edx,%eax
    38f3:	83 c0 0c             	add    $0xc,%eax
    38f6:	89 45 f4             	mov    %eax,0xfffffff4(%ebp)
    38f9:	8b 45 f4             	mov    0xfffffff4(%ebp),%eax
    38fc:	3b 45 0c             	cmp    0xc(%ebp),%eax
    38ff:	77 2b                	ja     392c <__heap_alloc_at+0x6c>
    3901:	8b 45 f4             	mov    0xfffffff4(%ebp),%eax
    3904:	3b 45 0c             	cmp    0xc(%ebp),%eax
    3907:	75 2e                	jne    3937 <__heap_alloc_at+0x77>
    3909:	8b 45 fc             	mov    0xfffffffc(%ebp),%eax
    390c:	8b 00                	mov    (%eax),%eax
    390e:	3b 45 10             	cmp    0x10(%ebp),%eax
    3911:	72 24                	jb     3937 <__heap_alloc_at+0x77>
    3913:	83 ec 04             	sub    $0x4,%esp
    3916:	ff 75 10             	pushl  0x10(%ebp)
    3919:	ff 75 fc             	pushl  0xfffffffc(%ebp)
    391c:	ff 75 08             	pushl  0x8(%ebp)
    391f:	e8 18 00 00 00       	call   393c <__heap_alloc_at+0x7c>
    3924:	83 c4 10             	add    $0x10,%esp
    3927:	89 45 f8             	mov    %eax,0xfffffff8(%ebp)
    392a:	eb 0b                	jmp    3937 <__heap_alloc_at+0x77>
    392c:	8b 45 fc             	mov    0xfffffffc(%ebp),%eax
    392f:	8b 40 04             	mov    0x4(%eax),%eax
    3932:	89 45 fc             	mov    %eax,0xfffffffc(%ebp)
    3935:	eb aa                	jmp    38e1 <__heap_alloc_at+0x21>
    3937:	8b 45 f8             	mov    0xfffffff8(%ebp),%eax
    393a:	c9                   	leave  
    393b:	c3                   	ret    
    393c:	55                   	push   %ebp
    393d:	89 e5                	mov    %esp,%ebp
    393f:	83 ec 08             	sub    $0x8,%esp
    3942:	8b 45 0c             	mov    0xc(%ebp),%eax
    3945:	8b 00                	mov    (%eax),%eax
    3947:	89 45 fc             	mov    %eax,0xfffffffc(%ebp)
    394a:	8b 45 10             	mov    0x10(%ebp),%eax
    394d:	83 c0 30             	add    $0x30,%eax
    3950:	39 45 fc             	cmp    %eax,0xfffffffc(%ebp)
    3953:	73 19                	jae    396e <__heap_alloc_at+0xae>
    3955:	83 ec 08             	sub    $0x8,%esp
    3958:	ff 75 0c             	pushl  0xc(%ebp)
    395b:	ff 75 08             	pushl  0x8(%ebp)
    395e:	e8 1d 00 00 00       	call   3980 <__heap_alloc_at+0xc0>
    3963:	83 c4 10             	add    $0x10,%esp
    3966:	8b 45 fc             	mov    0xfffffffc(%ebp),%eax
    3969:	89 45 10             	mov    %eax,0x10(%ebp)
    396c:	eb 0d                	jmp    397b <__heap_alloc_at+0xbb>
    396e:	8b 4d 0c             	mov    0xc(%ebp),%ecx
    3971:	8b 55 10             	mov    0x10(%ebp),%edx
    3974:	8b 45 fc             	mov    0xfffffffc(%ebp),%eax
    3977:	29 d0                	sub    %edx,%eax
    3979:	89 01                	mov    %eax,(%ecx)
    397b:	8b 45 10             	mov    0x10(%ebp),%eax
    397e:	c9                   	leave  
    397f:	c3                   	ret    
    3980:	55                   	push   %ebp
    3981:	89 e5                	mov    %esp,%ebp
    3983:	8b 45 0c             	mov    0xc(%ebp),%eax
    3986:	83 78 04 00          	cmpl   $0x0,0x4(%eax)
    398a:	74 0f                	je     399b <__heap_alloc_at+0xdb>
    398c:	8b 45 0c             	mov    0xc(%ebp),%eax
    398f:	8b 50 04             	mov    0x4(%eax),%edx
    3992:	8b 45 0c             	mov    0xc(%ebp),%eax
    3995:	8b 40 08             	mov    0x8(%eax),%eax
    3998:	89 42 08             	mov    %eax,0x8(%edx)
    399b:	8b 45 0c             	mov    0xc(%ebp),%eax
    399e:	83 78 08 00          	cmpl   $0x0,0x8(%eax)
    39a2:	74 11                	je     39b5 <__heap_alloc_at+0xf5>
    39a4:	8b 45 0c             	mov    0xc(%ebp),%eax
    39a7:	8b 50 08             	mov    0x8(%eax),%edx
    39aa:	8b 45 0c             	mov    0xc(%ebp),%eax
    39ad:	8b 40 04             	mov    0x4(%eax),%eax
    39b0:	89 42 04             	mov    %eax,0x4(%edx)
    39b3:	eb 0b                	jmp    39c0 <__heap_alloc_at+0x100>
    39b5:	8b 45 08             	mov    0x8(%ebp),%eax
    39b8:	8b 55 0c             	mov    0xc(%ebp),%edx
    39bb:	8b 52 04             	mov    0x4(%edx),%edx
    39be:	89 10                	mov    %edx,(%eax)
    39c0:	c9                   	leave  
    39c1:	c3                   	ret    
    39c2:	90                   	nop    
    39c3:	90                   	nop    

000039c4 <__heap_free>:
    39c4:	55                   	push   %ebp
    39c5:	89 e5                	mov    %esp,%ebp
    39c7:	83 ec 18             	sub    $0x18,%esp
    39ca:	8b 45 10             	mov    0x10(%ebp),%eax
    39cd:	03 45 0c             	add    0xc(%ebp),%eax
    39d0:	89 45 f4             	mov    %eax,0xfffffff4(%ebp)
    39d3:	c7 45 f8 00 00 00 00 	movl   $0x0,0xfffffff8(%ebp)
    39da:	8b 45 08             	mov    0x8(%ebp),%eax
    39dd:	8b 00                	mov    (%eax),%eax
    39df:	89 45 fc             	mov    %eax,0xfffffffc(%ebp)
    39e2:	83 7d fc 00          	cmpl   $0x0,0xfffffffc(%ebp)
    39e6:	75 02                	jne    39ea <__heap_free+0x26>
    39e8:	eb 1e                	jmp    3a08 <__heap_free+0x44>
    39ea:	8b 45 fc             	mov    0xfffffffc(%ebp),%eax
    39ed:	83 c0 0c             	add    $0xc,%eax
    39f0:	3b 45 0c             	cmp    0xc(%ebp),%eax
    39f3:	72 02                	jb     39f7 <__heap_free+0x33>
    39f5:	eb 11                	jmp    3a08 <__heap_free+0x44>
    39f7:	8b 45 fc             	mov    0xfffffffc(%ebp),%eax
    39fa:	89 45 f8             	mov    %eax,0xfffffff8(%ebp)
    39fd:	8b 45 fc             	mov    0xfffffffc(%ebp),%eax
    3a00:	8b 40 04             	mov    0x4(%eax),%eax
    3a03:	89 45 fc             	mov    %eax,0xfffffffc(%ebp)
    3a06:	eb da                	jmp    39e2 <__heap_free+0x1e>
    3a08:	83 7d fc 00          	cmpl   $0x0,0xfffffffc(%ebp)
    3a0c:	0f 84 dc 00 00 00    	je     3aee <__heap_free+0x12a>
    3a12:	8b 45 fc             	mov    0xfffffffc(%ebp),%eax
    3a15:	8b 10                	mov    (%eax),%edx
    3a17:	8b 45 fc             	mov    0xfffffffc(%ebp),%eax
    3a1a:	29 d0                	sub    %edx,%eax
    3a1c:	83 c0 0c             	add    $0xc,%eax
    3a1f:	3b 45 f4             	cmp    0xfffffff4(%ebp),%eax
    3a22:	0f 87 c6 00 00 00    	ja     3aee <__heap_free+0x12a>
    3a28:	8b 55 fc             	mov    0xfffffffc(%ebp),%edx
    3a2b:	8b 45 10             	mov    0x10(%ebp),%eax
    3a2e:	03 02                	add    (%edx),%eax
    3a30:	89 45 f0             	mov    %eax,0xfffffff0(%ebp)
    3a33:	8b 45 fc             	mov    0xfffffffc(%ebp),%eax
    3a36:	8b 10                	mov    (%eax),%edx
    3a38:	8b 45 fc             	mov    0xfffffffc(%ebp),%eax
    3a3b:	29 d0                	sub    %edx,%eax
    3a3d:	83 c0 0c             	add    $0xc,%eax
    3a40:	3b 45 f4             	cmp    0xfffffff4(%ebp),%eax
    3a43:	75 3c                	jne    3a81 <__heap_free+0xbd>
    3a45:	83 7d f8 00          	cmpl   $0x0,0xfffffff8(%ebp)
    3a49:	0f 84 95 00 00 00    	je     3ae4 <__heap_free+0x120>
    3a4f:	8b 45 f8             	mov    0xfffffff8(%ebp),%eax
    3a52:	83 c0 0c             	add    $0xc,%eax
    3a55:	39 45 0c             	cmp    %eax,0xc(%ebp)
    3a58:	0f 85 86 00 00 00    	jne    3ae4 <__heap_free+0x120>
    3a5e:	8b 45 f8             	mov    0xfffffff8(%ebp),%eax
    3a61:	8b 10                	mov    (%eax),%edx
    3a63:	8d 45 f0             	lea    0xfffffff0(%ebp),%eax
    3a66:	01 10                	add    %edx,(%eax)
    3a68:	83 ec 04             	sub    $0x4,%esp
    3a6b:	8b 45 f8             	mov    0xfffffff8(%ebp),%eax
    3a6e:	ff 70 08             	pushl  0x8(%eax)
    3a71:	ff 75 fc             	pushl  0xfffffffc(%ebp)
    3a74:	ff 75 08             	pushl  0x8(%ebp)
    3a77:	e8 d3 00 00 00       	call   3b4f <__heap_free+0x18b>
    3a7c:	83 c4 10             	add    $0x10,%esp
    3a7f:	eb 63                	jmp    3ae4 <__heap_free+0x120>
    3a81:	8b 45 fc             	mov    0xfffffffc(%ebp),%eax
    3a84:	8b 40 04             	mov    0x4(%eax),%eax
    3a87:	89 45 ec             	mov    %eax,0xffffffec(%ebp)
    3a8a:	83 7d ec 00          	cmpl   $0x0,0xffffffec(%ebp)
    3a8e:	74 38                	je     3ac8 <__heap_free+0x104>
    3a90:	8b 45 ec             	mov    0xffffffec(%ebp),%eax
    3a93:	8b 10                	mov    (%eax),%edx
    3a95:	8b 45 ec             	mov    0xffffffec(%ebp),%eax
    3a98:	29 d0                	sub    %edx,%eax
    3a9a:	83 c0 0c             	add    $0xc,%eax
    3a9d:	39 45 f4             	cmp    %eax,0xfffffff4(%ebp)
    3aa0:	75 26                	jne    3ac8 <__heap_free+0x104>
    3aa2:	8b 45 ec             	mov    0xffffffec(%ebp),%eax
    3aa5:	8b 10                	mov    (%eax),%edx
    3aa7:	8d 45 f0             	lea    0xfffffff0(%ebp),%eax
    3aaa:	01 10                	add    %edx,(%eax)
    3aac:	83 ec 04             	sub    $0x4,%esp
    3aaf:	ff 75 f8             	pushl  0xfffffff8(%ebp)
    3ab2:	ff 75 ec             	pushl  0xffffffec(%ebp)
    3ab5:	ff 75 08             	pushl  0x8(%ebp)
    3ab8:	e8 92 00 00 00       	call   3b4f <__heap_free+0x18b>
    3abd:	83 c4 10             	add    $0x10,%esp
    3ac0:	8b 45 ec             	mov    0xffffffec(%ebp),%eax
    3ac3:	89 45 fc             	mov    %eax,0xfffffffc(%ebp)
    3ac6:	eb 1c                	jmp    3ae4 <__heap_free+0x120>
    3ac8:	8b 55 10             	mov    0x10(%ebp),%edx
    3acb:	8d 45 fc             	lea    0xfffffffc(%ebp),%eax
    3ace:	01 10                	add    %edx,(%eax)
    3ad0:	ff 75 ec             	pushl  0xffffffec(%ebp)
    3ad3:	ff 75 f8             	pushl  0xfffffff8(%ebp)
    3ad6:	ff 75 fc             	pushl  0xfffffffc(%ebp)
    3ad9:	ff 75 08             	pushl  0x8(%ebp)
    3adc:	e8 2f 00 00 00       	call   3b10 <__heap_free+0x14c>
    3ae1:	83 c4 10             	add    $0x10,%esp
    3ae4:	8b 55 fc             	mov    0xfffffffc(%ebp),%edx
    3ae7:	8b 45 f0             	mov    0xfffffff0(%ebp),%eax
    3aea:	89 02                	mov    %eax,(%edx)
    3aec:	eb 1d                	jmp    3b0b <__heap_free+0x147>
    3aee:	83 ec 0c             	sub    $0xc,%esp
    3af1:	ff 75 fc             	pushl  0xfffffffc(%ebp)
    3af4:	ff 75 f8             	pushl  0xfffffff8(%ebp)
    3af7:	ff 75 10             	pushl  0x10(%ebp)
    3afa:	ff 75 0c             	pushl  0xc(%ebp)
    3afd:	ff 75 08             	pushl  0x8(%ebp)
    3b00:	e8 71 00 00 00       	call   3b76 <__heap_free+0x1b2>
    3b05:	83 c4 20             	add    $0x20,%esp
    3b08:	89 45 fc             	mov    %eax,0xfffffffc(%ebp)
    3b0b:	8b 45 fc             	mov    0xfffffffc(%ebp),%eax
    3b0e:	c9                   	leave  
    3b0f:	c3                   	ret    
    3b10:	55                   	push   %ebp
    3b11:	89 e5                	mov    %esp,%ebp
    3b13:	8b 55 0c             	mov    0xc(%ebp),%edx
    3b16:	8b 45 14             	mov    0x14(%ebp),%eax
    3b19:	89 42 04             	mov    %eax,0x4(%edx)
    3b1c:	8b 55 0c             	mov    0xc(%ebp),%edx
    3b1f:	8b 45 10             	mov    0x10(%ebp),%eax
    3b22:	89 42 08             	mov    %eax,0x8(%edx)
    3b25:	83 7d 10 00          	cmpl   $0x0,0x10(%ebp)
    3b29:	74 0b                	je     3b36 <__heap_free+0x172>
    3b2b:	8b 55 10             	mov    0x10(%ebp),%edx
    3b2e:	8b 45 0c             	mov    0xc(%ebp),%eax
    3b31:	89 42 04             	mov    %eax,0x4(%edx)
    3b34:	eb 08                	jmp    3b3e <__heap_free+0x17a>
    3b36:	8b 55 08             	mov    0x8(%ebp),%edx
    3b39:	8b 45 0c             	mov    0xc(%ebp),%eax
    3b3c:	89 02                	mov    %eax,(%edx)
    3b3e:	83 7d 14 00          	cmpl   $0x0,0x14(%ebp)
    3b42:	74 09                	je     3b4d <__heap_free+0x189>
    3b44:	8b 55 14             	mov    0x14(%ebp),%edx
    3b47:	8b 45 0c             	mov    0xc(%ebp),%eax
    3b4a:	89 42 08             	mov    %eax,0x8(%edx)
    3b4d:	c9                   	leave  
    3b4e:	c3                   	ret    
    3b4f:	55                   	push   %ebp
    3b50:	89 e5                	mov    %esp,%ebp
    3b52:	83 7d 10 00          	cmpl   $0x0,0x10(%ebp)
    3b56:	74 0b                	je     3b63 <__heap_free+0x19f>
    3b58:	8b 55 10             	mov    0x10(%ebp),%edx
    3b5b:	8b 45 0c             	mov    0xc(%ebp),%eax
    3b5e:	89 42 04             	mov    %eax,0x4(%edx)
    3b61:	eb 08                	jmp    3b6b <__heap_free+0x1a7>
    3b63:	8b 55 08             	mov    0x8(%ebp),%edx
    3b66:	8b 45 0c             	mov    0xc(%ebp),%eax
    3b69:	89 02                	mov    %eax,(%edx)
    3b6b:	8b 55 0c             	mov    0xc(%ebp),%edx
    3b6e:	8b 45 10             	mov    0x10(%ebp),%eax
    3b71:	89 42 08             	mov    %eax,0x8(%edx)
    3b74:	c9                   	leave  
    3b75:	c3                   	ret    
    3b76:	55                   	push   %ebp
    3b77:	89 e5                	mov    %esp,%ebp
    3b79:	83 ec 08             	sub    $0x8,%esp
    3b7c:	8b 45 10             	mov    0x10(%ebp),%eax
    3b7f:	03 45 0c             	add    0xc(%ebp),%eax
    3b82:	83 e8 0c             	sub    $0xc,%eax
    3b85:	89 45 fc             	mov    %eax,0xfffffffc(%ebp)
    3b88:	8b 55 fc             	mov    0xfffffffc(%ebp),%edx
    3b8b:	8b 45 10             	mov    0x10(%ebp),%eax
    3b8e:	89 02                	mov    %eax,(%edx)
    3b90:	ff 75 18             	pushl  0x18(%ebp)
    3b93:	ff 75 14             	pushl  0x14(%ebp)
    3b96:	ff 75 fc             	pushl  0xfffffffc(%ebp)
    3b99:	ff 75 08             	pushl  0x8(%ebp)
    3b9c:	e8 6f ff ff ff       	call   3b10 <__heap_free+0x14c>
    3ba1:	83 c4 10             	add    $0x10,%esp
    3ba4:	8b 45 fc             	mov    0xfffffffc(%ebp),%eax
    3ba7:	c9                   	leave  
    3ba8:	c3                   	ret    
    3ba9:	90                   	nop    
    3baa:	90                   	nop    
    3bab:	90                   	nop    

00003bac <getcwd>:
    3bac:	55                   	push   %ebp
    3bad:	89 e5                	mov    %esp,%ebp
    3baf:	83 ec 18             	sub    $0x18,%esp
    3bb2:	8b 45 0c             	mov    0xc(%ebp),%eax
    3bb5:	89 45 f4             	mov    %eax,0xfffffff4(%ebp)
    3bb8:	83 7d 0c 00          	cmpl   $0x0,0xc(%ebp)
    3bbc:	75 23                	jne    3be1 <getcwd+0x35>
    3bbe:	83 7d 08 00          	cmpl   $0x0,0x8(%ebp)
    3bc2:	74 16                	je     3bda <getcwd+0x2e>
    3bc4:	c7 05 24 84 04 00 16 	movl   $0x16,0x48424
    3bcb:	00 00 00 
    3bce:	c7 45 f0 00 00 00 00 	movl   $0x0,0xfffffff0(%ebp)
    3bd5:	e9 9c 00 00 00       	jmp    3c76 <getcwd+0xca>
    3bda:	c7 45 f4 00 10 00 00 	movl   $0x1000,0xfffffff4(%ebp)
    3be1:	8b 45 08             	mov    0x8(%ebp),%eax
    3be4:	89 45 f8             	mov    %eax,0xfffffff8(%ebp)
    3be7:	83 7d 08 00          	cmpl   $0x0,0x8(%ebp)
    3beb:	75 20                	jne    3c0d <getcwd+0x61>
    3bed:	83 ec 0c             	sub    $0xc,%esp
    3bf0:	ff 75 f4             	pushl  0xfffffff4(%ebp)
    3bf3:	e8 08 f9 ff ff       	call   3500 <malloc>
    3bf8:	83 c4 10             	add    $0x10,%esp
    3bfb:	89 45 f8             	mov    %eax,0xfffffff8(%ebp)
    3bfe:	83 7d f8 00          	cmpl   $0x0,0xfffffff8(%ebp)
    3c02:	75 09                	jne    3c0d <getcwd+0x61>
    3c04:	c7 45 f0 00 00 00 00 	movl   $0x0,0xfffffff0(%ebp)
    3c0b:	eb 69                	jmp    3c76 <getcwd+0xca>
    3c0d:	83 ec 08             	sub    $0x8,%esp
    3c10:	ff 75 f4             	pushl  0xfffffff4(%ebp)
    3c13:	ff 75 f8             	pushl  0xfffffff8(%ebp)
    3c16:	e8 60 00 00 00       	call   3c7b <getcwd+0xcf>
    3c1b:	83 c4 10             	add    $0x10,%esp
    3c1e:	89 45 fc             	mov    %eax,0xfffffffc(%ebp)
    3c21:	83 7d fc 00          	cmpl   $0x0,0xfffffffc(%ebp)
    3c25:	78 34                	js     3c5b <getcwd+0xaf>
    3c27:	83 7d 08 00          	cmpl   $0x0,0x8(%ebp)
    3c2b:	75 1a                	jne    3c47 <getcwd+0x9b>
    3c2d:	83 7d 0c 00          	cmpl   $0x0,0xc(%ebp)
    3c31:	75 14                	jne    3c47 <getcwd+0x9b>
    3c33:	83 ec 08             	sub    $0x8,%esp
    3c36:	ff 75 fc             	pushl  0xfffffffc(%ebp)
    3c39:	ff 75 f8             	pushl  0xfffffff8(%ebp)
    3c3c:	e8 37 fa ff ff       	call   3678 <realloc>
    3c41:	83 c4 10             	add    $0x10,%esp
    3c44:	89 45 08             	mov    %eax,0x8(%ebp)
    3c47:	83 7d 08 00          	cmpl   $0x0,0x8(%ebp)
    3c4b:	75 06                	jne    3c53 <getcwd+0xa7>
    3c4d:	8b 45 f8             	mov    0xfffffff8(%ebp),%eax
    3c50:	89 45 08             	mov    %eax,0x8(%ebp)
    3c53:	8b 45 08             	mov    0x8(%ebp),%eax
    3c56:	89 45 f0             	mov    %eax,0xfffffff0(%ebp)
    3c59:	eb 1b                	jmp    3c76 <getcwd+0xca>
    3c5b:	83 7d 08 00          	cmpl   $0x0,0x8(%ebp)
    3c5f:	75 0e                	jne    3c6f <getcwd+0xc3>
    3c61:	83 ec 0c             	sub    $0xc,%esp
    3c64:	ff 75 f8             	pushl  0xfffffff8(%ebp)
    3c67:	e8 ad f9 ff ff       	call   3619 <free>
    3c6c:	83 c4 10             	add    $0x10,%esp
    3c6f:	c7 45 f0 00 00 00 00 	movl   $0x0,0xfffffff0(%ebp)
    3c76:	8b 45 f0             	mov    0xfffffff0(%ebp),%eax
    3c79:	c9                   	leave  
    3c7a:	c3                   	ret    
    3c7b:	55                   	push   %ebp
    3c7c:	89 e5                	mov    %esp,%ebp
    3c7e:	83 ec 04             	sub    $0x4,%esp
    3c81:	8b 45 08             	mov    0x8(%ebp),%eax
    3c84:	8b 4d 0c             	mov    0xc(%ebp),%ecx
    3c87:	53                   	push   %ebx
    3c88:	89 c3                	mov    %eax,%ebx
    3c8a:	b8 b7 00 00 00       	mov    $0xb7,%eax
    3c8f:	cd 80                	int    $0x80
    3c91:	5b                   	pop    %ebx
    3c92:	89 45 fc             	mov    %eax,0xfffffffc(%ebp)
    3c95:	81 7d fc 00 f0 ff ff 	cmpl   $0xfffff000,0xfffffffc(%ebp)
    3c9c:	76 11                	jbe    3caf <getcwd+0x103>
    3c9e:	8b 45 fc             	mov    0xfffffffc(%ebp),%eax
    3ca1:	f7 d8                	neg    %eax
    3ca3:	a3 24 84 04 00       	mov    %eax,0x48424
    3ca8:	c7 45 fc ff ff ff ff 	movl   $0xffffffff,0xfffffffc(%ebp)
    3caf:	8b 45 fc             	mov    0xfffffffc(%ebp),%eax
    3cb2:	c9                   	leave  
    3cb3:	c3                   	ret    

00003cb4 <__libc_wait>:
    3cb4:	55                   	push   %ebp
    3cb5:	89 e5                	mov    %esp,%ebp
    3cb7:	83 ec 08             	sub    $0x8,%esp
    3cba:	6a 00                	push   $0x0
    3cbc:	6a 00                	push   $0x0
    3cbe:	8b 45 08             	mov    0x8(%ebp),%eax
    3cc1:	89 45 fc             	mov    %eax,0xfffffffc(%ebp)
    3cc4:	ff 75 fc             	pushl  0xfffffffc(%ebp)
    3cc7:	6a ff                	push   $0xffffffff
    3cc9:	e8 66 04 00 00       	call   4134 <wait4>
    3cce:	83 c4 10             	add    $0x10,%esp
    3cd1:	c9                   	leave  
    3cd2:	c3                   	ret    
    3cd3:	90                   	nop    

00003cd4 <_exit>:
    3cd4:	55                   	push   %ebp
    3cd5:	89 e5                	mov    %esp,%ebp
    3cd7:	57                   	push   %edi
    3cd8:	83 ec 04             	sub    $0x4,%esp
    3cdb:	8b 7d 08             	mov    0x8(%ebp),%edi
    3cde:	53                   	push   %ebx
    3cdf:	89 fb                	mov    %edi,%ebx
    3ce1:	b8 01 00 00 00       	mov    $0x1,%eax
    3ce6:	cd 80                	int    $0x80
    3ce8:	5b                   	pop    %ebx
    3ce9:	89 45 f8             	mov    %eax,0xfffffff8(%ebp)
    3cec:	81 7d f8 00 f0 ff ff 	cmpl   $0xfffff000,0xfffffff8(%ebp)
    3cf3:	76 11                	jbe    3d06 <_exit+0x32>
    3cf5:	8b 45 f8             	mov    0xfffffff8(%ebp),%eax
    3cf8:	f7 d8                	neg    %eax
    3cfa:	a3 24 84 04 00       	mov    %eax,0x48424
    3cff:	c7 45 f8 ff ff ff ff 	movl   $0xffffffff,0xfffffff8(%ebp)
    3d06:	83 c4 04             	add    $0x4,%esp
    3d09:	5f                   	pop    %edi
    3d0a:	c9                   	leave  
    3d0b:	c3                   	ret    

00003d0c <sbrk>:
    3d0c:	55                   	push   %ebp
    3d0d:	89 e5                	mov    %esp,%ebp
    3d0f:	83 ec 08             	sub    $0x8,%esp
    3d12:	83 3d 7c a4 04 00 00 	cmpl   $0x0,0x4a47c
    3d19:	75 1a                	jne    3d35 <sbrk+0x29>
    3d1b:	83 ec 0c             	sub    $0xc,%esp
    3d1e:	6a 00                	push   $0x0
    3d20:	e8 f7 04 00 00       	call   421c <brk>
    3d25:	83 c4 10             	add    $0x10,%esp
    3d28:	85 c0                	test   %eax,%eax
    3d2a:	79 09                	jns    3d35 <sbrk+0x29>
    3d2c:	c7 45 f8 ff ff ff ff 	movl   $0xffffffff,0xfffffff8(%ebp)
    3d33:	eb 3d                	jmp    3d72 <sbrk+0x66>
    3d35:	83 7d 08 00          	cmpl   $0x0,0x8(%ebp)
    3d39:	75 0a                	jne    3d45 <sbrk+0x39>
    3d3b:	a1 7c a4 04 00       	mov    0x4a47c,%eax
    3d40:	89 45 f8             	mov    %eax,0xfffffff8(%ebp)
    3d43:	eb 2d                	jmp    3d72 <sbrk+0x66>
    3d45:	a1 7c a4 04 00       	mov    0x4a47c,%eax
    3d4a:	89 45 fc             	mov    %eax,0xfffffffc(%ebp)
    3d4d:	83 ec 0c             	sub    $0xc,%esp
    3d50:	8b 45 08             	mov    0x8(%ebp),%eax
    3d53:	03 45 fc             	add    0xfffffffc(%ebp),%eax
    3d56:	50                   	push   %eax
    3d57:	e8 c0 04 00 00       	call   421c <brk>
    3d5c:	83 c4 10             	add    $0x10,%esp
    3d5f:	85 c0                	test   %eax,%eax
    3d61:	79 09                	jns    3d6c <sbrk+0x60>
    3d63:	c7 45 f8 ff ff ff ff 	movl   $0xffffffff,0xfffffff8(%ebp)
    3d6a:	eb 06                	jmp    3d72 <sbrk+0x66>
    3d6c:	8b 45 fc             	mov    0xfffffffc(%ebp),%eax
    3d6f:	89 45 f8             	mov    %eax,0xfffffff8(%ebp)
    3d72:	8b 45 f8             	mov    0xfffffff8(%ebp),%eax
    3d75:	c9                   	leave  
    3d76:	c3                   	ret    
    3d77:	90                   	nop    

00003d78 <__libc_fork>:
    3d78:	55                   	push   %ebp
    3d79:	89 e5                	mov    %esp,%ebp
    3d7b:	83 ec 04             	sub    $0x4,%esp
    3d7e:	b8 02 00 00 00       	mov    $0x2,%eax
    3d83:	cd 80                	int    $0x80
    3d85:	89 45 fc             	mov    %eax,0xfffffffc(%ebp)
    3d88:	81 7d fc 00 f0 ff ff 	cmpl   $0xfffff000,0xfffffffc(%ebp)
    3d8f:	76 11                	jbe    3da2 <__libc_fork+0x2a>
    3d91:	8b 45 fc             	mov    0xfffffffc(%ebp),%eax
    3d94:	f7 d8                	neg    %eax
    3d96:	a3 24 84 04 00       	mov    %eax,0x48424
    3d9b:	c7 45 fc ff ff ff ff 	movl   $0xffffffff,0xfffffffc(%ebp)
    3da2:	8b 45 fc             	mov    0xfffffffc(%ebp),%eax
    3da5:	c9                   	leave  
    3da6:	c3                   	ret    
    3da7:	90                   	nop    

00003da8 <__libc_read>:
    3da8:	55                   	push   %ebp
    3da9:	89 e5                	mov    %esp,%ebp
    3dab:	57                   	push   %edi
    3dac:	83 ec 04             	sub    $0x4,%esp
    3daf:	8b 7d 08             	mov    0x8(%ebp),%edi
    3db2:	8b 4d 0c             	mov    0xc(%ebp),%ecx
    3db5:	8b 55 10             	mov    0x10(%ebp),%edx
    3db8:	53                   	push   %ebx
    3db9:	89 fb                	mov    %edi,%ebx
    3dbb:	b8 03 00 00 00       	mov    $0x3,%eax
    3dc0:	cd 80                	int    $0x80
    3dc2:	5b                   	pop    %ebx
    3dc3:	89 45 f8             	mov    %eax,0xfffffff8(%ebp)
    3dc6:	81 7d f8 00 f0 ff ff 	cmpl   $0xfffff000,0xfffffff8(%ebp)
    3dcd:	76 11                	jbe    3de0 <__libc_read+0x38>
    3dcf:	8b 45 f8             	mov    0xfffffff8(%ebp),%eax
    3dd2:	f7 d8                	neg    %eax
    3dd4:	a3 24 84 04 00       	mov    %eax,0x48424
    3dd9:	c7 45 f8 ff ff ff ff 	movl   $0xffffffff,0xfffffff8(%ebp)
    3de0:	8b 45 f8             	mov    0xfffffff8(%ebp),%eax
    3de3:	83 c4 04             	add    $0x4,%esp
    3de6:	5f                   	pop    %edi
    3de7:	c9                   	leave  
    3de8:	c3                   	ret    
    3de9:	90                   	nop    
    3dea:	90                   	nop    
    3deb:	90                   	nop    

00003dec <__libc_write>:
    3dec:	55                   	push   %ebp
    3ded:	89 e5                	mov    %esp,%ebp
    3def:	57                   	push   %edi
    3df0:	83 ec 04             	sub    $0x4,%esp
    3df3:	8b 7d 08             	mov    0x8(%ebp),%edi
    3df6:	8b 4d 0c             	mov    0xc(%ebp),%ecx
    3df9:	8b 55 10             	mov    0x10(%ebp),%edx
    3dfc:	53                   	push   %ebx
    3dfd:	89 fb                	mov    %edi,%ebx
    3dff:	b8 04 00 00 00       	mov    $0x4,%eax
    3e04:	cd 80                	int    $0x80
    3e06:	5b                   	pop    %ebx
    3e07:	89 45 f8             	mov    %eax,0xfffffff8(%ebp)
    3e0a:	81 7d f8 00 f0 ff ff 	cmpl   $0xfffff000,0xfffffff8(%ebp)
    3e11:	76 11                	jbe    3e24 <__libc_write+0x38>
    3e13:	8b 45 f8             	mov    0xfffffff8(%ebp),%eax
    3e16:	f7 d8                	neg    %eax
    3e18:	a3 24 84 04 00       	mov    %eax,0x48424
    3e1d:	c7 45 f8 ff ff ff ff 	movl   $0xffffffff,0xfffffff8(%ebp)
    3e24:	8b 45 f8             	mov    0xfffffff8(%ebp),%eax
    3e27:	83 c4 04             	add    $0x4,%esp
    3e2a:	5f                   	pop    %edi
    3e2b:	c9                   	leave  
    3e2c:	c3                   	ret    
    3e2d:	90                   	nop    
    3e2e:	90                   	nop    
    3e2f:	90                   	nop    

00003e30 <__libc_open>:
    3e30:	55                   	push   %ebp
    3e31:	89 e5                	mov    %esp,%ebp
    3e33:	83 ec 08             	sub    $0x8,%esp
    3e36:	8b 45 0c             	mov    0xc(%ebp),%eax
    3e39:	83 e0 40             	and    $0x40,%eax
    3e3c:	85 c0                	test   %eax,%eax
    3e3e:	74 17                	je     3e57 <__libc_open+0x27>
    3e40:	8d 45 10             	lea    0x10(%ebp),%eax
    3e43:	89 45 f8             	mov    %eax,0xfffffff8(%ebp)
    3e46:	8d 45 f8             	lea    0xfffffff8(%ebp),%eax
    3e49:	83 00 04             	addl   $0x4,(%eax)
    3e4c:	8b 45 f8             	mov    0xfffffff8(%ebp),%eax
    3e4f:	83 e8 04             	sub    $0x4,%eax
    3e52:	8b 00                	mov    (%eax),%eax
    3e54:	89 45 fc             	mov    %eax,0xfffffffc(%ebp)
    3e57:	83 ec 04             	sub    $0x4,%esp
    3e5a:	0f b7 45 fc          	movzwl 0xfffffffc(%ebp),%eax
    3e5e:	50                   	push   %eax
    3e5f:	ff 75 0c             	pushl  0xc(%ebp)
    3e62:	ff 75 08             	pushl  0x8(%ebp)
    3e65:	e8 23 00 00 00       	call   3e8d <creat+0x1e>
    3e6a:	83 c4 10             	add    $0x10,%esp
    3e6d:	c9                   	leave  
    3e6e:	c3                   	ret    

00003e6f <creat>:
    3e6f:	55                   	push   %ebp
    3e70:	89 e5                	mov    %esp,%ebp
    3e72:	83 ec 08             	sub    $0x8,%esp
    3e75:	83 ec 04             	sub    $0x4,%esp
    3e78:	ff 75 0c             	pushl  0xc(%ebp)
    3e7b:	68 41 02 00 00       	push   $0x241
    3e80:	ff 75 08             	pushl  0x8(%ebp)
    3e83:	e8 a8 ff ff ff       	call   3e30 <__libc_open>
    3e88:	83 c4 10             	add    $0x10,%esp
    3e8b:	c9                   	leave  
    3e8c:	c3                   	ret    
    3e8d:	55                   	push   %ebp
    3e8e:	89 e5                	mov    %esp,%ebp
    3e90:	57                   	push   %edi
    3e91:	83 ec 08             	sub    $0x8,%esp
    3e94:	8b 45 10             	mov    0x10(%ebp),%eax
    3e97:	66 89 45 fa          	mov    %ax,0xfffffffa(%ebp)
    3e9b:	8b 7d 08             	mov    0x8(%ebp),%edi
    3e9e:	8b 4d 0c             	mov    0xc(%ebp),%ecx
    3ea1:	66 8b 55 fa          	mov    0xfffffffa(%ebp),%dx
    3ea5:	53                   	push   %ebx
    3ea6:	89 fb                	mov    %edi,%ebx
    3ea8:	b8 05 00 00 00       	mov    $0x5,%eax
    3ead:	cd 80                	int    $0x80
    3eaf:	5b                   	pop    %ebx
    3eb0:	89 45 f4             	mov    %eax,0xfffffff4(%ebp)
    3eb3:	81 7d f4 00 f0 ff ff 	cmpl   $0xfffff000,0xfffffff4(%ebp)
    3eba:	76 11                	jbe    3ecd <creat+0x5e>
    3ebc:	8b 45 f4             	mov    0xfffffff4(%ebp),%eax
    3ebf:	f7 d8                	neg    %eax
    3ec1:	a3 24 84 04 00       	mov    %eax,0x48424
    3ec6:	c7 45 f4 ff ff ff ff 	movl   $0xffffffff,0xfffffff4(%ebp)
    3ecd:	8b 45 f4             	mov    0xfffffff4(%ebp),%eax
    3ed0:	83 c4 08             	add    $0x8,%esp
    3ed3:	5f                   	pop    %edi
    3ed4:	c9                   	leave  
    3ed5:	c3                   	ret    
    3ed6:	90                   	nop    
    3ed7:	90                   	nop    

00003ed8 <__libc_close>:
    3ed8:	55                   	push   %ebp
    3ed9:	89 e5                	mov    %esp,%ebp
    3edb:	57                   	push   %edi
    3edc:	83 ec 04             	sub    $0x4,%esp
    3edf:	8b 7d 08             	mov    0x8(%ebp),%edi
    3ee2:	53                   	push   %ebx
    3ee3:	89 fb                	mov    %edi,%ebx
    3ee5:	b8 06 00 00 00       	mov    $0x6,%eax
    3eea:	cd 80                	int    $0x80
    3eec:	5b                   	pop    %ebx
    3eed:	89 45 f8             	mov    %eax,0xfffffff8(%ebp)
    3ef0:	81 7d f8 00 f0 ff ff 	cmpl   $0xfffff000,0xfffffff8(%ebp)
    3ef7:	76 11                	jbe    3f0a <__libc_close+0x32>
    3ef9:	8b 45 f8             	mov    0xfffffff8(%ebp),%eax
    3efc:	f7 d8                	neg    %eax
    3efe:	a3 24 84 04 00       	mov    %eax,0x48424
    3f03:	c7 45 f8 ff ff ff ff 	movl   $0xffffffff,0xfffffff8(%ebp)
    3f0a:	8b 45 f8             	mov    0xfffffff8(%ebp),%eax
    3f0d:	83 c4 04             	add    $0x4,%esp
    3f10:	5f                   	pop    %edi
    3f11:	c9                   	leave  
    3f12:	c3                   	ret    
    3f13:	90                   	nop    

00003f14 <execve>:
    3f14:	55                   	push   %ebp
    3f15:	89 e5                	mov    %esp,%ebp
    3f17:	57                   	push   %edi
    3f18:	83 ec 04             	sub    $0x4,%esp
    3f1b:	8b 7d 08             	mov    0x8(%ebp),%edi
    3f1e:	8b 4d 0c             	mov    0xc(%ebp),%ecx
    3f21:	8b 55 10             	mov    0x10(%ebp),%edx
    3f24:	53                   	push   %ebx
    3f25:	89 fb                	mov    %edi,%ebx
    3f27:	b8 0b 00 00 00       	mov    $0xb,%eax
    3f2c:	cd 80                	int    $0x80
    3f2e:	5b                   	pop    %ebx
    3f2f:	89 45 f8             	mov    %eax,0xfffffff8(%ebp)
    3f32:	81 7d f8 00 f0 ff ff 	cmpl   $0xfffff000,0xfffffff8(%ebp)
    3f39:	76 11                	jbe    3f4c <execve+0x38>
    3f3b:	8b 45 f8             	mov    0xfffffff8(%ebp),%eax
    3f3e:	f7 d8                	neg    %eax
    3f40:	a3 24 84 04 00       	mov    %eax,0x48424
    3f45:	c7 45 f8 ff ff ff ff 	movl   $0xffffffff,0xfffffff8(%ebp)
    3f4c:	8b 45 f8             	mov    0xfffffff8(%ebp),%eax
    3f4f:	83 c4 04             	add    $0x4,%esp
    3f52:	5f                   	pop    %edi
    3f53:	c9                   	leave  
    3f54:	c3                   	ret    
    3f55:	90                   	nop    
    3f56:	90                   	nop    
    3f57:	90                   	nop    

00003f58 <__libc_getpid>:
    3f58:	55                   	push   %ebp
    3f59:	89 e5                	mov    %esp,%ebp
    3f5b:	83 ec 04             	sub    $0x4,%esp
    3f5e:	b8 14 00 00 00       	mov    $0x14,%eax
    3f63:	cd 80                	int    $0x80
    3f65:	89 45 fc             	mov    %eax,0xfffffffc(%ebp)
    3f68:	81 7d fc 00 f0 ff ff 	cmpl   $0xfffff000,0xfffffffc(%ebp)
    3f6f:	76 11                	jbe    3f82 <__libc_getpid+0x2a>
    3f71:	8b 45 fc             	mov    0xfffffffc(%ebp),%eax
    3f74:	f7 d8                	neg    %eax
    3f76:	a3 24 84 04 00       	mov    %eax,0x48424
    3f7b:	c7 45 fc ff ff ff ff 	movl   $0xffffffff,0xfffffffc(%ebp)
    3f82:	8b 45 fc             	mov    0xfffffffc(%ebp),%eax
    3f85:	c9                   	leave  
    3f86:	c3                   	ret    
    3f87:	90                   	nop    

00003f88 <setuid>:
    3f88:	55                   	push   %ebp
    3f89:	89 e5                	mov    %esp,%ebp
    3f8b:	83 ec 08             	sub    $0x8,%esp
    3f8e:	83 7d 08 ff          	cmpl   $0xffffffff,0x8(%ebp)
    3f92:	74 0b                	je     3f9f <setuid+0x17>
    3f94:	0f b7 45 08          	movzwl 0x8(%ebp),%eax
    3f98:	39 45 08             	cmp    %eax,0x8(%ebp)
    3f9b:	75 02                	jne    3f9f <setuid+0x17>
    3f9d:	eb 13                	jmp    3fb2 <setuid+0x2a>
    3f9f:	c7 05 24 84 04 00 16 	movl   $0x16,0x48424
    3fa6:	00 00 00 
    3fa9:	c7 45 fc ff ff ff ff 	movl   $0xffffffff,0xfffffffc(%ebp)
    3fb0:	eb 13                	jmp    3fc5 <setuid+0x3d>
    3fb2:	83 ec 0c             	sub    $0xc,%esp
    3fb5:	0f b7 45 08          	movzwl 0x8(%ebp),%eax
    3fb9:	50                   	push   %eax
    3fba:	e8 0b 00 00 00       	call   3fca <setuid+0x42>
    3fbf:	83 c4 10             	add    $0x10,%esp
    3fc2:	89 45 fc             	mov    %eax,0xfffffffc(%ebp)
    3fc5:	8b 45 fc             	mov    0xfffffffc(%ebp),%eax
    3fc8:	c9                   	leave  
    3fc9:	c3                   	ret    
    3fca:	55                   	push   %ebp
    3fcb:	89 e5                	mov    %esp,%ebp
    3fcd:	57                   	push   %edi
    3fce:	83 ec 08             	sub    $0x8,%esp
    3fd1:	8b 45 08             	mov    0x8(%ebp),%eax
    3fd4:	66 89 45 fa          	mov    %ax,0xfffffffa(%ebp)
    3fd8:	66 8b 7d fa          	mov    0xfffffffa(%ebp),%di
    3fdc:	53                   	push   %ebx
    3fdd:	89 fb                	mov    %edi,%ebx
    3fdf:	b8 17 00 00 00       	mov    $0x17,%eax
    3fe4:	cd 80                	int    $0x80
    3fe6:	5b                   	pop    %ebx
    3fe7:	89 45 f4             	mov    %eax,0xfffffff4(%ebp)
    3fea:	81 7d f4 00 f0 ff ff 	cmpl   $0xfffff000,0xfffffff4(%ebp)
    3ff1:	76 11                	jbe    4004 <setuid+0x7c>
    3ff3:	8b 45 f4             	mov    0xfffffff4(%ebp),%eax
    3ff6:	f7 d8                	neg    %eax
    3ff8:	a3 24 84 04 00       	mov    %eax,0x48424
    3ffd:	c7 45 f4 ff ff ff ff 	movl   $0xffffffff,0xfffffff4(%ebp)
    4004:	8b 45 f4             	mov    0xfffffff4(%ebp),%eax
    4007:	83 c4 08             	add    $0x8,%esp
    400a:	5f                   	pop    %edi
    400b:	c9                   	leave  
    400c:	c3                   	ret    
    400d:	90                   	nop    
    400e:	90                   	nop    
    400f:	90                   	nop    

00004010 <dup>:
    4010:	55                   	push   %ebp
    4011:	89 e5                	mov    %esp,%ebp
    4013:	57                   	push   %edi
    4014:	83 ec 04             	sub    $0x4,%esp
    4017:	8b 7d 08             	mov    0x8(%ebp),%edi
    401a:	53                   	push   %ebx
    401b:	89 fb                	mov    %edi,%ebx
    401d:	b8 29 00 00 00       	mov    $0x29,%eax
    4022:	cd 80                	int    $0x80
    4024:	5b                   	pop    %ebx
    4025:	89 45 f8             	mov    %eax,0xfffffff8(%ebp)
    4028:	81 7d f8 00 f0 ff ff 	cmpl   $0xfffff000,0xfffffff8(%ebp)
    402f:	76 11                	jbe    4042 <dup+0x32>
    4031:	8b 45 f8             	mov    0xfffffff8(%ebp),%eax
    4034:	f7 d8                	neg    %eax
    4036:	a3 24 84 04 00       	mov    %eax,0x48424
    403b:	c7 45 f8 ff ff ff ff 	movl   $0xffffffff,0xfffffff8(%ebp)
    4042:	8b 45 f8             	mov    0xfffffff8(%ebp),%eax
    4045:	83 c4 04             	add    $0x4,%esp
    4048:	5f                   	pop    %edi
    4049:	c9                   	leave  
    404a:	c3                   	ret    
    404b:	90                   	nop    

0000404c <__syscall_ioctl>:
    404c:	55                   	push   %ebp
    404d:	89 e5                	mov    %esp,%ebp
    404f:	57                   	push   %edi
    4050:	83 ec 04             	sub    $0x4,%esp
    4053:	8b 7d 08             	mov    0x8(%ebp),%edi
    4056:	8b 4d 0c             	mov    0xc(%ebp),%ecx
    4059:	8b 55 10             	mov    0x10(%ebp),%edx
    405c:	53                   	push   %ebx
    405d:	89 fb                	mov    %edi,%ebx
    405f:	b8 36 00 00 00       	mov    $0x36,%eax
    4064:	cd 80                	int    $0x80
    4066:	5b                   	pop    %ebx
    4067:	89 45 f8             	mov    %eax,0xfffffff8(%ebp)
    406a:	81 7d f8 00 f0 ff ff 	cmpl   $0xfffff000,0xfffffff8(%ebp)
    4071:	76 11                	jbe    4084 <__syscall_ioctl+0x38>
    4073:	8b 45 f8             	mov    0xfffffff8(%ebp),%eax
    4076:	f7 d8                	neg    %eax
    4078:	a3 24 84 04 00       	mov    %eax,0x48424
    407d:	c7 45 f8 ff ff ff ff 	movl   $0xffffffff,0xfffffff8(%ebp)
    4084:	8b 45 f8             	mov    0xfffffff8(%ebp),%eax
    4087:	83 c4 04             	add    $0x4,%esp
    408a:	5f                   	pop    %edi
    408b:	c9                   	leave  
    408c:	c3                   	ret    

0000408d <ioctl>:
    408d:	55                   	push   %ebp
    408e:	89 e5                	mov    %esp,%ebp
    4090:	83 ec 08             	sub    $0x8,%esp
    4093:	8d 45 10             	lea    0x10(%ebp),%eax
    4096:	89 45 f8             	mov    %eax,0xfffffff8(%ebp)
    4099:	8d 45 f8             	lea    0xfffffff8(%ebp),%eax
    409c:	83 00 04             	addl   $0x4,(%eax)
    409f:	8b 45 f8             	mov    0xfffffff8(%ebp),%eax
    40a2:	83 e8 04             	sub    $0x4,%eax
    40a5:	8b 00                	mov    (%eax),%eax
    40a7:	89 45 fc             	mov    %eax,0xfffffffc(%ebp)
    40aa:	83 ec 04             	sub    $0x4,%esp
    40ad:	ff 75 fc             	pushl  0xfffffffc(%ebp)
    40b0:	ff 75 0c             	pushl  0xc(%ebp)
    40b3:	ff 75 08             	pushl  0x8(%ebp)
    40b6:	e8 91 ff ff ff       	call   404c <__syscall_ioctl>
    40bb:	83 c4 10             	add    $0x10,%esp
    40be:	c9                   	leave  
    40bf:	c3                   	ret    

000040c0 <__syscall_stat>:
    40c0:	55                   	push   %ebp
    40c1:	89 e5                	mov    %esp,%ebp
    40c3:	83 ec 04             	sub    $0x4,%esp
    40c6:	8b 45 08             	mov    0x8(%ebp),%eax
    40c9:	8b 4d 0c             	mov    0xc(%ebp),%ecx
    40cc:	53                   	push   %ebx
    40cd:	89 c3                	mov    %eax,%ebx
    40cf:	b8 6a 00 00 00       	mov    $0x6a,%eax
    40d4:	cd 80                	int    $0x80
    40d6:	5b                   	pop    %ebx
    40d7:	89 45 fc             	mov    %eax,0xfffffffc(%ebp)
    40da:	81 7d fc 00 f0 ff ff 	cmpl   $0xfffff000,0xfffffffc(%ebp)
    40e1:	76 11                	jbe    40f4 <__syscall_stat+0x34>
    40e3:	8b 45 fc             	mov    0xfffffffc(%ebp),%eax
    40e6:	f7 d8                	neg    %eax
    40e8:	a3 24 84 04 00       	mov    %eax,0x48424
    40ed:	c7 45 fc ff ff ff ff 	movl   $0xffffffff,0xfffffffc(%ebp)
    40f4:	8b 45 fc             	mov    0xfffffffc(%ebp),%eax
    40f7:	c9                   	leave  
    40f8:	c3                   	ret    

000040f9 <stat>:
    40f9:	55                   	push   %ebp
    40fa:	89 e5                	mov    %esp,%ebp
    40fc:	83 ec 58             	sub    $0x58,%esp
    40ff:	83 ec 08             	sub    $0x8,%esp
    4102:	8d 45 a8             	lea    0xffffffa8(%ebp),%eax
    4105:	50                   	push   %eax
    4106:	ff 75 08             	pushl  0x8(%ebp)
    4109:	e8 b2 ff ff ff       	call   40c0 <__syscall_stat>
    410e:	83 c4 10             	add    $0x10,%esp
    4111:	89 45 f4             	mov    %eax,0xfffffff4(%ebp)
    4114:	83 7d f4 00          	cmpl   $0x0,0xfffffff4(%ebp)
    4118:	75 12                	jne    412c <stat+0x33>
    411a:	83 ec 08             	sub    $0x8,%esp
    411d:	ff 75 0c             	pushl  0xc(%ebp)
    4120:	8d 45 a8             	lea    0xffffffa8(%ebp),%eax
    4123:	50                   	push   %eax
    4124:	e8 bb 2b 00 00       	call   6ce4 <__xstat_conv>
    4129:	83 c4 10             	add    $0x10,%esp
    412c:	8b 45 f4             	mov    0xfffffff4(%ebp),%eax
    412f:	c9                   	leave  
    4130:	c3                   	ret    
    4131:	90                   	nop    
    4132:	90                   	nop    
    4133:	90                   	nop    

00004134 <wait4>:
    4134:	55                   	push   %ebp
    4135:	89 e5                	mov    %esp,%ebp
    4137:	83 ec 08             	sub    $0x8,%esp
    413a:	ff 75 14             	pushl  0x14(%ebp)
    413d:	ff 75 10             	pushl  0x10(%ebp)
    4140:	ff 75 0c             	pushl  0xc(%ebp)
    4143:	ff 75 08             	pushl  0x8(%ebp)
    4146:	e8 05 00 00 00       	call   4150 <wait4+0x1c>
    414b:	83 c4 10             	add    $0x10,%esp
    414e:	c9                   	leave  
    414f:	c3                   	ret    
    4150:	55                   	push   %ebp
    4151:	89 e5                	mov    %esp,%ebp
    4153:	57                   	push   %edi
    4154:	56                   	push   %esi
    4155:	83 ec 04             	sub    $0x4,%esp
    4158:	8b 7d 08             	mov    0x8(%ebp),%edi
    415b:	8b 4d 0c             	mov    0xc(%ebp),%ecx
    415e:	8b 55 10             	mov    0x10(%ebp),%edx
    4161:	8b 75 14             	mov    0x14(%ebp),%esi
    4164:	53                   	push   %ebx
    4165:	89 fb                	mov    %edi,%ebx
    4167:	b8 72 00 00 00       	mov    $0x72,%eax
    416c:	cd 80                	int    $0x80
    416e:	5b                   	pop    %ebx
    416f:	89 45 f4             	mov    %eax,0xfffffff4(%ebp)
    4172:	81 7d f4 00 f0 ff ff 	cmpl   $0xfffff000,0xfffffff4(%ebp)
    4179:	76 11                	jbe    418c <wait4+0x58>
    417b:	8b 45 f4             	mov    0xfffffff4(%ebp),%eax
    417e:	f7 d8                	neg    %eax
    4180:	a3 24 84 04 00       	mov    %eax,0x48424
    4185:	c7 45 f4 ff ff ff ff 	movl   $0xffffffff,0xfffffff4(%ebp)
    418c:	8b 45 f4             	mov    0xfffffff4(%ebp),%eax
    418f:	83 c4 04             	add    $0x4,%esp
    4192:	5e                   	pop    %esi
    4193:	5f                   	pop    %edi
    4194:	c9                   	leave  
    4195:	c3                   	ret    
    4196:	90                   	nop    
    4197:	90                   	nop    

00004198 <uname>:
    4198:	55                   	push   %ebp
    4199:	89 e5                	mov    %esp,%ebp
    419b:	57                   	push   %edi
    419c:	83 ec 04             	sub    $0x4,%esp
    419f:	8b 7d 08             	mov    0x8(%ebp),%edi
    41a2:	53                   	push   %ebx
    41a3:	89 fb                	mov    %edi,%ebx
    41a5:	b8 7a 00 00 00       	mov    $0x7a,%eax
    41aa:	cd 80                	int    $0x80
    41ac:	5b                   	pop    %ebx
    41ad:	89 45 f8             	mov    %eax,0xfffffff8(%ebp)
    41b0:	81 7d f8 00 f0 ff ff 	cmpl   $0xfffff000,0xfffffff8(%ebp)
    41b7:	76 11                	jbe    41ca <uname+0x32>
    41b9:	8b 45 f8             	mov    0xfffffff8(%ebp),%eax
    41bc:	f7 d8                	neg    %eax
    41be:	a3 24 84 04 00       	mov    %eax,0x48424
    41c3:	c7 45 f8 ff ff ff ff 	movl   $0xffffffff,0xfffffff8(%ebp)
    41ca:	8b 45 f8             	mov    0xfffffff8(%ebp),%eax
    41cd:	83 c4 04             	add    $0x4,%esp
    41d0:	5f                   	pop    %edi
    41d1:	c9                   	leave  
    41d2:	c3                   	ret    
    41d3:	90                   	nop    

000041d4 <__syscall_rt_sigaction>:
    41d4:	55                   	push   %ebp
    41d5:	89 e5                	mov    %esp,%ebp
    41d7:	57                   	push   %edi
    41d8:	56                   	push   %esi
    41d9:	83 ec 04             	sub    $0x4,%esp
    41dc:	8b 7d 08             	mov    0x8(%ebp),%edi
    41df:	8b 4d 0c             	mov    0xc(%ebp),%ecx
    41e2:	8b 55 10             	mov    0x10(%ebp),%edx
    41e5:	8b 75 14             	mov    0x14(%ebp),%esi
    41e8:	53                   	push   %ebx
    41e9:	89 fb                	mov    %edi,%ebx
    41eb:	b8 ae 00 00 00       	mov    $0xae,%eax
    41f0:	cd 80                	int    $0x80
    41f2:	5b                   	pop    %ebx
    41f3:	89 45 f4             	mov    %eax,0xfffffff4(%ebp)
    41f6:	81 7d f4 00 f0 ff ff 	cmpl   $0xfffff000,0xfffffff4(%ebp)
    41fd:	76 11                	jbe    4210 <__syscall_rt_sigaction+0x3c>
    41ff:	8b 45 f4             	mov    0xfffffff4(%ebp),%eax
    4202:	f7 d8                	neg    %eax
    4204:	a3 24 84 04 00       	mov    %eax,0x48424
    4209:	c7 45 f4 ff ff ff ff 	movl   $0xffffffff,0xfffffff4(%ebp)
    4210:	8b 45 f4             	mov    0xfffffff4(%ebp),%eax
    4213:	83 c4 04             	add    $0x4,%esp
    4216:	5e                   	pop    %esi
    4217:	5f                   	pop    %edi
    4218:	c9                   	leave  
    4219:	c3                   	ret    
    421a:	90                   	nop    
    421b:	90                   	nop    

0000421c <brk>:
    421c:	55                   	push   %ebp
    421d:	89 e5                	mov    %esp,%ebp
    421f:	83 ec 0c             	sub    $0xc,%esp
    4222:	b8 2d 00 00 00       	mov    $0x2d,%eax
    4227:	89 da                	mov    %ebx,%edx
    4229:	8b 5d 08             	mov    0x8(%ebp),%ebx
    422c:	cd 80                	int    $0x80
    422e:	89 d3                	mov    %edx,%ebx
    4230:	89 45 fc             	mov    %eax,0xfffffffc(%ebp)
    4233:	89 d0                	mov    %edx,%eax
    4235:	89 45 f8             	mov    %eax,0xfffffff8(%ebp)
    4238:	8b 45 fc             	mov    0xfffffffc(%ebp),%eax
    423b:	a3 7c a4 04 00       	mov    %eax,0x4a47c
    4240:	8b 45 fc             	mov    0xfffffffc(%ebp),%eax
    4243:	3b 45 08             	cmp    0x8(%ebp),%eax
    4246:	73 13                	jae    425b <brk+0x3f>
    4248:	c7 05 24 84 04 00 0c 	movl   $0xc,0x48424
    424f:	00 00 00 
    4252:	c7 45 f4 ff ff ff ff 	movl   $0xffffffff,0xfffffff4(%ebp)
    4259:	eb 07                	jmp    4262 <brk+0x46>
    425b:	c7 45 f4 00 00 00 00 	movl   $0x0,0xfffffff4(%ebp)
    4262:	8b 45 f4             	mov    0xfffffff4(%ebp),%eax
    4265:	c9                   	leave  
    4266:	c3                   	ret    
    4267:	90                   	nop    

00004268 <load_library>:
    4268:	55                   	push   %ebp
    4269:	89 e5                	mov    %esp,%ebp
    426b:	81 ec 28 04 00 00    	sub    $0x428,%esp
    4271:	83 ec 08             	sub    $0x8,%esp
    4274:	6a 00                	push   $0x0
    4276:	6a 00                	push   $0x0
    4278:	6a 00                	push   $0x0
    427a:	ff 75 0c             	pushl  0xc(%ebp)
    427d:	ff 75 08             	pushl  0x8(%ebp)
    4280:	6a 3c                	push   $0x3c
    4282:	e8 13 03 00 00       	call   459a <__init_library+0xd8>
    4287:	83 c4 20             	add    $0x20,%esp
    428a:	89 45 f4             	mov    %eax,0xfffffff4(%ebp)
    428d:	83 7d f4 00          	cmpl   $0x0,0xfffffff4(%ebp)
    4291:	79 0c                	jns    429f <load_library+0x37>
    4293:	c7 85 e0 fb ff ff ff 	movl   $0xffffffff,0xfffffbe0(%ebp)
    429a:	ff ff ff 
    429d:	eb 7a                	jmp    4319 <load_library+0xb1>
    429f:	83 ec 04             	sub    $0x4,%esp
    42a2:	6a 00                	push   $0x0
    42a4:	8d 85 e8 fb ff ff    	lea    0xfffffbe8(%ebp),%eax
    42aa:	50                   	push   %eax
    42ab:	6a 00                	push   $0x0
    42ad:	e8 01 01 00 00       	call   43b3 <get_dynamic_dependencies>
    42b2:	83 c4 10             	add    $0x10,%esp
    42b5:	89 45 f0             	mov    %eax,0xfffffff0(%ebp)
    42b8:	c7 45 ec 00 00 00 00 	movl   $0x0,0xffffffec(%ebp)
    42bf:	8b 45 ec             	mov    0xffffffec(%ebp),%eax
    42c2:	3b 45 f0             	cmp    0xfffffff0(%ebp),%eax
    42c5:	7c 02                	jl     42c9 <load_library+0x61>
    42c7:	eb 47                	jmp    4310 <load_library+0xa8>
    42c9:	8b 45 ec             	mov    0xffffffec(%ebp),%eax
    42cc:	8b 84 85 e8 fb ff ff 	mov    0xfffffbe8(%ebp,%eax,4),%eax
    42d3:	89 85 e4 fb ff ff    	mov    %eax,0xfffffbe4(%ebp)
    42d9:	83 bd e4 fb ff ff 00 	cmpl   $0x0,0xfffffbe4(%ebp)
    42e0:	74 27                	je     4309 <load_library+0xa1>
    42e2:	83 ec 08             	sub    $0x8,%esp
    42e5:	ff b5 e4 fb ff ff    	pushl  0xfffffbe4(%ebp)
    42eb:	68 ba 85 00 00       	push   $0x85ba
    42f0:	e8 87 d5 ff ff       	call   187c <printf>
    42f5:	83 c4 10             	add    $0x10,%esp
    42f8:	83 ec 0c             	sub    $0xc,%esp
    42fb:	ff 75 f4             	pushl  0xfffffff4(%ebp)
    42fe:	8b 85 e4 fb ff ff    	mov    0xfffffbe4(%ebp),%eax
    4304:	ff d0                	call   *%eax
    4306:	83 c4 10             	add    $0x10,%esp
    4309:	8d 45 ec             	lea    0xffffffec(%ebp),%eax
    430c:	ff 00                	incl   (%eax)
    430e:	eb af                	jmp    42bf <load_library+0x57>
    4310:	8b 45 f4             	mov    0xfffffff4(%ebp),%eax
    4313:	89 85 e0 fb ff ff    	mov    %eax,0xfffffbe0(%ebp)
    4319:	8b 85 e0 fb ff ff    	mov    0xfffffbe0(%ebp),%eax
    431f:	c9                   	leave  
    4320:	c3                   	ret    

00004321 <unload_library>:
    4321:	55                   	push   %ebp
    4322:	89 e5                	mov    %esp,%ebp
    4324:	83 ec 08             	sub    $0x8,%esp
    4327:	83 ec 08             	sub    $0x8,%esp
    432a:	6a 00                	push   $0x0
    432c:	6a 00                	push   $0x0
    432e:	6a 00                	push   $0x0
    4330:	6a 00                	push   $0x0
    4332:	ff 75 08             	pushl  0x8(%ebp)
    4335:	6a 3d                	push   $0x3d
    4337:	e8 5e 02 00 00       	call   459a <__init_library+0xd8>
    433c:	83 c4 20             	add    $0x20,%esp
    433f:	89 45 fc             	mov    %eax,0xfffffffc(%ebp)
    4342:	8b 45 fc             	mov    0xfffffffc(%ebp),%eax
    4345:	c9                   	leave  
    4346:	c3                   	ret    

00004347 <dynamic_symbol>:
    4347:	55                   	push   %ebp
    4348:	89 e5                	mov    %esp,%ebp
    434a:	83 ec 18             	sub    $0x18,%esp
    434d:	c7 45 f8 00 00 00 00 	movl   $0x0,0xfffffff8(%ebp)
    4354:	83 ec 08             	sub    $0x8,%esp
    4357:	6a 00                	push   $0x0
    4359:	6a 00                	push   $0x0
    435b:	8d 45 f8             	lea    0xfffffff8(%ebp),%eax
    435e:	50                   	push   %eax
    435f:	ff 75 0c             	pushl  0xc(%ebp)
    4362:	ff 75 08             	pushl  0x8(%ebp)
    4365:	6a 3e                	push   $0x3e
    4367:	e8 2e 02 00 00       	call   459a <__init_library+0xd8>
    436c:	83 c4 20             	add    $0x20,%esp
    436f:	89 45 fc             	mov    %eax,0xfffffffc(%ebp)
    4372:	83 7d fc 00          	cmpl   $0x0,0xfffffffc(%ebp)
    4376:	79 09                	jns    4381 <dynamic_symbol+0x3a>
    4378:	c7 45 f4 00 00 00 00 	movl   $0x0,0xfffffff4(%ebp)
    437f:	eb 06                	jmp    4387 <dynamic_symbol+0x40>
    4381:	8b 45 f8             	mov    0xfffffff8(%ebp),%eax
    4384:	89 45 f4             	mov    %eax,0xfffffff4(%ebp)
    4387:	8b 45 f4             	mov    0xfffffff4(%ebp),%eax
    438a:	c9                   	leave  
    438b:	c3                   	ret    

0000438c <get_dynamic_module_info>:
    438c:	55                   	push   %ebp
    438d:	89 e5                	mov    %esp,%ebp
    438f:	83 ec 08             	sub    $0x8,%esp
    4392:	83 ec 08             	sub    $0x8,%esp
    4395:	6a 00                	push   $0x0
    4397:	6a 00                	push   $0x0
    4399:	6a 00                	push   $0x0
    439b:	ff 75 0c             	pushl  0xc(%ebp)
    439e:	ff 75 08             	pushl  0x8(%ebp)
    43a1:	6a 3f                	push   $0x3f
    43a3:	e8 f2 01 00 00       	call   459a <__init_library+0xd8>
    43a8:	83 c4 20             	add    $0x20,%esp
    43ab:	89 45 fc             	mov    %eax,0xfffffffc(%ebp)
    43ae:	8b 45 fc             	mov    0xfffffffc(%ebp),%eax
    43b1:	c9                   	leave  
    43b2:	c3                   	ret    

000043b3 <get_dynamic_dependencies>:
    43b3:	55                   	push   %ebp
    43b4:	89 e5                	mov    %esp,%ebp
    43b6:	83 ec 08             	sub    $0x8,%esp
    43b9:	83 ec 08             	sub    $0x8,%esp
    43bc:	6a 00                	push   $0x0
    43be:	6a 00                	push   $0x0
    43c0:	ff 75 10             	pushl  0x10(%ebp)
    43c3:	ff 75 0c             	pushl  0xc(%ebp)
    43c6:	ff 75 08             	pushl  0x8(%ebp)
    43c9:	6a 40                	push   $0x40
    43cb:	e8 ca 01 00 00       	call   459a <__init_library+0xd8>
    43d0:	83 c4 20             	add    $0x20,%esp
    43d3:	89 45 fc             	mov    %eax,0xfffffffc(%ebp)
    43d6:	8b 45 fc             	mov    0xfffffffc(%ebp),%eax
    43d9:	c9                   	leave  
    43da:	c3                   	ret    
    43db:	55                   	push   %ebp
    43dc:	89 e5                	mov    %esp,%ebp
    43de:	83 ec 18             	sub    $0x18,%esp
    43e1:	8b 45 08             	mov    0x8(%ebp),%eax
    43e4:	8b 00                	mov    (%eax),%eax
    43e6:	89 45 f8             	mov    %eax,0xfffffff8(%ebp)
    43e9:	8b 45 08             	mov    0x8(%ebp),%eax
    43ec:	8b 80 04 01 00 00    	mov    0x104(%eax),%eax
    43f2:	89 45 f4             	mov    %eax,0xfffffff4(%ebp)
    43f5:	8b 45 08             	mov    0x8(%ebp),%eax
    43f8:	8b 80 0c 01 00 00    	mov    0x10c(%eax),%eax
    43fe:	89 45 f0             	mov    %eax,0xfffffff0(%ebp)
    4401:	83 7d 0c 00          	cmpl   $0x0,0xc(%ebp)
    4405:	74 55                	je     445c <get_dynamic_dependencies+0xa9>
    4407:	8b 45 08             	mov    0x8(%ebp),%eax
    440a:	83 b8 28 01 00 00 00 	cmpl   $0x0,0x128(%eax)
    4411:	7e 49                	jle    445c <get_dynamic_dependencies+0xa9>
    4413:	8b 45 08             	mov    0x8(%ebp),%eax
    4416:	8b 80 24 01 00 00    	mov    0x124(%eax),%eax
    441c:	8b 00                	mov    (%eax),%eax
    441e:	89 45 ec             	mov    %eax,0xffffffec(%ebp)
    4421:	c7 45 fc 00 00 00 00 	movl   $0x0,0xfffffffc(%ebp)
    4428:	8b 55 08             	mov    0x8(%ebp),%edx
    442b:	8b 45 fc             	mov    0xfffffffc(%ebp),%eax
    442e:	3b 82 28 01 00 00    	cmp    0x128(%edx),%eax
    4434:	7c 02                	jl     4438 <get_dynamic_dependencies+0x85>
    4436:	eb 24                	jmp    445c <get_dynamic_dependencies+0xa9>
    4438:	83 ec 08             	sub    $0x8,%esp
    443b:	ff 75 f0             	pushl  0xfffffff0(%ebp)
    443e:	68 d3 85 00 00       	push   $0x85d3
    4443:	e8 34 d4 ff ff       	call   187c <printf>
    4448:	83 c4 10             	add    $0x10,%esp
    444b:	8b 45 ec             	mov    0xffffffec(%ebp),%eax
    444e:	ff d0                	call   *%eax
    4450:	8d 45 ec             	lea    0xffffffec(%ebp),%eax
    4453:	ff 00                	incl   (%eax)
    4455:	8d 45 fc             	lea    0xfffffffc(%ebp),%eax
    4458:	ff 00                	incl   (%eax)
    445a:	eb cc                	jmp    4428 <get_dynamic_dependencies+0x75>
    445c:	8b 45 f8             	mov    0xfffffff8(%ebp),%eax
    445f:	40                   	inc    %eax
    4460:	89 45 fc             	mov    %eax,0xfffffffc(%ebp)
    4463:	8b 45 fc             	mov    0xfffffffc(%ebp),%eax
    4466:	3b 45 f4             	cmp    0xfffffff4(%ebp),%eax
    4469:	7c 02                	jl     446d <get_dynamic_dependencies+0xba>
    446b:	eb 2c                	jmp    4499 <get_dynamic_dependencies+0xe6>
    446d:	83 ec 08             	sub    $0x8,%esp
    4470:	ff 75 08             	pushl  0x8(%ebp)
    4473:	ff 75 fc             	pushl  0xfffffffc(%ebp)
    4476:	e8 11 ff ff ff       	call   438c <get_dynamic_module_info>
    447b:	83 c4 10             	add    $0x10,%esp
    447e:	85 c0                	test   %eax,%eax
    4480:	75 10                	jne    4492 <get_dynamic_dependencies+0xdf>
    4482:	83 ec 08             	sub    $0x8,%esp
    4485:	6a 00                	push   $0x0
    4487:	ff 75 08             	pushl  0x8(%ebp)
    448a:	e8 4c ff ff ff       	call   43db <get_dynamic_dependencies+0x28>
    448f:	83 c4 10             	add    $0x10,%esp
    4492:	8d 45 fc             	lea    0xfffffffc(%ebp),%eax
    4495:	ff 00                	incl   (%eax)
    4497:	eb ca                	jmp    4463 <get_dynamic_dependencies+0xb0>
    4499:	83 7d f0 00          	cmpl   $0x0,0xfffffff0(%ebp)
    449d:	74 21                	je     44c0 <get_dynamic_dependencies+0x10d>
    449f:	83 ec 08             	sub    $0x8,%esp
    44a2:	ff 75 f0             	pushl  0xfffffff0(%ebp)
    44a5:	68 e7 85 00 00       	push   $0x85e7
    44aa:	e8 cd d3 ff ff       	call   187c <printf>
    44af:	83 c4 10             	add    $0x10,%esp
    44b2:	83 ec 0c             	sub    $0xc,%esp
    44b5:	ff 75 f8             	pushl  0xfffffff8(%ebp)
    44b8:	8b 45 f0             	mov    0xfffffff0(%ebp),%eax
    44bb:	ff d0                	call   *%eax
    44bd:	83 c4 10             	add    $0x10,%esp
    44c0:	c9                   	leave  
    44c1:	c3                   	ret    

000044c2 <__init_library>:
    44c2:	55                   	push   %ebp
    44c3:	89 e5                	mov    %esp,%ebp
    44c5:	81 ec 58 05 00 00    	sub    $0x558,%esp
    44cb:	83 ec 04             	sub    $0x4,%esp
    44ce:	68 fc 03 00 00       	push   $0x3fc
    44d3:	6a 00                	push   $0x0
    44d5:	8d 85 b8 fa ff ff    	lea    0xfffffab8(%ebp),%eax
    44db:	50                   	push   %eax
    44dc:	e8 23 e7 ff ff       	call   2c04 <memset>
    44e1:	83 c4 10             	add    $0x10,%esp
    44e4:	83 ec 04             	sub    $0x4,%esp
    44e7:	6a 00                	push   $0x0
    44e9:	8d 85 b8 fa ff ff    	lea    0xfffffab8(%ebp),%eax
    44ef:	50                   	push   %eax
    44f0:	6a 00                	push   $0x0
    44f2:	e8 bc fe ff ff       	call   43b3 <get_dynamic_dependencies>
    44f7:	83 c4 10             	add    $0x10,%esp
    44fa:	89 85 c4 fe ff ff    	mov    %eax,0xfffffec4(%ebp)
    4500:	c7 85 c0 fe ff ff 00 	movl   $0x0,0xfffffec0(%ebp)
    4507:	00 00 00 
    450a:	8b 85 c0 fe ff ff    	mov    0xfffffec0(%ebp),%eax
    4510:	3b 85 c4 fe ff ff    	cmp    0xfffffec4(%ebp),%eax
    4516:	7c 02                	jl     451a <__init_library+0x58>
    4518:	eb 36                	jmp    4550 <__init_library+0x8e>
    451a:	8b 85 c0 fe ff ff    	mov    0xfffffec0(%ebp),%eax
    4520:	8b 84 85 b8 fa ff ff 	mov    0xfffffab8(%ebp,%eax,4),%eax
    4527:	89 85 bc fe ff ff    	mov    %eax,0xfffffebc(%ebp)
    452d:	83 bd bc fe ff ff 00 	cmpl   $0x0,0xfffffebc(%ebp)
    4534:	74 10                	je     4546 <__init_library+0x84>
    4536:	83 ec 0c             	sub    $0xc,%esp
    4539:	6a 00                	push   $0x0
    453b:	8b 85 bc fe ff ff    	mov    0xfffffebc(%ebp),%eax
    4541:	ff d0                	call   *%eax
    4543:	83 c4 10             	add    $0x10,%esp
    4546:	8d 85 c0 fe ff ff    	lea    0xfffffec0(%ebp),%eax
    454c:	ff 00                	incl   (%eax)
    454e:	eb ba                	jmp    450a <__init_library+0x48>
    4550:	83 ec 08             	sub    $0x8,%esp
    4553:	8d 85 c8 fe ff ff    	lea    0xfffffec8(%ebp),%eax
    4559:	50                   	push   %eax
    455a:	6a 00                	push   $0x0
    455c:	e8 2b fe ff ff       	call   438c <get_dynamic_module_info>
    4561:	83 c4 10             	add    $0x10,%esp
    4564:	85 c0                	test   %eax,%eax
    4566:	75 20                	jne    4588 <__init_library+0xc6>
    4568:	83 ec 08             	sub    $0x8,%esp
    456b:	6a 01                	push   $0x1
    456d:	8d 85 c8 fe ff ff    	lea    0xfffffec8(%ebp),%eax
    4573:	50                   	push   %eax
    4574:	e8 62 fe ff ff       	call   43db <get_dynamic_dependencies+0x28>
    4579:	83 c4 10             	add    $0x10,%esp
    457c:	c7 85 b4 fa ff ff 00 	movl   $0x0,0xfffffab4(%ebp)
    4583:	00 00 00 
    4586:	eb 0a                	jmp    4592 <__init_library+0xd0>
    4588:	c7 85 b4 fa ff ff ff 	movl   $0xffffffff,0xfffffab4(%ebp)
    458f:	ff ff ff 
    4592:	8b 85 b4 fa ff ff    	mov    0xfffffab4(%ebp),%eax
    4598:	c9                   	leave  
    4599:	c3                   	ret    
    459a:	55                   	push   %ebp
    459b:	89 e5                	mov    %esp,%ebp
    459d:	57                   	push   %edi
    459e:	56                   	push   %esi
    459f:	53                   	push   %ebx
    45a0:	83 ec 04             	sub    $0x4,%esp
    45a3:	8b 45 08             	mov    0x8(%ebp),%eax
    45a6:	8b 5d 0c             	mov    0xc(%ebp),%ebx
    45a9:	8b 4d 10             	mov    0x10(%ebp),%ecx
    45ac:	8b 55 14             	mov    0x14(%ebp),%edx
    45af:	8b 75 18             	mov    0x18(%ebp),%esi
    45b2:	8b 7d 1c             	mov    0x1c(%ebp),%edi
    45b5:	cd 60                	int    $0x60
    45b7:	89 45 f0             	mov    %eax,0xfffffff0(%ebp)
    45ba:	8b 45 f0             	mov    0xfffffff0(%ebp),%eax
    45bd:	83 c4 04             	add    $0x4,%esp
    45c0:	5b                   	pop    %ebx
    45c1:	5e                   	pop    %esi
    45c2:	5f                   	pop    %edi
    45c3:	c9                   	leave  
    45c4:	c3                   	ret    
    45c5:	90                   	nop    
    45c6:	90                   	nop    
    45c7:	90                   	nop    

000045c8 <wcrtomb>:
    45c8:	55                   	push   %ebp
    45c9:	89 e5                	mov    %esp,%ebp
    45cb:	83 ec 38             	sub    $0x38,%esp
    45ce:	8b 45 0c             	mov    0xc(%ebp),%eax
    45d1:	66 89 45 f6          	mov    %ax,0xfffffff6(%ebp)
    45d5:	83 7d 08 00          	cmpl   $0x0,0x8(%ebp)
    45d9:	75 0c                	jne    45e7 <wcrtomb+0x1f>
    45db:	8d 45 d8             	lea    0xffffffd8(%ebp),%eax
    45de:	89 45 08             	mov    %eax,0x8(%ebp)
    45e1:	66 c7 45 f6 00 00    	movw   $0x0,0xfffffff6(%ebp)
    45e7:	8d 45 f4             	lea    0xfffffff4(%ebp),%eax
    45ea:	89 45 f0             	mov    %eax,0xfffffff0(%ebp)
    45ed:	66 8b 45 f6          	mov    0xfffffff6(%ebp),%ax
    45f1:	66 89 45 f4          	mov    %ax,0xfffffff4(%ebp)
    45f5:	83 ec 0c             	sub    $0xc,%esp
    45f8:	ff 75 10             	pushl  0x10(%ebp)
    45fb:	6a 10                	push   $0x10
    45fd:	6a 01                	push   $0x1
    45ff:	8d 45 f0             	lea    0xfffffff0(%ebp),%eax
    4602:	50                   	push   %eax
    4603:	ff 75 08             	pushl  0x8(%ebp)
    4606:	e8 45 00 00 00       	call   4650 <__wcsnrtombs>
    460b:	83 c4 20             	add    $0x20,%esp
    460e:	89 45 ec             	mov    %eax,0xffffffec(%ebp)
    4611:	8b 45 ec             	mov    0xffffffec(%ebp),%eax
    4614:	89 45 d4             	mov    %eax,0xffffffd4(%ebp)
    4617:	83 7d ec 00          	cmpl   $0x0,0xffffffec(%ebp)
    461b:	75 07                	jne    4624 <wcrtomb+0x5c>
    461d:	c7 45 d4 01 00 00 00 	movl   $0x1,0xffffffd4(%ebp)
    4624:	8b 45 d4             	mov    0xffffffd4(%ebp),%eax
    4627:	c9                   	leave  
    4628:	c3                   	ret    
    4629:	90                   	nop    
    462a:	90                   	nop    
    462b:	90                   	nop    

0000462c <wcsrtombs>:
    462c:	55                   	push   %ebp
    462d:	89 e5                	mov    %esp,%ebp
    462f:	83 ec 08             	sub    $0x8,%esp
    4632:	83 ec 0c             	sub    $0xc,%esp
    4635:	ff 75 14             	pushl  0x14(%ebp)
    4638:	ff 75 10             	pushl  0x10(%ebp)
    463b:	6a ff                	push   $0xffffffff
    463d:	ff 75 0c             	pushl  0xc(%ebp)
    4640:	ff 75 08             	pushl  0x8(%ebp)
    4643:	e8 08 00 00 00       	call   4650 <__wcsnrtombs>
    4648:	83 c4 20             	add    $0x20,%esp
    464b:	c9                   	leave  
    464c:	c3                   	ret    
    464d:	90                   	nop    
    464e:	90                   	nop    
    464f:	90                   	nop    

00004650 <__wcsnrtombs>:
    4650:	55                   	push   %ebp
    4651:	89 e5                	mov    %esp,%ebp
    4653:	83 ec 48             	sub    $0x48,%esp
    4656:	a1 e8 83 04 00       	mov    0x483e8,%eax
    465b:	80 b8 2c 09 00 00 01 	cmpb   $0x1,0x92c(%eax)
    4662:	75 1c                	jne    4680 <__wcsnrtombs+0x30>
    4664:	ff 75 10             	pushl  0x10(%ebp)
    4667:	ff 75 0c             	pushl  0xc(%ebp)
    466a:	ff 75 14             	pushl  0x14(%ebp)
    466d:	ff 75 08             	pushl  0x8(%ebp)
    4670:	e8 f7 2a 00 00       	call   716c <_wchar_wcsntoutf8s>
    4675:	83 c4 10             	add    $0x10,%esp
    4678:	89 45 cc             	mov    %eax,0xffffffcc(%ebp)
    467b:	e9 d0 01 00 00       	jmp    4850 <__wcsnrtombs+0x200>
    4680:	c7 45 ec 01 00 00 00 	movl   $0x1,0xffffffec(%ebp)
    4687:	83 7d 08 00          	cmpl   $0x0,0x8(%ebp)
    468b:	74 0a                	je     4697 <__wcsnrtombs+0x47>
    468d:	8b 45 08             	mov    0x8(%ebp),%eax
    4690:	3b 45 0c             	cmp    0xc(%ebp),%eax
    4693:	74 02                	je     4697 <__wcsnrtombs+0x47>
    4695:	eb 1a                	jmp    46b1 <__wcsnrtombs+0x61>
    4697:	83 7d 08 00          	cmpl   $0x0,0x8(%ebp)
    469b:	75 07                	jne    46a4 <__wcsnrtombs+0x54>
    469d:	c7 45 14 ff ff ff ff 	movl   $0xffffffff,0x14(%ebp)
    46a4:	8d 45 d8             	lea    0xffffffd8(%ebp),%eax
    46a7:	89 45 08             	mov    %eax,0x8(%ebp)
    46aa:	c7 45 ec 00 00 00 00 	movl   $0x0,0xffffffec(%ebp)
    46b1:	8b 45 14             	mov    0x14(%ebp),%eax
    46b4:	3b 45 10             	cmp    0x10(%ebp),%eax
    46b7:	76 06                	jbe    46bf <__wcsnrtombs+0x6f>
    46b9:	8b 45 10             	mov    0x10(%ebp),%eax
    46bc:	89 45 14             	mov    %eax,0x14(%ebp)
    46bf:	8b 45 14             	mov    0x14(%ebp),%eax
    46c2:	89 45 f0             	mov    %eax,0xfffffff0(%ebp)
    46c5:	8b 45 0c             	mov    0xc(%ebp),%eax
    46c8:	8b 00                	mov    (%eax),%eax
    46ca:	89 45 f4             	mov    %eax,0xfffffff4(%ebp)
    46cd:	a1 e8 83 04 00       	mov    0x483e8,%eax
    46d2:	80 b8 2c 09 00 00 02 	cmpb   $0x2,0x92c(%eax)
    46d9:	0f 85 04 01 00 00    	jne    47e3 <__wcsnrtombs+0x193>
    46df:	83 7d f0 00          	cmpl   $0x0,0xfffffff0(%ebp)
    46e3:	75 05                	jne    46ea <__wcsnrtombs+0x9a>
    46e5:	e9 da 00 00 00       	jmp    47c4 <__wcsnrtombs+0x174>
    46ea:	8b 45 f4             	mov    0xfffffff4(%ebp),%eax
    46ed:	8b 00                	mov    (%eax),%eax
    46ef:	89 45 d4             	mov    %eax,0xffffffd4(%ebp)
    46f2:	83 f8 7f             	cmp    $0x7f,%eax
    46f5:	77 1e                	ja     4715 <__wcsnrtombs+0xc5>
    46f7:	8b 45 08             	mov    0x8(%ebp),%eax
    46fa:	8a 55 d4             	mov    0xffffffd4(%ebp),%dl
    46fd:	88 10                	mov    %dl,(%eax)
    46ff:	8a 00                	mov    (%eax),%al
    4701:	84 c0                	test   %al,%al
    4703:	0f 85 a5 00 00 00    	jne    47ae <__wcsnrtombs+0x15e>
    4709:	c7 45 f4 00 00 00 00 	movl   $0x0,0xfffffff4(%ebp)
    4710:	e9 af 00 00 00       	jmp    47c4 <__wcsnrtombs+0x174>
    4715:	c7 45 d0 00 00 00 00 	movl   $0x0,0xffffffd0(%ebp)
    471c:	81 7d d4 ff 25 00 00 	cmpl   $0x25ff,0xffffffd4(%ebp)
    4723:	77 69                	ja     478e <__wcsnrtombs+0x13e>
    4725:	8b 0d e8 83 04 00    	mov    0x483e8,%ecx
    472b:	8b 45 d4             	mov    0xffffffd4(%ebp),%eax
    472e:	89 c2                	mov    %eax,%edx
    4730:	c1 ea 08             	shr    $0x8,%edx
    4733:	8b 81 50 09 00 00    	mov    0x950(%ecx),%eax
    4739:	0f b6 04 02          	movzbl (%edx,%eax,1),%eax
    473d:	89 45 d0             	mov    %eax,0xffffffd0(%ebp)
    4740:	8b 0d e8 83 04 00    	mov    0x483e8,%ecx
    4746:	8b 45 d0             	mov    0xffffffd0(%ebp),%eax
    4749:	89 c2                	mov    %eax,%edx
    474b:	c1 e2 04             	shl    $0x4,%edx
    474e:	8b 45 d4             	mov    0xffffffd4(%ebp),%eax
    4751:	c1 e8 04             	shr    $0x4,%eax
    4754:	83 e0 0f             	and    $0xf,%eax
    4757:	8d 04 10             	lea    (%eax,%edx,1),%eax
    475a:	03 81 54 09 00 00    	add    0x954(%ecx),%eax
    4760:	0f b6 00             	movzbl (%eax),%eax
    4763:	89 45 d0             	mov    %eax,0xffffffd0(%ebp)
    4766:	8b 0d e8 83 04 00    	mov    0x483e8,%ecx
    476c:	8b 45 d0             	mov    0xffffffd0(%ebp),%eax
    476f:	89 c2                	mov    %eax,%edx
    4771:	c1 e2 04             	shl    $0x4,%edx
    4774:	8b 45 d4             	mov    0xffffffd4(%ebp),%eax
    4777:	83 e0 0f             	and    $0xf,%eax
    477a:	8d 04 10             	lea    (%eax,%edx,1),%eax
    477d:	03 81 54 09 00 00    	add    0x954(%ecx),%eax
    4783:	05 30 04 00 00       	add    $0x430,%eax
    4788:	0f b6 00             	movzbl (%eax),%eax
    478b:	89 45 d0             	mov    %eax,0xffffffd0(%ebp)
    478e:	8b 45 08             	mov    0x8(%ebp),%eax
    4791:	89 45 c8             	mov    %eax,0xffffffc8(%ebp)
    4794:	83 7d d0 00          	cmpl   $0x0,0xffffffd0(%ebp)
    4798:	74 08                	je     47a2 <__wcsnrtombs+0x152>
    479a:	8a 55 d0             	mov    0xffffffd0(%ebp),%dl
    479d:	88 55 c7             	mov    %dl,0xffffffc7(%ebp)
    47a0:	eb 04                	jmp    47a6 <__wcsnrtombs+0x156>
    47a2:	c6 45 c7 3f          	movb   $0x3f,0xffffffc7(%ebp)
    47a6:	8a 45 c7             	mov    0xffffffc7(%ebp),%al
    47a9:	8b 55 c8             	mov    0xffffffc8(%ebp),%edx
    47ac:	88 02                	mov    %al,(%edx)
    47ae:	8d 45 f4             	lea    0xfffffff4(%ebp),%eax
    47b1:	83 00 04             	addl   $0x4,(%eax)
    47b4:	8b 45 ec             	mov    0xffffffec(%ebp),%eax
    47b7:	01 45 08             	add    %eax,0x8(%ebp)
    47ba:	8d 45 f0             	lea    0xfffffff0(%ebp),%eax
    47bd:	ff 08                	decl   (%eax)
    47bf:	e9 1b ff ff ff       	jmp    46df <__wcsnrtombs+0x8f>
    47c4:	8d 45 d8             	lea    0xffffffd8(%ebp),%eax
    47c7:	39 45 08             	cmp    %eax,0x8(%ebp)
    47ca:	74 08                	je     47d4 <__wcsnrtombs+0x184>
    47cc:	8b 55 0c             	mov    0xc(%ebp),%edx
    47cf:	8b 45 f4             	mov    0xfffffff4(%ebp),%eax
    47d2:	89 02                	mov    %eax,(%edx)
    47d4:	8b 45 f0             	mov    0xfffffff0(%ebp),%eax
    47d7:	8b 55 14             	mov    0x14(%ebp),%edx
    47da:	29 c2                	sub    %eax,%edx
    47dc:	89 d0                	mov    %edx,%eax
    47de:	89 45 cc             	mov    %eax,0xffffffcc(%ebp)
    47e1:	eb 6d                	jmp    4850 <__wcsnrtombs+0x200>
    47e3:	90                   	nop    
    47e4:	83 7d f0 00          	cmpl   $0x0,0xfffffff0(%ebp)
    47e8:	75 02                	jne    47ec <__wcsnrtombs+0x19c>
    47ea:	eb 47                	jmp    4833 <__wcsnrtombs+0x1e3>
    47ec:	8b 45 f4             	mov    0xfffffff4(%ebp),%eax
    47ef:	83 38 7f             	cmpl   $0x7f,(%eax)
    47f2:	76 13                	jbe    4807 <__wcsnrtombs+0x1b7>
    47f4:	c7 05 24 84 04 00 54 	movl   $0x54,0x48424
    47fb:	00 00 00 
    47fe:	c7 45 cc ff ff ff ff 	movl   $0xffffffff,0xffffffcc(%ebp)
    4805:	eb 49                	jmp    4850 <__wcsnrtombs+0x200>
    4807:	8b 55 08             	mov    0x8(%ebp),%edx
    480a:	8b 45 f4             	mov    0xfffffff4(%ebp),%eax
    480d:	8a 00                	mov    (%eax),%al
    480f:	88 02                	mov    %al,(%edx)
    4811:	8a 02                	mov    (%edx),%al
    4813:	84 c0                	test   %al,%al
    4815:	75 09                	jne    4820 <__wcsnrtombs+0x1d0>
    4817:	c7 45 f4 00 00 00 00 	movl   $0x0,0xfffffff4(%ebp)
    481e:	eb 13                	jmp    4833 <__wcsnrtombs+0x1e3>
    4820:	8d 45 f4             	lea    0xfffffff4(%ebp),%eax
    4823:	83 00 04             	addl   $0x4,(%eax)
    4826:	8b 45 ec             	mov    0xffffffec(%ebp),%eax
    4829:	01 45 08             	add    %eax,0x8(%ebp)
    482c:	8d 45 f0             	lea    0xfffffff0(%ebp),%eax
    482f:	ff 08                	decl   (%eax)
    4831:	eb b1                	jmp    47e4 <__wcsnrtombs+0x194>
    4833:	8d 45 d8             	lea    0xffffffd8(%ebp),%eax
    4836:	39 45 08             	cmp    %eax,0x8(%ebp)
    4839:	74 08                	je     4843 <__wcsnrtombs+0x1f3>
    483b:	8b 55 0c             	mov    0xc(%ebp),%edx
    483e:	8b 45 f4             	mov    0xfffffff4(%ebp),%eax
    4841:	89 02                	mov    %eax,(%edx)
    4843:	8b 45 f0             	mov    0xfffffff0(%ebp),%eax
    4846:	8b 55 14             	mov    0x14(%ebp),%edx
    4849:	29 c2                	sub    %eax,%edx
    484b:	89 d0                	mov    %edx,%eax
    484d:	89 45 cc             	mov    %eax,0xffffffcc(%ebp)
    4850:	8b 45 cc             	mov    0xffffffcc(%ebp),%eax
    4853:	c9                   	leave  
    4854:	c3                   	ret    
    4855:	90                   	nop    
    4856:	90                   	nop    
    4857:	90                   	nop    

00004858 <__strcasecmp_l>:
    4858:	55                   	push   %ebp
    4859:	89 e5                	mov    %esp,%ebp
    485b:	53                   	push   %ebx
    485c:	83 ec 04             	sub    $0x4,%esp
    485f:	c7 45 f8 00 00 00 00 	movl   $0x0,0xfffffff8(%ebp)
    4866:	8b 45 0c             	mov    0xc(%ebp),%eax
    4869:	39 45 08             	cmp    %eax,0x8(%ebp)
    486c:	74 3a                	je     48a8 <__strcasecmp_l+0x50>
    486e:	83 ec 08             	sub    $0x8,%esp
    4871:	ff 75 10             	pushl  0x10(%ebp)
    4874:	8b 55 08             	mov    0x8(%ebp),%edx
    4877:	0f b6 02             	movzbl (%edx),%eax
    487a:	50                   	push   %eax
    487b:	e8 78 2c 00 00       	call   74f8 <__tolower_l>
    4880:	83 c4 10             	add    $0x10,%esp
    4883:	89 c3                	mov    %eax,%ebx
    4885:	83 ec 08             	sub    $0x8,%esp
    4888:	ff 75 10             	pushl  0x10(%ebp)
    488b:	8b 55 0c             	mov    0xc(%ebp),%edx
    488e:	0f b6 02             	movzbl (%edx),%eax
    4891:	50                   	push   %eax
    4892:	e8 61 2c 00 00       	call   74f8 <__tolower_l>
    4897:	83 c4 10             	add    $0x10,%esp
    489a:	29 c3                	sub    %eax,%ebx
    489c:	89 d8                	mov    %ebx,%eax
    489e:	89 45 f8             	mov    %eax,0xfffffff8(%ebp)
    48a1:	8b 45 f8             	mov    0xfffffff8(%ebp),%eax
    48a4:	85 c0                	test   %eax,%eax
    48a6:	75 0f                	jne    48b7 <__strcasecmp_l+0x5f>
    48a8:	ff 45 0c             	incl   0xc(%ebp)
    48ab:	8b 55 08             	mov    0x8(%ebp),%edx
    48ae:	8a 02                	mov    (%edx),%al
    48b0:	ff 45 08             	incl   0x8(%ebp)
    48b3:	84 c0                	test   %al,%al
    48b5:	75 af                	jne    4866 <__strcasecmp_l+0xe>
    48b7:	8b 45 f8             	mov    0xfffffff8(%ebp),%eax
    48ba:	8b 5d fc             	mov    0xfffffffc(%ebp),%ebx
    48bd:	c9                   	leave  
    48be:	c3                   	ret    
    48bf:	90                   	nop    

000048c0 <_stdlib_strto_l_l>:
    48c0:	55                   	push   %ebp
    48c1:	89 e5                	mov    %esp,%ebp
    48c3:	83 ec 28             	sub    $0x28,%esp
    48c6:	8b 45 08             	mov    0x8(%ebp),%eax
    48c9:	89 45 f4             	mov    %eax,0xfffffff4(%ebp)
    48cc:	8b 4d 18             	mov    0x18(%ebp),%ecx
    48cf:	8b 55 08             	mov    0x8(%ebp),%edx
    48d2:	0f be 02             	movsbl (%edx),%eax
    48d5:	8d 14 00             	lea    (%eax,%eax,1),%edx
    48d8:	8b 01                	mov    (%ecx),%eax
    48da:	0f b7 04 10          	movzwl (%eax,%edx,1),%eax
    48de:	83 e0 20             	and    $0x20,%eax
    48e1:	85 c0                	test   %eax,%eax
    48e3:	75 02                	jne    48e7 <_stdlib_strto_l_l+0x27>
    48e5:	eb 05                	jmp    48ec <_stdlib_strto_l_l+0x2c>
    48e7:	ff 45 08             	incl   0x8(%ebp)
    48ea:	eb e0                	jmp    48cc <_stdlib_strto_l_l+0xc>
    48ec:	c6 45 f3 00          	movb   $0x0,0xfffffff3(%ebp)
    48f0:	8b 4d 08             	mov    0x8(%ebp),%ecx
    48f3:	0f be 09             	movsbl (%ecx),%ecx
    48f6:	89 4d e8             	mov    %ecx,0xffffffe8(%ebp)
    48f9:	83 7d e8 2b          	cmpl   $0x2b,0xffffffe8(%ebp)
    48fd:	74 0c                	je     490b <_stdlib_strto_l_l+0x4b>
    48ff:	83 7d e8 2d          	cmpl   $0x2d,0xffffffe8(%ebp)
    4903:	74 02                	je     4907 <_stdlib_strto_l_l+0x47>
    4905:	eb 07                	jmp    490e <_stdlib_strto_l_l+0x4e>
    4907:	c6 45 f3 01          	movb   $0x1,0xfffffff3(%ebp)
    490b:	ff 45 08             	incl   0x8(%ebp)
    490e:	8b 45 10             	mov    0x10(%ebp),%eax
    4911:	83 e0 ef             	and    $0xffffffef,%eax
    4914:	85 c0                	test   %eax,%eax
    4916:	75 41                	jne    4959 <_stdlib_strto_l_l+0x99>
    4918:	8d 45 10             	lea    0x10(%ebp),%eax
    491b:	83 00 0a             	addl   $0xa,(%eax)
    491e:	8b 45 08             	mov    0x8(%ebp),%eax
    4921:	80 38 30             	cmpb   $0x30,(%eax)
    4924:	75 26                	jne    494c <_stdlib_strto_l_l+0x8c>
    4926:	ff 45 08             	incl   0x8(%ebp)
    4929:	8b 55 08             	mov    0x8(%ebp),%edx
    492c:	89 55 f4             	mov    %edx,0xfffffff4(%ebp)
    492f:	8d 45 10             	lea    0x10(%ebp),%eax
    4932:	83 28 02             	subl   $0x2,(%eax)
    4935:	8b 4d 08             	mov    0x8(%ebp),%ecx
    4938:	8a 01                	mov    (%ecx),%al
    493a:	83 c8 20             	or     $0x20,%eax
    493d:	3c 78                	cmp    $0x78,%al
    493f:	75 0b                	jne    494c <_stdlib_strto_l_l+0x8c>
    4941:	ff 45 08             	incl   0x8(%ebp)
    4944:	8b 55 10             	mov    0x10(%ebp),%edx
    4947:	8d 45 10             	lea    0x10(%ebp),%eax
    494a:	01 10                	add    %edx,(%eax)
    494c:	83 7d 10 10          	cmpl   $0x10,0x10(%ebp)
    4950:	7e 07                	jle    4959 <_stdlib_strto_l_l+0x99>
    4952:	c7 45 10 10 00 00 00 	movl   $0x10,0x10(%ebp)
    4959:	c7 45 fc 00 00 00 00 	movl   $0x0,0xfffffffc(%ebp)
    4960:	8b 45 10             	mov    0x10(%ebp),%eax
    4963:	83 e8 02             	sub    $0x2,%eax
    4966:	83 f8 22             	cmp    $0x22,%eax
    4969:	0f 87 da 00 00 00    	ja     4a49 <_stdlib_strto_l_l+0x189>
    496f:	ba ff ff ff ff       	mov    $0xffffffff,%edx
    4974:	8d 45 10             	lea    0x10(%ebp),%eax
    4977:	89 45 d8             	mov    %eax,0xffffffd8(%ebp)
    497a:	89 d0                	mov    %edx,%eax
    497c:	8b 4d d8             	mov    0xffffffd8(%ebp),%ecx
    497f:	ba 00 00 00 00       	mov    $0x0,%edx
    4984:	f7 31                	divl   (%ecx)
    4986:	88 55 f1             	mov    %dl,0xfffffff1(%ebp)
    4989:	ba ff ff ff ff       	mov    $0xffffffff,%edx
    498e:	8d 45 10             	lea    0x10(%ebp),%eax
    4991:	89 45 d8             	mov    %eax,0xffffffd8(%ebp)
    4994:	89 d0                	mov    %edx,%eax
    4996:	8b 4d d8             	mov    0xffffffd8(%ebp),%ecx
    4999:	ba 00 00 00 00       	mov    $0x0,%edx
    499e:	f7 31                	divl   (%ecx)
    49a0:	89 45 d8             	mov    %eax,0xffffffd8(%ebp)
    49a3:	8b 45 d8             	mov    0xffffffd8(%ebp),%eax
    49a6:	89 45 f8             	mov    %eax,0xfffffff8(%ebp)
    49a9:	8b 55 08             	mov    0x8(%ebp),%edx
    49ac:	8a 02                	mov    (%edx),%al
    49ae:	83 e8 30             	sub    $0x30,%eax
    49b1:	3c 09                	cmp    $0x9,%al
    49b3:	77 0d                	ja     49c2 <_stdlib_strto_l_l+0x102>
    49b5:	8b 45 08             	mov    0x8(%ebp),%eax
    49b8:	8a 08                	mov    (%eax),%cl
    49ba:	83 e9 30             	sub    $0x30,%ecx
    49bd:	88 4d e7             	mov    %cl,0xffffffe7(%ebp)
    49c0:	eb 1d                	jmp    49df <_stdlib_strto_l_l+0x11f>
    49c2:	8b 55 08             	mov    0x8(%ebp),%edx
    49c5:	80 3a 40             	cmpb   $0x40,(%edx)
    49c8:	7e 11                	jle    49db <_stdlib_strto_l_l+0x11b>
    49ca:	8b 45 08             	mov    0x8(%ebp),%eax
    49cd:	8a 08                	mov    (%eax),%cl
    49cf:	83 c9 20             	or     $0x20,%ecx
    49d2:	88 4d e7             	mov    %cl,0xffffffe7(%ebp)
    49d5:	80 6d e7 57          	subb   $0x57,0xffffffe7(%ebp)
    49d9:	eb 04                	jmp    49df <_stdlib_strto_l_l+0x11f>
    49db:	c6 45 e7 28          	movb   $0x28,0xffffffe7(%ebp)
    49df:	8a 55 e7             	mov    0xffffffe7(%ebp),%dl
    49e2:	88 55 f2             	mov    %dl,0xfffffff2(%ebp)
    49e5:	0f b6 45 f2          	movzbl 0xfffffff2(%ebp),%eax
    49e9:	3b 45 10             	cmp    0x10(%ebp),%eax
    49ec:	7c 02                	jl     49f0 <_stdlib_strto_l_l+0x130>
    49ee:	eb 59                	jmp    4a49 <_stdlib_strto_l_l+0x189>
    49f0:	ff 45 08             	incl   0x8(%ebp)
    49f3:	8b 4d 08             	mov    0x8(%ebp),%ecx
    49f6:	89 4d f4             	mov    %ecx,0xfffffff4(%ebp)
    49f9:	8b 45 fc             	mov    0xfffffffc(%ebp),%eax
    49fc:	3b 45 f8             	cmp    0xfffffff8(%ebp),%eax
    49ff:	77 12                	ja     4a13 <_stdlib_strto_l_l+0x153>
    4a01:	8b 45 fc             	mov    0xfffffffc(%ebp),%eax
    4a04:	3b 45 f8             	cmp    0xfffffff8(%ebp),%eax
    4a07:	75 28                	jne    4a31 <_stdlib_strto_l_l+0x171>
    4a09:	8a 45 f2             	mov    0xfffffff2(%ebp),%al
    4a0c:	3a 45 f1             	cmp    0xfffffff1(%ebp),%al
    4a0f:	77 02                	ja     4a13 <_stdlib_strto_l_l+0x153>
    4a11:	eb 1e                	jmp    4a31 <_stdlib_strto_l_l+0x171>
    4a13:	c7 45 fc ff ff ff ff 	movl   $0xffffffff,0xfffffffc(%ebp)
    4a1a:	8a 55 14             	mov    0x14(%ebp),%dl
    4a1d:	8d 45 f3             	lea    0xfffffff3(%ebp),%eax
    4a20:	20 10                	and    %dl,(%eax)
    4a22:	c7 05 24 84 04 00 22 	movl   $0x22,0x48424
    4a29:	00 00 00 
    4a2c:	e9 78 ff ff ff       	jmp    49a9 <_stdlib_strto_l_l+0xe9>
    4a31:	8b 45 fc             	mov    0xfffffffc(%ebp),%eax
    4a34:	89 c2                	mov    %eax,%edx
    4a36:	0f af 55 10          	imul   0x10(%ebp),%edx
    4a3a:	0f b6 45 f2          	movzbl 0xfffffff2(%ebp),%eax
    4a3e:	8d 04 10             	lea    (%eax,%edx,1),%eax
    4a41:	89 45 fc             	mov    %eax,0xfffffffc(%ebp)
    4a44:	e9 60 ff ff ff       	jmp    49a9 <_stdlib_strto_l_l+0xe9>
    4a49:	83 7d 0c 00          	cmpl   $0x0,0xc(%ebp)
    4a4d:	74 08                	je     4a57 <_stdlib_strto_l_l+0x197>
    4a4f:	8b 55 0c             	mov    0xc(%ebp),%edx
    4a52:	8b 45 f4             	mov    0xfffffff4(%ebp),%eax
    4a55:	89 02                	mov    %eax,(%edx)
    4a57:	80 7d f3 00          	cmpb   $0x0,0xfffffff3(%ebp)
    4a5b:	74 09                	je     4a66 <_stdlib_strto_l_l+0x1a6>
    4a5d:	c7 45 e0 00 00 00 80 	movl   $0x80000000,0xffffffe0(%ebp)
    4a64:	eb 07                	jmp    4a6d <_stdlib_strto_l_l+0x1ad>
    4a66:	c7 45 e0 ff ff ff 7f 	movl   $0x7fffffff,0xffffffe0(%ebp)
    4a6d:	8b 45 e0             	mov    0xffffffe0(%ebp),%eax
    4a70:	89 45 ec             	mov    %eax,0xffffffec(%ebp)
    4a73:	83 7d 14 00          	cmpl   $0x0,0x14(%ebp)
    4a77:	74 18                	je     4a91 <_stdlib_strto_l_l+0x1d1>
    4a79:	8b 45 fc             	mov    0xfffffffc(%ebp),%eax
    4a7c:	3b 45 ec             	cmp    0xffffffec(%ebp),%eax
    4a7f:	76 10                	jbe    4a91 <_stdlib_strto_l_l+0x1d1>
    4a81:	8b 45 ec             	mov    0xffffffec(%ebp),%eax
    4a84:	89 45 fc             	mov    %eax,0xfffffffc(%ebp)
    4a87:	c7 05 24 84 04 00 22 	movl   $0x22,0x48424
    4a8e:	00 00 00 
    4a91:	80 7d f3 00          	cmpb   $0x0,0xfffffff3(%ebp)
    4a95:	74 0a                	je     4aa1 <_stdlib_strto_l_l+0x1e1>
    4a97:	8b 45 fc             	mov    0xfffffffc(%ebp),%eax
    4a9a:	f7 d8                	neg    %eax
    4a9c:	89 45 dc             	mov    %eax,0xffffffdc(%ebp)
    4a9f:	eb 06                	jmp    4aa7 <_stdlib_strto_l_l+0x1e7>
    4aa1:	8b 55 fc             	mov    0xfffffffc(%ebp),%edx
    4aa4:	89 55 dc             	mov    %edx,0xffffffdc(%ebp)
    4aa7:	8b 45 dc             	mov    0xffffffdc(%ebp),%eax
    4aaa:	c9                   	leave  
    4aab:	c3                   	ret    
    4aac:	55                   	push   %ebp
    4aad:	89 e5                	mov    %esp,%ebp
    4aaf:	53                   	push   %ebx
    4ab0:	83 ec 24             	sub    $0x24,%esp
    4ab3:	a1 ec 83 04 00       	mov    0x483ec,%eax
    4ab8:	05 22 0f 01 00       	add    $0x10f22,%eax
    4abd:	89 45 f8             	mov    %eax,0xfffffff8(%ebp)
    4ac0:	83 7d 08 00          	cmpl   $0x0,0x8(%ebp)
    4ac4:	75 14                	jne    4ada <_stdlib_strto_l_l+0x21a>
    4ac6:	8b 45 0c             	mov    0xc(%ebp),%eax
    4ac9:	66 c7 00 00 00       	movw   $0x0,(%eax)
    4ace:	c7 45 dc 01 00 00 00 	movl   $0x1,0xffffffdc(%ebp)
    4ad5:	e9 98 03 00 00       	jmp    4e72 <_stdlib_strto_l_l+0x5b2>
    4ada:	ff 4d 08             	decl   0x8(%ebp)
    4add:	8b 45 f8             	mov    0xfffffff8(%ebp),%eax
    4ae0:	89 45 f4             	mov    %eax,0xfffffff4(%ebp)
    4ae3:	8b 45 f4             	mov    0xfffffff4(%ebp),%eax
    4ae6:	0f b7 10             	movzwl (%eax),%edx
    4ae9:	89 d0                	mov    %edx,%eax
    4aeb:	c1 e0 03             	shl    $0x3,%eax
    4aee:	01 d0                	add    %edx,%eax
    4af0:	d1 e0                	shl    %eax
    4af2:	01 d0                	add    %edx,%eax
    4af4:	8d 14 00             	lea    (%eax,%eax,1),%edx
    4af7:	8b 45 08             	mov    0x8(%ebp),%eax
    4afa:	c1 e0 03             	shl    $0x3,%eax
    4afd:	8d 04 10             	lea    (%eax,%edx,1),%eax
    4b00:	83 c0 10             	add    $0x10,%eax
    4b03:	d1 e8                	shr    %eax
    4b05:	d1 e0                	shl    %eax
    4b07:	03 45 f8             	add    0xfffffff8(%ebp),%eax
    4b0a:	89 45 ec             	mov    %eax,0xffffffec(%ebp)
    4b0d:	8b 45 ec             	mov    0xffffffec(%ebp),%eax
    4b10:	0f b7 10             	movzwl (%eax),%edx
    4b13:	89 d0                	mov    %edx,%eax
    4b15:	c1 e0 03             	shl    $0x3,%eax
    4b18:	01 d0                	add    %edx,%eax
    4b1a:	d1 e0                	shl    %eax
    4b1c:	01 d0                	add    %edx,%eax
    4b1e:	d1 e0                	shl    %eax
    4b20:	83 c0 10             	add    $0x10,%eax
    4b23:	d1 e8                	shr    %eax
    4b25:	d1 e0                	shl    %eax
    4b27:	03 45 f8             	add    0xfffffff8(%ebp),%eax
    4b2a:	89 45 f0             	mov    %eax,0xfffffff0(%ebp)
    4b2d:	83 ec 04             	sub    $0x4,%esp
    4b30:	6a 1c                	push   $0x1c
    4b32:	ff 75 f0             	pushl  0xfffffff0(%ebp)
    4b35:	ff 75 0c             	pushl  0xc(%ebp)
    4b38:	e8 2f 20 00 00       	call   6b6c <memcpy>
    4b3d:	83 c4 10             	add    $0x10,%esp
    4b40:	8b 55 0c             	mov    0xc(%ebp),%edx
    4b43:	8b 45 ec             	mov    0xffffffec(%ebp),%eax
    4b46:	66 8b 40 02          	mov    0x2(%eax),%ax
    4b4a:	66 89 42 12          	mov    %ax,0x12(%edx)
    4b4e:	8b 55 0c             	mov    0xc(%ebp),%edx
    4b51:	8b 45 0c             	mov    0xc(%ebp),%eax
    4b54:	0f b7 48 06          	movzwl 0x6(%eax),%ecx
    4b58:	b8 01 00 00 00       	mov    $0x1,%eax
    4b5d:	d3 e0                	shl    %cl,%eax
    4b5f:	48                   	dec    %eax
    4b60:	66 89 42 1e          	mov    %ax,0x1e(%edx)
    4b64:	8b 55 0c             	mov    0xc(%ebp),%edx
    4b67:	8b 45 0c             	mov    0xc(%ebp),%eax
    4b6a:	0f b7 48 04          	movzwl 0x4(%eax),%ecx
    4b6e:	b8 01 00 00 00       	mov    $0x1,%eax
    4b73:	d3 e0                	shl    %cl,%eax
    4b75:	48                   	dec    %eax
    4b76:	66 89 42 1c          	mov    %ax,0x1c(%edx)
    4b7a:	8b 45 f4             	mov    0xfffffff4(%ebp),%eax
    4b7d:	0f b7 10             	movzwl (%eax),%edx
    4b80:	89 d0                	mov    %edx,%eax
    4b82:	c1 e0 03             	shl    $0x3,%eax
    4b85:	01 d0                	add    %edx,%eax
    4b87:	d1 e0                	shl    %eax
    4b89:	01 d0                	add    %edx,%eax
    4b8b:	8d 14 00             	lea    (%eax,%eax,1),%edx
    4b8e:	8b 45 f4             	mov    0xfffffff4(%ebp),%eax
    4b91:	0f b7 40 02          	movzwl 0x2(%eax),%eax
    4b95:	c1 e0 03             	shl    $0x3,%eax
    4b98:	8d 04 10             	lea    (%eax,%edx,1),%eax
    4b9b:	83 c0 10             	add    $0x10,%eax
    4b9e:	d1 e8                	shr    %eax
    4ba0:	89 45 e4             	mov    %eax,0xffffffe4(%ebp)
    4ba3:	8b 55 0c             	mov    0xc(%ebp),%edx
    4ba6:	8b 45 f0             	mov    0xfffffff0(%ebp),%eax
    4ba9:	0f b7 40 1c          	movzwl 0x1c(%eax),%eax
    4bad:	03 45 e4             	add    0xffffffe4(%ebp),%eax
    4bb0:	d1 e0                	shl    %eax
    4bb2:	03 45 f8             	add    0xfffffff8(%ebp),%eax
    4bb5:	89 42 20             	mov    %eax,0x20(%edx)
    4bb8:	8b 45 f4             	mov    0xfffffff4(%ebp),%eax
    4bbb:	0f b7 50 06          	movzwl 0x6(%eax),%edx
    4bbf:	8d 45 e4             	lea    0xffffffe4(%ebp),%eax
    4bc2:	01 10                	add    %edx,(%eax)
    4bc4:	8b 55 0c             	mov    0xc(%ebp),%edx
    4bc7:	8b 45 f0             	mov    0xfffffff0(%ebp),%eax
    4bca:	0f b7 40 1e          	movzwl 0x1e(%eax),%eax
    4bce:	03 45 e4             	add    0xffffffe4(%ebp),%eax
    4bd1:	d1 e0                	shl    %eax
    4bd3:	03 45 f8             	add    0xfffffff8(%ebp),%eax
    4bd6:	89 42 24             	mov    %eax,0x24(%edx)
    4bd9:	8b 45 f4             	mov    0xfffffff4(%ebp),%eax
    4bdc:	0f b7 50 06          	movzwl 0x6(%eax),%edx
    4be0:	8d 45 e4             	lea    0xffffffe4(%ebp),%eax
    4be3:	01 10                	add    %edx,(%eax)
    4be5:	8b 55 0c             	mov    0xc(%ebp),%edx
    4be8:	8b 45 ec             	mov    0xffffffec(%ebp),%eax
    4beb:	0f b7 40 06          	movzwl 0x6(%eax),%eax
    4bef:	03 45 e4             	add    0xffffffe4(%ebp),%eax
    4bf2:	d1 e0                	shl    %eax
    4bf4:	03 45 f8             	add    0xfffffff8(%ebp),%eax
    4bf7:	89 42 28             	mov    %eax,0x28(%edx)
    4bfa:	8b 45 f4             	mov    0xfffffff4(%ebp),%eax
    4bfd:	0f b7 50 0a          	movzwl 0xa(%eax),%edx
    4c01:	8d 45 e4             	lea    0xffffffe4(%ebp),%eax
    4c04:	01 10                	add    %edx,(%eax)
    4c06:	8b 55 0c             	mov    0xc(%ebp),%edx
    4c09:	8b 45 ec             	mov    0xffffffec(%ebp),%eax
    4c0c:	0f b7 40 04          	movzwl 0x4(%eax),%eax
    4c10:	03 45 e4             	add    0xffffffe4(%ebp),%eax
    4c13:	d1 e0                	shl    %eax
    4c15:	03 45 f8             	add    0xfffffff8(%ebp),%eax
    4c18:	89 42 30             	mov    %eax,0x30(%edx)
    4c1b:	8b 45 f4             	mov    0xfffffff4(%ebp),%eax
    4c1e:	0f b7 50 0c          	movzwl 0xc(%eax),%edx
    4c22:	8d 45 e4             	lea    0xffffffe4(%ebp),%eax
    4c25:	01 10                	add    %edx,(%eax)
    4c27:	8b 55 0c             	mov    0xc(%ebp),%edx
    4c2a:	8b 45 e4             	mov    0xffffffe4(%ebp),%eax
    4c2d:	d1 e0                	shl    %eax
    4c2f:	03 45 f8             	add    0xfffffff8(%ebp),%eax
    4c32:	89 42 38             	mov    %eax,0x38(%edx)
    4c35:	8b 45 f4             	mov    0xfffffff4(%ebp),%eax
    4c38:	0f b7 50 0e          	movzwl 0xe(%eax),%edx
    4c3c:	8d 45 e4             	lea    0xffffffe4(%ebp),%eax
    4c3f:	01 10                	add    %edx,(%eax)
    4c41:	8b 55 0c             	mov    0xc(%ebp),%edx
    4c44:	8b 45 e4             	mov    0xffffffe4(%ebp),%eax
    4c47:	d1 e0                	shl    %eax
    4c49:	03 45 f8             	add    0xfffffff8(%ebp),%eax
    4c4c:	89 42 34             	mov    %eax,0x34(%edx)
    4c4f:	8b 45 f4             	mov    0xfffffff4(%ebp),%eax
    4c52:	0f b7 50 08          	movzwl 0x8(%eax),%edx
    4c56:	8d 45 e4             	lea    0xffffffe4(%ebp),%eax
    4c59:	01 10                	add    %edx,(%eax)
    4c5b:	8b 4d 0c             	mov    0xc(%ebp),%ecx
    4c5e:	8b 45 f0             	mov    0xfffffff0(%ebp),%eax
    4c61:	0f b7 40 24          	movzwl 0x24(%eax),%eax
    4c65:	c1 e0 10             	shl    $0x10,%eax
    4c68:	89 c2                	mov    %eax,%edx
    4c6a:	03 55 e4             	add    0xffffffe4(%ebp),%edx
    4c6d:	8b 45 f0             	mov    0xfffffff0(%ebp),%eax
    4c70:	0f b7 40 22          	movzwl 0x22(%eax),%eax
    4c74:	8d 04 10             	lea    (%eax,%edx,1),%eax
    4c77:	d1 e0                	shl    %eax
    4c79:	03 45 f8             	add    0xfffffff8(%ebp),%eax
    4c7c:	89 41 2c             	mov    %eax,0x2c(%ecx)
    4c7f:	8b 55 0c             	mov    0xc(%ebp),%edx
    4c82:	8b 45 f4             	mov    0xfffffff4(%ebp),%eax
    4c85:	66 8b 40 04          	mov    0x4(%eax),%ax
    4c89:	66 89 42 44          	mov    %ax,0x44(%edx)
    4c8d:	8b 5d 0c             	mov    0xc(%ebp),%ebx
    4c90:	83 ec 08             	sub    $0x8,%esp
    4c93:	6a 02                	push   $0x2
    4c95:	8b 45 0c             	mov    0xc(%ebp),%eax
    4c98:	0f b7 40 10          	movzwl 0x10(%eax),%eax
    4c9c:	d1 e0                	shl    %eax
    4c9e:	83 c0 02             	add    $0x2,%eax
    4ca1:	50                   	push   %eax
    4ca2:	e8 cd 1f 00 00       	call   6c74 <calloc>
    4ca7:	83 c4 10             	add    $0x10,%esp
    4caa:	89 43 3c             	mov    %eax,0x3c(%ebx)
    4cad:	8b 45 0c             	mov    0xc(%ebp),%eax
    4cb0:	83 78 3c 00          	cmpl   $0x0,0x3c(%eax)
    4cb4:	75 0c                	jne    4cc2 <_stdlib_strto_l_l+0x402>
    4cb6:	c7 45 dc 00 00 00 00 	movl   $0x0,0xffffffdc(%ebp)
    4cbd:	e9 b0 01 00 00       	jmp    4e72 <_stdlib_strto_l_l+0x5b2>
    4cc2:	8b 4d 0c             	mov    0xc(%ebp),%ecx
    4cc5:	8b 55 0c             	mov    0xc(%ebp),%edx
    4cc8:	8b 45 0c             	mov    0xc(%ebp),%eax
    4ccb:	0f b7 40 10          	movzwl 0x10(%eax),%eax
    4ccf:	d1 e0                	shl    %eax
    4cd1:	03 42 3c             	add    0x3c(%edx),%eax
    4cd4:	83 c0 02             	add    $0x2,%eax
    4cd7:	89 41 40             	mov    %eax,0x40(%ecx)
    4cda:	83 ec 04             	sub    $0x4,%esp
    4cdd:	8b 45 0c             	mov    0xc(%ebp),%eax
    4ce0:	0f b7 40 0e          	movzwl 0xe(%eax),%eax
    4ce4:	d1 e0                	shl    %eax
    4ce6:	50                   	push   %eax
    4ce7:	8b 45 0c             	mov    0xc(%ebp),%eax
    4cea:	ff 70 20             	pushl  0x20(%eax)
    4ced:	8b 45 0c             	mov    0xc(%ebp),%eax
    4cf0:	ff 70 3c             	pushl  0x3c(%eax)
    4cf3:	e8 74 1e 00 00       	call   6b6c <memcpy>
    4cf8:	83 c4 10             	add    $0x10,%esp
    4cfb:	83 ec 04             	sub    $0x4,%esp
    4cfe:	8b 45 0c             	mov    0xc(%ebp),%eax
    4d01:	0f b7 40 0e          	movzwl 0xe(%eax),%eax
    4d05:	d1 e0                	shl    %eax
    4d07:	50                   	push   %eax
    4d08:	8b 45 0c             	mov    0xc(%ebp),%eax
    4d0b:	ff 70 24             	pushl  0x24(%eax)
    4d0e:	8b 45 0c             	mov    0xc(%ebp),%eax
    4d11:	ff 70 40             	pushl  0x40(%eax)
    4d14:	e8 53 1e 00 00       	call   6b6c <memcpy>
    4d19:	83 c4 10             	add    $0x10,%esp
    4d1c:	8b 45 0c             	mov    0xc(%ebp),%eax
    4d1f:	8b 40 30             	mov    0x30(%eax),%eax
    4d22:	89 45 e8             	mov    %eax,0xffffffe8(%ebp)
    4d25:	8b 45 e8             	mov    0xffffffe8(%ebp),%eax
    4d28:	66 83 38 01          	cmpw   $0x1,(%eax)
    4d2c:	77 02                	ja     4d30 <_stdlib_strto_l_l+0x470>
    4d2e:	eb 75                	jmp    4da5 <_stdlib_strto_l_l+0x4e5>
    4d30:	8b 45 e8             	mov    0xffffffe8(%ebp),%eax
    4d33:	0f b7 00             	movzwl (%eax),%eax
    4d36:	89 45 e4             	mov    %eax,0xffffffe4(%ebp)
    4d39:	8d 45 e8             	lea    0xffffffe8(%ebp),%eax
    4d3c:	83 00 02             	addl   $0x2,(%eax)
    4d3f:	8b 45 e8             	mov    0xffffffe8(%ebp),%eax
    4d42:	66 8b 00             	mov    (%eax),%ax
    4d45:	66 89 45 e0          	mov    %ax,0xffffffe0(%ebp)
    4d49:	8d 45 e8             	lea    0xffffffe8(%ebp),%eax
    4d4c:	83 00 02             	addl   $0x2,(%eax)
    4d4f:	8b 45 e8             	mov    0xffffffe8(%ebp),%eax
    4d52:	66 8b 00             	mov    (%eax),%ax
    4d55:	66 89 45 e2          	mov    %ax,0xffffffe2(%ebp)
    4d59:	8d 45 e8             	lea    0xffffffe8(%ebp),%eax
    4d5c:	83 00 02             	addl   $0x2,(%eax)
    4d5f:	8b 55 0c             	mov    0xc(%ebp),%edx
    4d62:	0f b7 45 e2          	movzwl 0xffffffe2(%ebp),%eax
    4d66:	d1 e0                	shl    %eax
    4d68:	03 42 3c             	add    0x3c(%edx),%eax
    4d6b:	8d 50 fe             	lea    0xfffffffe(%eax),%edx
    4d6e:	8b 45 e0             	mov    0xffffffe0(%ebp),%eax
    4d71:	66 89 02             	mov    %ax,(%edx)
    4d74:	8d 45 e0             	lea    0xffffffe0(%ebp),%eax
    4d77:	66 ff 00             	incw   (%eax)
    4d7a:	8b 55 0c             	mov    0xc(%ebp),%edx
    4d7d:	0f b7 45 e2          	movzwl 0xffffffe2(%ebp),%eax
    4d81:	d1 e0                	shl    %eax
    4d83:	03 42 40             	add    0x40(%edx),%eax
    4d86:	8d 50 fe             	lea    0xfffffffe(%eax),%edx
    4d89:	8b 45 e8             	mov    0xffffffe8(%ebp),%eax
    4d8c:	66 8b 00             	mov    (%eax),%ax
    4d8f:	66 89 02             	mov    %ax,(%edx)
    4d92:	8d 45 e8             	lea    0xffffffe8(%ebp),%eax
    4d95:	83 00 02             	addl   $0x2,(%eax)
    4d98:	8d 45 e4             	lea    0xffffffe4(%ebp),%eax
    4d9b:	ff 08                	decl   (%eax)
    4d9d:	83 7d e4 00          	cmpl   $0x0,0xffffffe4(%ebp)
    4da1:	75 ac                	jne    4d4f <_stdlib_strto_l_l+0x48f>
    4da3:	eb 80                	jmp    4d25 <_stdlib_strto_l_l+0x465>
    4da5:	90                   	nop    
    4da6:	8d 45 e8             	lea    0xffffffe8(%ebp),%eax
    4da9:	83 00 02             	addl   $0x2,(%eax)
    4dac:	8b 45 e8             	mov    0xffffffe8(%ebp),%eax
    4daf:	66 83 38 00          	cmpw   $0x0,(%eax)
    4db3:	75 02                	jne    4db7 <_stdlib_strto_l_l+0x4f7>
    4db5:	eb 48                	jmp    4dff <_stdlib_strto_l_l+0x53f>
    4db7:	8b 45 e8             	mov    0xffffffe8(%ebp),%eax
    4dba:	66 8b 00             	mov    (%eax),%ax
    4dbd:	66 89 45 e2          	mov    %ax,0xffffffe2(%ebp)
    4dc1:	8b 55 0c             	mov    0xc(%ebp),%edx
    4dc4:	0f b7 45 e2          	movzwl 0xffffffe2(%ebp),%eax
    4dc8:	d1 e0                	shl    %eax
    4dca:	03 42 3c             	add    0x3c(%edx),%eax
    4dcd:	8d 50 fe             	lea    0xfffffffe(%eax),%edx
    4dd0:	8d 45 e8             	lea    0xffffffe8(%ebp),%eax
    4dd3:	83 00 02             	addl   $0x2,(%eax)
    4dd6:	8b 45 e8             	mov    0xffffffe8(%ebp),%eax
    4dd9:	66 8b 00             	mov    (%eax),%ax
    4ddc:	66 89 02             	mov    %ax,(%edx)
    4ddf:	8b 55 0c             	mov    0xc(%ebp),%edx
    4de2:	0f b7 45 e2          	movzwl 0xffffffe2(%ebp),%eax
    4de6:	d1 e0                	shl    %eax
    4de8:	03 42 40             	add    0x40(%edx),%eax
    4deb:	8d 50 fe             	lea    0xfffffffe(%eax),%edx
    4dee:	8d 45 e8             	lea    0xffffffe8(%ebp),%eax
    4df1:	83 00 02             	addl   $0x2,(%eax)
    4df4:	8b 45 e8             	mov    0xffffffe8(%ebp),%eax
    4df7:	66 8b 00             	mov    (%eax),%ax
    4dfa:	66 89 02             	mov    %ax,(%edx)
    4dfd:	eb a7                	jmp    4da6 <_stdlib_strto_l_l+0x4e6>
    4dff:	66 c7 45 e2 00 00    	movw   $0x0,0xffffffe2(%ebp)
    4e05:	8b 45 0c             	mov    0xc(%ebp),%eax
    4e08:	8b 50 28             	mov    0x28(%eax),%edx
    4e0b:	66 8b 45 e2          	mov    0xffffffe2(%ebp),%ax
    4e0f:	66 3b 02             	cmp    (%edx),%ax
    4e12:	72 02                	jb     4e16 <_stdlib_strto_l_l+0x556>
    4e14:	eb 55                	jmp    4e6b <_stdlib_strto_l_l+0x5ab>
    4e16:	8b 45 0c             	mov    0xc(%ebp),%eax
    4e19:	8b 40 28             	mov    0x28(%eax),%eax
    4e1c:	89 45 e8             	mov    %eax,0xffffffe8(%ebp)
    4e1f:	0f b7 45 e2          	movzwl 0xffffffe2(%ebp),%eax
    4e23:	8d 14 00             	lea    (%eax,%eax,1),%edx
    4e26:	8b 45 e8             	mov    0xffffffe8(%ebp),%eax
    4e29:	0f b7 04 10          	movzwl (%eax,%edx,1),%eax
    4e2d:	8d 14 00             	lea    (%eax,%eax,1),%edx
    4e30:	8d 45 e8             	lea    0xffffffe8(%ebp),%eax
    4e33:	01 10                	add    %edx,(%eax)
    4e35:	8b 45 e8             	mov    0xffffffe8(%ebp),%eax
    4e38:	0f b7 00             	movzwl (%eax),%eax
    4e3b:	89 45 e4             	mov    %eax,0xffffffe4(%ebp)
    4e3e:	8d 45 e8             	lea    0xffffffe8(%ebp),%eax
    4e41:	83 00 02             	addl   $0x2,(%eax)
    4e44:	8b 45 e8             	mov    0xffffffe8(%ebp),%eax
    4e47:	66 83 38 00          	cmpw   $0x0,(%eax)
    4e4b:	75 02                	jne    4e4f <_stdlib_strto_l_l+0x58f>
    4e4d:	eb 14                	jmp    4e63 <_stdlib_strto_l_l+0x5a3>
    4e4f:	90                   	nop    
    4e50:	8b 45 e8             	mov    0xffffffe8(%ebp),%eax
    4e53:	89 c2                	mov    %eax,%edx
    4e55:	8d 45 e8             	lea    0xffffffe8(%ebp),%eax
    4e58:	83 00 02             	addl   $0x2,(%eax)
    4e5b:	66 83 3a 00          	cmpw   $0x0,(%edx)
    4e5f:	75 ef                	jne    4e50 <_stdlib_strto_l_l+0x590>
    4e61:	eb d2                	jmp    4e35 <_stdlib_strto_l_l+0x575>
    4e63:	8d 45 e2             	lea    0xffffffe2(%ebp),%eax
    4e66:	66 ff 00             	incw   (%eax)
    4e69:	eb 9a                	jmp    4e05 <_stdlib_strto_l_l+0x545>
    4e6b:	c7 45 dc 01 00 00 00 	movl   $0x1,0xffffffdc(%ebp)
    4e72:	8b 45 dc             	mov    0xffffffdc(%ebp),%eax
    4e75:	8b 5d fc             	mov    0xfffffffc(%ebp),%ebx
    4e78:	c9                   	leave  
    4e79:	c3                   	ret    

00004e7a <_locale_set_l>:
    4e7a:	55                   	push   %ebp
    4e7b:	89 e5                	mov    %esp,%ebp
    4e7d:	56                   	push   %esi
    4e7e:	53                   	push   %ebx
    4e7f:	81 ec a0 00 00 00    	sub    $0xa0,%esp
    4e85:	8b 45 0c             	mov    0xc(%ebp),%eax
    4e88:	05 0d 09 00 00       	add    $0x90d,%eax
    4e8d:	89 45 f0             	mov    %eax,0xfffffff0(%ebp)
    4e90:	c7 45 c8 00 00 00 00 	movl   $0x0,0xffffffc8(%ebp)
    4e97:	ff 45 08             	incl   0x8(%ebp)
    4e9a:	c7 45 b4 00 00 00 00 	movl   $0x0,0xffffffb4(%ebp)
    4ea1:	8b 45 08             	mov    0x8(%ebp),%eax
    4ea4:	83 c0 08             	add    $0x8,%eax
    4ea7:	8b 55 f0             	mov    0xfffffff0(%ebp),%edx
    4eaa:	83 c2 08             	add    $0x8,%edx
    4ead:	8a 00                	mov    (%eax),%al
    4eaf:	3a 02                	cmp    (%edx),%al
    4eb1:	75 17                	jne    4eca <_locale_set_l+0x50>
    4eb3:	8b 45 08             	mov    0x8(%ebp),%eax
    4eb6:	83 c0 09             	add    $0x9,%eax
    4eb9:	8b 55 f0             	mov    0xfffffff0(%ebp),%edx
    4ebc:	83 c2 09             	add    $0x9,%edx
    4ebf:	8a 00                	mov    (%eax),%al
    4ec1:	3a 02                	cmp    (%edx),%al
    4ec3:	75 05                	jne    4eca <_locale_set_l+0x50>
    4ec5:	e9 90 00 00 00       	jmp    4f5a <_locale_set_l+0xe0>
    4eca:	8b 45 08             	mov    0x8(%ebp),%eax
    4ecd:	0f b6 00             	movzbl (%eax),%eax
    4ed0:	83 e0 7f             	and    $0x7f,%eax
    4ed3:	89 c2                	mov    %eax,%edx
    4ed5:	c1 e2 07             	shl    $0x7,%edx
    4ed8:	8b 45 08             	mov    0x8(%ebp),%eax
    4edb:	40                   	inc    %eax
    4edc:	0f b6 00             	movzbl (%eax),%eax
    4edf:	83 e0 7f             	and    $0x7f,%eax
    4ee2:	8d 04 10             	lea    (%eax,%edx,1),%eax
    4ee5:	89 45 d8             	mov    %eax,0xffffffd8(%ebp)
    4ee8:	83 ec 08             	sub    $0x8,%esp
    4eeb:	8d 85 78 ff ff ff    	lea    0xffffff78(%ebp),%eax
    4ef1:	50                   	push   %eax
    4ef2:	8b 0d ec 83 04 00    	mov    0x483ec,%ecx
    4ef8:	8b 55 d8             	mov    0xffffffd8(%ebp),%edx
    4efb:	89 d0                	mov    %edx,%eax
    4efd:	c1 e0 03             	shl    $0x3,%eax
    4f00:	01 d0                	add    %edx,%eax
    4f02:	01 c8                	add    %ecx,%eax
    4f04:	05 97 d7 03 00       	add    $0x3d797,%eax
    4f09:	0f b6 40 04          	movzbl 0x4(%eax),%eax
    4f0d:	50                   	push   %eax
    4f0e:	e8 99 fb ff ff       	call   4aac <_stdlib_strto_l_l+0x1ec>
    4f13:	83 c4 10             	add    $0x10,%esp
    4f16:	85 c0                	test   %eax,%eax
    4f18:	75 0f                	jne    4f29 <_locale_set_l+0xaf>
    4f1a:	c7 85 68 ff ff ff 00 	movl   $0x0,0xffffff68(%ebp)
    4f21:	00 00 00 
    4f24:	e9 80 06 00 00       	jmp    55a9 <_locale_set_l+0x72f>
    4f29:	83 ec 0c             	sub    $0xc,%esp
    4f2c:	8b 45 0c             	mov    0xc(%ebp),%eax
    4f2f:	ff b0 18 0b 00 00    	pushl  0xb18(%eax)
    4f35:	e8 df e6 ff ff       	call   3619 <free>
    4f3a:	83 c4 10             	add    $0x10,%esp
    4f3d:	83 ec 04             	sub    $0x4,%esp
    4f40:	6a 48                	push   $0x48
    4f42:	8d 85 78 ff ff ff    	lea    0xffffff78(%ebp),%eax
    4f48:	50                   	push   %eax
    4f49:	8b 45 0c             	mov    0xc(%ebp),%eax
    4f4c:	05 dc 0a 00 00       	add    $0xadc,%eax
    4f51:	50                   	push   %eax
    4f52:	e8 15 1c 00 00       	call   6b6c <memcpy>
    4f57:	83 c4 10             	add    $0x10,%esp
    4f5a:	90                   	nop    
    4f5b:	8b 45 08             	mov    0x8(%ebp),%eax
    4f5e:	8b 55 f0             	mov    0xfffffff0(%ebp),%edx
    4f61:	8a 00                	mov    (%eax),%al
    4f63:	3a 02                	cmp    (%edx),%al
    4f65:	75 13                	jne    4f7a <_locale_set_l+0x100>
    4f67:	8b 45 08             	mov    0x8(%ebp),%eax
    4f6a:	40                   	inc    %eax
    4f6b:	8b 55 f0             	mov    0xfffffff0(%ebp),%edx
    4f6e:	42                   	inc    %edx
    4f6f:	8a 00                	mov    (%eax),%al
    4f71:	3a 02                	cmp    (%edx),%al
    4f73:	75 05                	jne    4f7a <_locale_set_l+0x100>
    4f75:	e9 0c 06 00 00       	jmp    5586 <_locale_set_l+0x70c>
    4f7a:	8b 45 08             	mov    0x8(%ebp),%eax
    4f7d:	0f b6 00             	movzbl (%eax),%eax
    4f80:	83 e0 7f             	and    $0x7f,%eax
    4f83:	89 c2                	mov    %eax,%edx
    4f85:	c1 e2 07             	shl    $0x7,%edx
    4f88:	8b 45 08             	mov    0x8(%ebp),%eax
    4f8b:	40                   	inc    %eax
    4f8c:	0f b6 00             	movzbl (%eax),%eax
    4f8f:	83 e0 7f             	and    $0x7f,%eax
    4f92:	8d 04 10             	lea    (%eax,%edx,1),%eax
    4f95:	89 45 d8             	mov    %eax,0xffffffd8(%ebp)
    4f98:	8b 55 f0             	mov    0xfffffff0(%ebp),%edx
    4f9b:	8b 45 08             	mov    0x8(%ebp),%eax
    4f9e:	8a 00                	mov    (%eax),%al
    4fa0:	88 02                	mov    %al,(%edx)
    4fa2:	8b 55 f0             	mov    0xfffffff0(%ebp),%edx
    4fa5:	42                   	inc    %edx
    4fa6:	8b 45 08             	mov    0x8(%ebp),%eax
    4fa9:	40                   	inc    %eax
    4faa:	8a 00                	mov    (%eax),%al
    4fac:	88 02                	mov    %al,(%edx)
    4fae:	83 7d c8 04          	cmpl   $0x4,0xffffffc8(%ebp)
    4fb2:	0f 84 07 01 00 00    	je     50bf <_locale_set_l+0x245>
    4fb8:	a1 ec 83 04 00       	mov    0x483ec,%eax
    4fbd:	03 45 c8             	add    0xffffffc8(%ebp),%eax
    4fc0:	05 20 d7 03 00       	add    $0x3d720,%eax
    4fc5:	0f b6 40 0c          	movzbl 0xc(%eax),%eax
    4fc9:	89 45 d0             	mov    %eax,0xffffffd0(%ebp)
    4fcc:	8b 45 d0             	mov    0xffffffd0(%ebp),%eax
    4fcf:	85 c0                	test   %eax,%eax
    4fd1:	0f 84 e8 00 00 00    	je     50bf <_locale_set_l+0x245>
    4fd7:	8b 0d ec 83 04 00    	mov    0x483ec,%ecx
    4fdd:	8b 55 d8             	mov    0xffffffd8(%ebp),%edx
    4fe0:	89 d0                	mov    %edx,%eax
    4fe2:	c1 e0 03             	shl    $0x3,%eax
    4fe5:	01 d0                	add    %edx,%eax
    4fe7:	03 45 c8             	add    0xffffffc8(%ebp),%eax
    4fea:	01 c8                	add    %ecx,%eax
    4fec:	05 93 d7 03 00       	add    $0x3d793,%eax
    4ff1:	0f b6 40 04          	movzbl 0x4(%eax),%eax
    4ff5:	0f af 45 d0          	imul   0xffffffd0(%ebp),%eax
    4ff9:	89 45 d4             	mov    %eax,0xffffffd4(%ebp)
    4ffc:	8b 55 0c             	mov    0xc(%ebp),%edx
    4fff:	8b 45 c8             	mov    0xffffffc8(%ebp),%eax
    5002:	0f b7 84 42 1a 09 00 	movzwl 0x91a(%edx,%eax,2),%eax
    5009:	00 
    500a:	03 45 0c             	add    0xc(%ebp),%eax
    500d:	89 45 f4             	mov    %eax,0xfffffff4(%ebp)
    5010:	8b 45 c8             	mov    0xffffffc8(%ebp),%eax
    5013:	c1 e0 04             	shl    $0x4,%eax
    5016:	03 05 ec 83 04 00    	add    0x483ec,%eax
    501c:	05 34 d7 03 00       	add    $0x3d734,%eax
    5021:	89 45 ec             	mov    %eax,0xffffffec(%ebp)
    5024:	8b 45 ec             	mov    0xffffffec(%ebp),%eax
    5027:	8b 00                	mov    (%eax),%eax
    5029:	03 05 ec 83 04 00    	add    0x483ec,%eax
    502f:	89 45 e8             	mov    %eax,0xffffffe8(%ebp)
    5032:	8d 45 ec             	lea    0xffffffec(%ebp),%eax
    5035:	83 00 04             	addl   $0x4,(%eax)
    5038:	8b 45 ec             	mov    0xffffffec(%ebp),%eax
    503b:	8b 00                	mov    (%eax),%eax
    503d:	03 05 ec 83 04 00    	add    0x483ec,%eax
    5043:	89 45 e4             	mov    %eax,0xffffffe4(%ebp)
    5046:	8d 45 ec             	lea    0xffffffec(%ebp),%eax
    5049:	83 00 04             	addl   $0x4,(%eax)
    504c:	8b 45 ec             	mov    0xffffffec(%ebp),%eax
    504f:	8b 00                	mov    (%eax),%eax
    5051:	03 05 ec 83 04 00    	add    0x483ec,%eax
    5057:	89 45 e0             	mov    %eax,0xffffffe0(%ebp)
    505a:	8d 45 ec             	lea    0xffffffec(%ebp),%eax
    505d:	83 00 04             	addl   $0x4,(%eax)
    5060:	8b 45 ec             	mov    0xffffffec(%ebp),%eax
    5063:	8b 00                	mov    (%eax),%eax
    5065:	03 05 ec 83 04 00    	add    0x483ec,%eax
    506b:	89 45 dc             	mov    %eax,0xffffffdc(%ebp)
    506e:	c7 45 cc 00 00 00 00 	movl   $0x0,0xffffffcc(%ebp)
    5075:	8b 45 cc             	mov    0xffffffcc(%ebp),%eax
    5078:	3b 45 d0             	cmp    0xffffffd0(%ebp),%eax
    507b:	7c 02                	jl     507f <_locale_set_l+0x205>
    507d:	eb 40                	jmp    50bf <_locale_set_l+0x245>
    507f:	8b 45 cc             	mov    0xffffffcc(%ebp),%eax
    5082:	8d 1c 85 00 00 00 00 	lea    0x0(,%eax,4),%ebx
    5089:	8b 75 f4             	mov    0xfffffff4(%ebp),%esi
    508c:	8b 45 cc             	mov    0xffffffcc(%ebp),%eax
    508f:	03 45 d4             	add    0xffffffd4(%ebp),%eax
    5092:	03 45 e8             	add    0xffffffe8(%ebp),%eax
    5095:	0f b6 08             	movzbl (%eax),%ecx
    5098:	8b 45 cc             	mov    0xffffffcc(%ebp),%eax
    509b:	8d 14 00             	lea    (%eax,%eax,1),%edx
    509e:	8b 45 e4             	mov    0xffffffe4(%ebp),%eax
    50a1:	0f b7 04 10          	movzwl (%eax,%edx,1),%eax
    50a5:	8d 04 08             	lea    (%eax,%ecx,1),%eax
    50a8:	8d 14 00             	lea    (%eax,%eax,1),%edx
    50ab:	8b 45 e0             	mov    0xffffffe0(%ebp),%eax
    50ae:	0f b7 04 10          	movzwl (%eax,%edx,1),%eax
    50b2:	03 45 dc             	add    0xffffffdc(%ebp),%eax
    50b5:	89 04 1e             	mov    %eax,(%esi,%ebx,1)
    50b8:	8d 45 cc             	lea    0xffffffcc(%ebp),%eax
    50bb:	ff 00                	incl   (%eax)
    50bd:	eb b6                	jmp    5075 <_locale_set_l+0x1fb>
    50bf:	83 7d c8 00          	cmpl   $0x0,0xffffffc8(%ebp)
    50c3:	0f 85 39 04 00 00    	jne    5502 <_locale_set_l+0x688>
    50c9:	8b 0d ec 83 04 00    	mov    0x483ec,%ecx
    50cf:	8b 55 d8             	mov    0xffffffd8(%ebp),%edx
    50d2:	89 d0                	mov    %edx,%eax
    50d4:	c1 e0 03             	shl    $0x3,%eax
    50d7:	01 d0                	add    %edx,%eax
    50d9:	01 c8                	add    %ecx,%eax
    50db:	05 92 d7 03 00       	add    $0x3d792,%eax
    50e0:	0f b6 40 04          	movzbl 0x4(%eax),%eax
    50e4:	89 45 cc             	mov    %eax,0xffffffcc(%ebp)
    50e7:	83 7d cc 02          	cmpl   $0x2,0xffffffcc(%ebp)
    50eb:	7f 52                	jg     513f <_locale_set_l+0x2c5>
    50ed:	83 7d cc 02          	cmpl   $0x2,0xffffffcc(%ebp)
    50f1:	75 26                	jne    5119 <_locale_set_l+0x29f>
    50f3:	8b 45 0c             	mov    0xc(%ebp),%eax
    50f6:	c7 80 9c 09 00 00 00 	movl   $0x8600,0x99c(%eax)
    50fd:	86 00 00 
    5100:	8b 45 0c             	mov    0xc(%ebp),%eax
    5103:	c6 80 2c 09 00 00 01 	movb   $0x1,0x92c(%eax)
    510a:	8b 45 0c             	mov    0xc(%ebp),%eax
    510d:	c6 80 2d 09 00 00 06 	movb   $0x6,0x92d(%eax)
    5114:	e9 95 03 00 00       	jmp    54ae <_locale_set_l+0x634>
    5119:	8b 45 0c             	mov    0xc(%ebp),%eax
    511c:	c7 80 9c 09 00 00 06 	movl   $0x8606,0x99c(%eax)
    5123:	86 00 00 
    5126:	8b 45 0c             	mov    0xc(%ebp),%eax
    5129:	c6 80 2c 09 00 00 00 	movb   $0x0,0x92c(%eax)
    5130:	8b 45 0c             	mov    0xc(%ebp),%eax
    5133:	c6 80 2d 09 00 00 01 	movb   $0x1,0x92d(%eax)
    513a:	e9 6f 03 00 00       	jmp    54ae <_locale_set_l+0x634>
    513f:	a1 ec 83 04 00       	mov    0x483ec,%eax
    5144:	05 38 e6 03 00       	add    $0x3e638,%eax
    5149:	89 45 e8             	mov    %eax,0xffffffe8(%ebp)
    514c:	8b 4d 0c             	mov    0xc(%ebp),%ecx
    514f:	8d 45 cc             	lea    0xffffffcc(%ebp),%eax
    5152:	83 28 03             	subl   $0x3,(%eax)
    5155:	8b 55 cc             	mov    0xffffffcc(%ebp),%edx
    5158:	8b 45 e8             	mov    0xffffffe8(%ebp),%eax
    515b:	0f b6 04 02          	movzbl (%edx,%eax,1),%eax
    515f:	03 45 e8             	add    0xffffffe8(%ebp),%eax
    5162:	89 81 9c 09 00 00    	mov    %eax,0x99c(%ecx)
    5168:	8b 45 0c             	mov    0xc(%ebp),%eax
    516b:	c6 80 2c 09 00 00 02 	movb   $0x2,0x92c(%eax)
    5172:	8b 45 0c             	mov    0xc(%ebp),%eax
    5175:	c6 80 2d 09 00 00 01 	movb   $0x1,0x92d(%eax)
    517c:	8b 55 cc             	mov    0xffffffcc(%ebp),%edx
    517f:	89 d0                	mov    %edx,%eax
    5181:	c1 e0 02             	shl    $0x2,%eax
    5184:	01 d0                	add    %edx,%eax
    5186:	c1 e0 02             	shl    $0x2,%eax
    5189:	01 d0                	add    %edx,%eax
    518b:	d1 e0                	shl    %eax
    518d:	01 d0                	add    %edx,%eax
    518f:	d1 e0                	shl    %eax
    5191:	03 05 ec 83 04 00    	add    0x483ec,%eax
    5197:	05 c2 b5 00 00       	add    $0xb5c2,%eax
    519c:	89 85 74 ff ff ff    	mov    %eax,0xffffff74(%ebp)
    51a2:	8b 55 0c             	mov    0xc(%ebp),%edx
    51a5:	8b 85 74 ff ff ff    	mov    0xffffff74(%ebp),%eax
    51ab:	89 82 38 09 00 00    	mov    %eax,0x938(%edx)
    51b1:	8b 55 0c             	mov    0xc(%ebp),%edx
    51b4:	8b 85 74 ff ff ff    	mov    0xffffff74(%ebp),%eax
    51ba:	83 c0 10             	add    $0x10,%eax
    51bd:	89 82 40 09 00 00    	mov    %eax,0x940(%edx)
    51c3:	8b 55 0c             	mov    0xc(%ebp),%edx
    51c6:	8b 85 74 ff ff ff    	mov    0xffffff74(%ebp),%eax
    51cc:	83 c0 20             	add    $0x20,%eax
    51cf:	89 82 48 09 00 00    	mov    %eax,0x948(%edx)
    51d5:	8b 55 0c             	mov    0xc(%ebp),%edx
    51d8:	8b 85 74 ff ff ff    	mov    0xffffff74(%ebp),%eax
    51de:	83 c0 30             	add    $0x30,%eax
    51e1:	89 82 50 09 00 00    	mov    %eax,0x950(%edx)
    51e7:	83 ec 04             	sub    $0x4,%esp
    51ea:	68 00 03 00 00       	push   $0x300
    51ef:	a1 f0 83 04 00       	mov    0x483f0,%eax
    51f4:	2d 00 01 00 00       	sub    $0x100,%eax
    51f9:	50                   	push   %eax
    51fa:	8b 45 0c             	mov    0xc(%ebp),%eax
    51fd:	83 c0 0c             	add    $0xc,%eax
    5200:	50                   	push   %eax
    5201:	e8 66 19 00 00       	call   6b6c <memcpy>
    5206:	83 c4 10             	add    $0x10,%esp
    5209:	83 ec 04             	sub    $0x4,%esp
    520c:	68 00 03 00 00       	push   $0x300
    5211:	a1 f4 83 04 00       	mov    0x483f4,%eax
    5216:	2d 00 01 00 00       	sub    $0x100,%eax
    521b:	50                   	push   %eax
    521c:	8b 45 0c             	mov    0xc(%ebp),%eax
    521f:	05 0c 03 00 00       	add    $0x30c,%eax
    5224:	50                   	push   %eax
    5225:	e8 42 19 00 00       	call   6b6c <memcpy>
    522a:	83 c4 10             	add    $0x10,%esp
    522d:	83 ec 04             	sub    $0x4,%esp
    5230:	68 00 03 00 00       	push   $0x300
    5235:	a1 f8 83 04 00       	mov    0x483f8,%eax
    523a:	2d 00 01 00 00       	sub    $0x100,%eax
    523f:	50                   	push   %eax
    5240:	8b 45 0c             	mov    0xc(%ebp),%eax
    5243:	05 0c 06 00 00       	add    $0x60c,%eax
    5248:	50                   	push   %eax
    5249:	e8 1e 19 00 00       	call   6b6c <memcpy>
    524e:	83 c4 10             	add    $0x10,%esp
    5251:	c7 85 70 ff ff ff 00 	movl   $0x0,0xffffff70(%ebp)
    5258:	00 00 00 
    525b:	83 bd 70 ff ff ff 7f 	cmpl   $0x7f,0xffffff70(%ebp)
    5262:	7e 05                	jle    5269 <_locale_set_l+0x3ef>
    5264:	e9 1c 02 00 00       	jmp    5485 <_locale_set_l+0x60b>
    5269:	8b 4d 0c             	mov    0xc(%ebp),%ecx
    526c:	8b 95 74 ff ff ff    	mov    0xffffff74(%ebp),%edx
    5272:	8b 85 70 ff ff ff    	mov    0xffffff70(%ebp),%eax
    5278:	c1 f8 03             	sar    $0x3,%eax
    527b:	0f b6 04 02          	movzbl (%edx,%eax,1),%eax
    527f:	8d 14 85 00 00 00 00 	lea    0x0(,%eax,4),%edx
    5286:	8b 85 70 ff ff ff    	mov    0xffffff70(%ebp),%eax
    528c:	83 e0 07             	and    $0x7,%eax
    528f:	d1 f8                	sar    %eax
    5291:	8d 04 10             	lea    (%eax,%edx,1),%eax
    5294:	03 81 3c 09 00 00    	add    0x93c(%ecx),%eax
    529a:	0f b6 00             	movzbl (%eax),%eax
    529d:	89 45 cc             	mov    %eax,0xffffffcc(%ebp)
    52a0:	8b 85 70 ff ff ff    	mov    0xffffff70(%ebp),%eax
    52a6:	83 e0 01             	and    $0x1,%eax
    52a9:	85 c0                	test   %eax,%eax
    52ab:	74 0e                	je     52bb <_locale_set_l+0x441>
    52ad:	8b 45 cc             	mov    0xffffffcc(%ebp),%eax
    52b0:	c1 f8 04             	sar    $0x4,%eax
    52b3:	89 85 64 ff ff ff    	mov    %eax,0xffffff64(%ebp)
    52b9:	eb 0c                	jmp    52c7 <_locale_set_l+0x44d>
    52bb:	8b 45 cc             	mov    0xffffffcc(%ebp),%eax
    52be:	83 e0 0f             	and    $0xf,%eax
    52c1:	89 85 64 ff ff ff    	mov    %eax,0xffffff64(%ebp)
    52c7:	8b 85 64 ff ff ff    	mov    0xffffff64(%ebp),%eax
    52cd:	89 45 cc             	mov    %eax,0xffffffcc(%ebp)
    52d0:	8b 4d 0c             	mov    0xc(%ebp),%ecx
    52d3:	8b 45 cc             	mov    0xffffffcc(%ebp),%eax
    52d6:	8d 14 00             	lea    (%eax,%eax,1),%edx
    52d9:	8b 81 58 09 00 00    	mov    0x958(%ecx),%eax
    52df:	66 8b 04 10          	mov    (%eax,%edx,1),%ax
    52e3:	66 89 85 6e ff ff ff 	mov    %ax,0xffffff6e(%ebp)
    52ea:	8b 4d 0c             	mov    0xc(%ebp),%ecx
    52ed:	8b 95 70 ff ff ff    	mov    0xffffff70(%ebp),%edx
    52f3:	66 8b 85 6e ff ff ff 	mov    0xffffff6e(%ebp),%ax
    52fa:	66 89 84 51 0c 02 00 	mov    %ax,0x20c(%ecx,%edx,2)
    5301:	00 
    5302:	b0 80                	mov    $0x80,%al
    5304:	03 85 70 ff ff ff    	add    0xffffff70(%ebp),%eax
    530a:	3c ff                	cmp    $0xff,%al
    530c:	74 1d                	je     532b <_locale_set_l+0x4b1>
    530e:	8b 4d 0c             	mov    0xc(%ebp),%ecx
    5311:	b0 80                	mov    $0x80,%al
    5313:	03 85 70 ff ff ff    	add    0xffffff70(%ebp),%eax
    5319:	0f be d0             	movsbl %al,%edx
    531c:	66 8b 85 6e ff ff ff 	mov    0xffffff6e(%ebp),%ax
    5323:	66 89 84 51 0c 01 00 	mov    %ax,0x10c(%ecx,%edx,2)
    532a:	00 
    532b:	8b 4d 0c             	mov    0xc(%ebp),%ecx
    532e:	8b 95 70 ff ff ff    	mov    0xffffff70(%ebp),%edx
    5334:	8b 85 70 ff ff ff    	mov    0xffffff70(%ebp),%eax
    533a:	83 e8 80             	sub    $0xffffff80,%eax
    533d:	66 89 84 51 0c 05 00 	mov    %ax,0x50c(%ecx,%edx,2)
    5344:	00 
    5345:	8b 4d 0c             	mov    0xc(%ebp),%ecx
    5348:	8b 95 70 ff ff ff    	mov    0xffffff70(%ebp),%edx
    534e:	8b 85 70 ff ff ff    	mov    0xffffff70(%ebp),%eax
    5354:	83 e8 80             	sub    $0xffffff80,%eax
    5357:	66 89 84 51 0c 08 00 	mov    %ax,0x80c(%ecx,%edx,2)
    535e:	00 
    535f:	0f b7 85 6e ff ff ff 	movzwl 0xffffff6e(%ebp),%eax
    5366:	83 e0 03             	and    $0x3,%eax
    5369:	85 c0                	test   %eax,%eax
    536b:	0f 84 07 01 00 00    	je     5478 <_locale_set_l+0x5fe>
    5371:	8b 4d 0c             	mov    0xc(%ebp),%ecx
    5374:	8b 95 74 ff ff ff    	mov    0xffffff74(%ebp),%edx
    537a:	8b 85 70 ff ff ff    	mov    0xffffff70(%ebp),%eax
    5380:	c1 f8 03             	sar    $0x3,%eax
    5383:	0f b6 44 10 10       	movzbl 0x10(%eax,%edx,1),%eax
    5388:	8d 14 c5 00 00 00 00 	lea    0x0(,%eax,8),%edx
    538f:	8b 85 70 ff ff ff    	mov    0xffffff70(%ebp),%eax
    5395:	83 e8 80             	sub    $0xffffff80,%eax
    5398:	83 e0 07             	and    $0x7,%eax
    539b:	8d 04 10             	lea    (%eax,%edx,1),%eax
    539e:	03 81 44 09 00 00    	add    0x944(%ecx),%eax
    53a4:	0f b6 00             	movzbl (%eax),%eax
    53a7:	89 45 cc             	mov    %eax,0xffffffcc(%ebp)
    53aa:	0f b7 85 6e ff ff ff 	movzwl 0xffffff6e(%ebp),%eax
    53b1:	83 e0 02             	and    $0x2,%eax
    53b4:	85 c0                	test   %eax,%eax
    53b6:	74 61                	je     5419 <_locale_set_l+0x59f>
    53b8:	8b 5d 0c             	mov    0xc(%ebp),%ebx
    53bb:	8b 8d 70 ff ff ff    	mov    0xffffff70(%ebp),%ecx
    53c1:	8a 45 cc             	mov    0xffffffcc(%ebp),%al
    53c4:	8a 95 70 ff ff ff    	mov    0xffffff70(%ebp),%dl
    53ca:	01 c2                	add    %eax,%edx
    53cc:	b0 80                	mov    $0x80,%al
    53ce:	8d 04 10             	lea    (%eax,%edx,1),%eax
    53d1:	66 0f b6 c0          	movzbw %al,%ax
    53d5:	66 89 84 4b 0c 08 00 	mov    %ax,0x80c(%ebx,%ecx,2)
    53dc:	00 
    53dd:	b0 80                	mov    $0x80,%al
    53df:	03 85 70 ff ff ff    	add    0xffffff70(%ebp),%eax
    53e5:	3c ff                	cmp    $0xff,%al
    53e7:	0f 84 8b 00 00 00    	je     5478 <_locale_set_l+0x5fe>
    53ed:	8b 5d 0c             	mov    0xc(%ebp),%ebx
    53f0:	b0 80                	mov    $0x80,%al
    53f2:	03 85 70 ff ff ff    	add    0xffffff70(%ebp),%eax
    53f8:	0f be c8             	movsbl %al,%ecx
    53fb:	8a 45 cc             	mov    0xffffffcc(%ebp),%al
    53fe:	8a 95 70 ff ff ff    	mov    0xffffff70(%ebp),%dl
    5404:	01 c2                	add    %eax,%edx
    5406:	b0 80                	mov    $0x80,%al
    5408:	8d 04 10             	lea    (%eax,%edx,1),%eax
    540b:	66 0f b6 c0          	movzbw %al,%ax
    540f:	66 89 84 4b 0c 07 00 	mov    %ax,0x70c(%ebx,%ecx,2)
    5416:	00 
    5417:	eb 5f                	jmp    5478 <_locale_set_l+0x5fe>
    5419:	8b 4d 0c             	mov    0xc(%ebp),%ecx
    541c:	8b 9d 70 ff ff ff    	mov    0xffffff70(%ebp),%ebx
    5422:	8a 55 cc             	mov    0xffffffcc(%ebp),%dl
    5425:	8a 85 70 ff ff ff    	mov    0xffffff70(%ebp),%al
    542b:	28 d0                	sub    %dl,%al
    542d:	88 c2                	mov    %al,%dl
    542f:	b0 80                	mov    $0x80,%al
    5431:	8d 04 10             	lea    (%eax,%edx,1),%eax
    5434:	66 0f b6 c0          	movzbw %al,%ax
    5438:	66 89 84 59 0c 05 00 	mov    %ax,0x50c(%ecx,%ebx,2)
    543f:	00 
    5440:	b0 80                	mov    $0x80,%al
    5442:	03 85 70 ff ff ff    	add    0xffffff70(%ebp),%eax
    5448:	3c ff                	cmp    $0xff,%al
    544a:	74 2c                	je     5478 <_locale_set_l+0x5fe>
    544c:	8b 4d 0c             	mov    0xc(%ebp),%ecx
    544f:	b0 80                	mov    $0x80,%al
    5451:	03 85 70 ff ff ff    	add    0xffffff70(%ebp),%eax
    5457:	0f be d8             	movsbl %al,%ebx
    545a:	8a 55 cc             	mov    0xffffffcc(%ebp),%dl
    545d:	8a 85 70 ff ff ff    	mov    0xffffff70(%ebp),%al
    5463:	28 d0                	sub    %dl,%al
    5465:	88 c2                	mov    %al,%dl
    5467:	b0 80                	mov    $0x80,%al
    5469:	8d 04 10             	lea    (%eax,%edx,1),%eax
    546c:	66 0f b6 c0          	movzbw %al,%ax
    5470:	66 89 84 59 0c 04 00 	mov    %ax,0x40c(%ecx,%ebx,2)
    5477:	00 
    5478:	8d 85 70 ff ff ff    	lea    0xffffff70(%ebp),%eax
    547e:	ff 00                	incl   (%eax)
    5480:	e9 d6 fd ff ff       	jmp    525b <_locale_set_l+0x3e1>
    5485:	8b 55 0c             	mov    0xc(%ebp),%edx
    5488:	8b 45 0c             	mov    0xc(%ebp),%eax
    548b:	05 0c 01 00 00       	add    $0x10c,%eax
    5490:	89 02                	mov    %eax,(%edx)
    5492:	8b 55 0c             	mov    0xc(%ebp),%edx
    5495:	8b 45 0c             	mov    0xc(%ebp),%eax
    5498:	05 0c 04 00 00       	add    $0x40c,%eax
    549d:	89 42 04             	mov    %eax,0x4(%edx)
    54a0:	8b 55 0c             	mov    0xc(%ebp),%edx
    54a3:	8b 45 0c             	mov    0xc(%ebp),%eax
    54a6:	05 0c 07 00 00       	add    $0x70c,%eax
    54ab:	89 42 08             	mov    %eax,0x8(%edx)
    54ae:	8b 45 0c             	mov    0xc(%ebp),%eax
    54b1:	05 2e 09 00 00       	add    $0x92e,%eax
    54b6:	89 45 dc             	mov    %eax,0xffffffdc(%ebp)
    54b9:	8b 45 0c             	mov    0xc(%ebp),%eax
    54bc:	05 74 09 00 00       	add    $0x974,%eax
    54c1:	89 45 f4             	mov    %eax,0xfffffff4(%ebp)
    54c4:	c7 45 cc 00 00 00 00 	movl   $0x0,0xffffffcc(%ebp)
    54cb:	83 7d cc 09          	cmpl   $0x9,0xffffffcc(%ebp)
    54cf:	7e 05                	jle    54d6 <_locale_set_l+0x65c>
    54d1:	e9 b0 00 00 00       	jmp    5586 <_locale_set_l+0x70c>
    54d6:	8b 45 cc             	mov    0xffffffcc(%ebp),%eax
    54d9:	8b 5d dc             	mov    0xffffffdc(%ebp),%ebx
    54dc:	01 c3                	add    %eax,%ebx
    54de:	8b 45 cc             	mov    0xffffffcc(%ebp),%eax
    54e1:	8d 14 85 00 00 00 00 	lea    0x0(,%eax,4),%edx
    54e8:	8b 45 f4             	mov    0xfffffff4(%ebp),%eax
    54eb:	83 ec 0c             	sub    $0xc,%esp
    54ee:	ff 34 10             	pushl  (%eax,%edx,1)
    54f1:	e8 5a d7 ff ff       	call   2c50 <strlen>
    54f6:	83 c4 10             	add    $0x10,%esp
    54f9:	88 03                	mov    %al,(%ebx)
    54fb:	8d 45 cc             	lea    0xffffffcc(%ebp),%eax
    54fe:	ff 00                	incl   (%eax)
    5500:	eb c9                	jmp    54cb <_locale_set_l+0x651>
    5502:	83 7d c8 01          	cmpl   $0x1,0xffffffc8(%ebp)
    5506:	75 7e                	jne    5586 <_locale_set_l+0x70c>
    5508:	8b 5d 0c             	mov    0xc(%ebp),%ebx
    550b:	83 ec 04             	sub    $0x4,%esp
    550e:	ff 75 0c             	pushl  0xc(%ebp)
    5511:	8b 45 0c             	mov    0xc(%ebp),%eax
    5514:	ff b0 a0 09 00 00    	pushl  0x9a0(%eax)
    551a:	8b 45 0c             	mov    0xc(%ebp),%eax
    551d:	05 68 09 00 00       	add    $0x968,%eax
    5522:	50                   	push   %eax
    5523:	e8 ac 18 00 00       	call   6dd4 <__locale_mbrtowc_l>
    5528:	83 c4 10             	add    $0x10,%esp
    552b:	89 83 6c 09 00 00    	mov    %eax,0x96c(%ebx)
    5531:	8b 45 0c             	mov    0xc(%ebp),%eax
    5534:	8b 80 a8 09 00 00    	mov    0x9a8(%eax),%eax
    553a:	80 38 00             	cmpb   $0x0,(%eax)
    553d:	74 47                	je     5586 <_locale_set_l+0x70c>
    553f:	8b 5d 0c             	mov    0xc(%ebp),%ebx
    5542:	83 ec 04             	sub    $0x4,%esp
    5545:	ff 75 0c             	pushl  0xc(%ebp)
    5548:	8b 45 0c             	mov    0xc(%ebp),%eax
    554b:	ff b0 a4 09 00 00    	pushl  0x9a4(%eax)
    5551:	8b 45 0c             	mov    0xc(%ebp),%eax
    5554:	05 6a 09 00 00       	add    $0x96a,%eax
    5559:	50                   	push   %eax
    555a:	e8 75 18 00 00       	call   6dd4 <__locale_mbrtowc_l>
    555f:	83 c4 10             	add    $0x10,%esp
    5562:	89 83 70 09 00 00    	mov    %eax,0x970(%ebx)
    5568:	8b 45 0c             	mov    0xc(%ebp),%eax
    556b:	83 b8 70 09 00 00 00 	cmpl   $0x0,0x970(%eax)
    5572:	75 12                	jne    5586 <_locale_set_l+0x70c>
    5574:	8b 45 0c             	mov    0xc(%ebp),%eax
    5577:	8b 55 0c             	mov    0xc(%ebp),%edx
    557a:	8b 92 a4 09 00 00    	mov    0x9a4(%edx),%edx
    5580:	89 90 a8 09 00 00    	mov    %edx,0x9a8(%eax)
    5586:	8d 45 c8             	lea    0xffffffc8(%ebp),%eax
    5589:	ff 00                	incl   (%eax)
    558b:	83 45 08 02          	addl   $0x2,0x8(%ebp)
    558f:	8d 45 f0             	lea    0xfffffff0(%ebp),%eax
    5592:	83 00 02             	addl   $0x2,(%eax)
    5595:	83 7d c8 05          	cmpl   $0x5,0xffffffc8(%ebp)
    5599:	0f 8e bc f9 ff ff    	jle    4f5b <_locale_set_l+0xe1>
    559f:	c7 85 68 ff ff ff 01 	movl   $0x1,0xffffff68(%ebp)
    55a6:	00 00 00 
    55a9:	8b 85 68 ff ff ff    	mov    0xffffff68(%ebp),%eax
    55af:	8d 65 f8             	lea    0xfffffff8(%ebp),%esp
    55b2:	5b                   	pop    %ebx
    55b3:	5e                   	pop    %esi
    55b4:	c9                   	leave  
    55b5:	c3                   	ret    

000055b6 <_locale_init_l>:
    55b6:	55                   	push   %ebp
    55b7:	89 e5                	mov    %esp,%ebp
    55b9:	83 ec 08             	sub    $0x8,%esp
    55bc:	83 ec 04             	sub    $0x4,%esp
    55bf:	6a 0e                	push   $0xe
    55c1:	6a 00                	push   $0x0
    55c3:	8b 45 08             	mov    0x8(%ebp),%eax
    55c6:	05 0c 09 00 00       	add    $0x90c,%eax
    55cb:	50                   	push   %eax
    55cc:	e8 33 d6 ff ff       	call   2c04 <memset>
    55d1:	83 c4 10             	add    $0x10,%esp
    55d4:	8b 45 08             	mov    0x8(%ebp),%eax
    55d7:	c6 80 0c 09 00 00 23 	movb   $0x23,0x90c(%eax)
    55de:	83 ec 04             	sub    $0x4,%esp
    55e1:	6a 06                	push   $0x6
    55e3:	a1 ec 83 04 00       	mov    0x483ec,%eax
    55e8:	05 2c d7 03 00       	add    $0x3d72c,%eax
    55ed:	50                   	push   %eax
    55ee:	8b 45 08             	mov    0x8(%ebp),%eax
    55f1:	05 26 09 00 00       	add    $0x926,%eax
    55f6:	50                   	push   %eax
    55f7:	e8 70 15 00 00       	call   6b6c <memcpy>
    55fc:	83 c4 10             	add    $0x10,%esp
    55ff:	8b 45 08             	mov    0x8(%ebp),%eax
    5602:	fe 80 26 09 00 00    	incb   0x926(%eax)
    5608:	8b 45 08             	mov    0x8(%ebp),%eax
    560b:	66 c7 80 1a 09 00 00 	movw   $0x974,0x91a(%eax)
    5612:	74 09 
    5614:	8b 45 08             	mov    0x8(%ebp),%eax
    5617:	66 c7 80 1c 09 00 00 	movw   $0x9a0,0x91c(%eax)
    561e:	a0 09 
    5620:	8b 45 08             	mov    0x8(%ebp),%eax
    5623:	66 c7 80 1e 09 00 00 	movw   $0x9ac,0x91e(%eax)
    562a:	ac 09 
    562c:	8b 45 08             	mov    0x8(%ebp),%eax
    562f:	66 c7 80 20 09 00 00 	movw   $0xa04,0x920(%eax)
    5636:	04 0a 
    5638:	8b 45 08             	mov    0x8(%ebp),%eax
    563b:	66 c7 80 24 09 00 00 	movw   $0xacc,0x924(%eax)
    5642:	cc 0a 
    5644:	8b 55 08             	mov    0x8(%ebp),%edx
    5647:	a1 ec 83 04 00       	mov    0x483ec,%eax
    564c:	89 82 3c 09 00 00    	mov    %eax,0x93c(%edx)
    5652:	8b 55 08             	mov    0x8(%ebp),%edx
    5655:	a1 ec 83 04 00       	mov    0x483ec,%eax
    565a:	05 a4 01 00 00       	add    $0x1a4,%eax
    565f:	89 82 44 09 00 00    	mov    %eax,0x944(%edx)
    5665:	8b 55 08             	mov    0x8(%ebp),%edx
    5668:	a1 ec 83 04 00       	mov    0x483ec,%eax
    566d:	05 9c 03 00 00       	add    $0x39c,%eax
    5672:	89 82 4c 09 00 00    	mov    %eax,0x94c(%edx)
    5678:	8b 55 08             	mov    0x8(%ebp),%edx
    567b:	a1 ec 83 04 00       	mov    0x483ec,%eax
    5680:	05 5c 11 00 00       	add    $0x115c,%eax
    5685:	89 82 54 09 00 00    	mov    %eax,0x954(%edx)
    568b:	8b 55 08             	mov    0x8(%ebp),%edx
    568e:	a1 ec 83 04 00       	mov    0x483ec,%eax
    5693:	05 0c 23 00 00       	add    $0x230c,%eax
    5698:	89 82 5c 09 00 00    	mov    %eax,0x95c(%edx)
    569e:	8b 55 08             	mov    0x8(%ebp),%edx
    56a1:	a1 ec 83 04 00       	mov    0x483ec,%eax
    56a6:	05 20 31 00 00       	add    $0x3120,%eax
    56ab:	89 82 60 09 00 00    	mov    %eax,0x960(%edx)
    56b1:	8b 55 08             	mov    0x8(%ebp),%edx
    56b4:	a1 ec 83 04 00       	mov    0x483ec,%eax
    56b9:	05 b0 37 00 00       	add    $0x37b0,%eax
    56be:	89 82 64 09 00 00    	mov    %eax,0x964(%edx)
    56c4:	8b 55 08             	mov    0x8(%ebp),%edx
    56c7:	a1 f0 83 04 00       	mov    0x483f0,%eax
    56cc:	89 02                	mov    %eax,(%edx)
    56ce:	8b 55 08             	mov    0x8(%ebp),%edx
    56d1:	a1 f4 83 04 00       	mov    0x483f4,%eax
    56d6:	89 42 04             	mov    %eax,0x4(%edx)
    56d9:	8b 55 08             	mov    0x8(%ebp),%edx
    56dc:	a1 f8 83 04 00       	mov    0x483f8,%eax
    56e1:	89 42 08             	mov    %eax,0x8(%edx)
    56e4:	8b 45 08             	mov    0x8(%ebp),%eax
    56e7:	c7 80 58 09 00 00 20 	movl   $0x8620,0x958(%eax)
    56ee:	86 00 00 
    56f1:	83 ec 08             	sub    $0x8,%esp
    56f4:	ff 75 08             	pushl  0x8(%ebp)
    56f7:	68 40 86 00 00       	push   $0x8640
    56fc:	e8 79 f7 ff ff       	call   4e7a <_locale_set_l>
    5701:	83 c4 10             	add    $0x10,%esp
    5704:	c9                   	leave  
    5705:	c3                   	ret    

00005706 <_locale_init>:
    5706:	55                   	push   %ebp
    5707:	89 e5                	mov    %esp,%ebp
    5709:	83 ec 08             	sub    $0x8,%esp
    570c:	83 ec 0c             	sub    $0xc,%esp
    570f:	ff 35 e4 83 04 00    	pushl  0x483e4
    5715:	e8 9c fe ff ff       	call   55b6 <_locale_init_l>
    571a:	83 c4 10             	add    $0x10,%esp
    571d:	c9                   	leave  
    571e:	c3                   	ret    
    571f:	90                   	nop    

00005720 <fflush>:
    5720:	55                   	push   %ebp
    5721:	89 e5                	mov    %esp,%ebp
    5723:	83 ec 08             	sub    $0x8,%esp
    5726:	c7 45 fc 00 00 00 00 	movl   $0x0,0xfffffffc(%ebp)
    572d:	66 c7 45 fa 00 03    	movw   $0x300,0xfffffffa(%ebp)
    5733:	81 7d 08 d0 82 04 00 	cmpl   $0x482d0,0x8(%ebp)
    573a:	75 0d                	jne    5749 <fflush+0x29>
    573c:	c7 45 08 00 00 00 00 	movl   $0x0,0x8(%ebp)
    5743:	66 c7 45 fa 00 01    	movw   $0x100,0xfffffffa(%ebp)
    5749:	83 7d 08 00          	cmpl   $0x0,0x8(%ebp)
    574d:	75 55                	jne    57a4 <fflush+0x84>
    574f:	a1 d0 82 04 00       	mov    0x482d0,%eax
    5754:	89 45 08             	mov    %eax,0x8(%ebp)
    5757:	83 7d 08 00          	cmpl   $0x0,0x8(%ebp)
    575b:	75 02                	jne    575f <fflush+0x3f>
    575d:	eb 71                	jmp    57d0 <fflush+0xb0>
    575f:	8b 55 08             	mov    0x8(%ebp),%edx
    5762:	66 8b 02             	mov    (%edx),%ax
    5765:	80 f4 02             	xor    $0x2,%ah
    5768:	66 23 45 fa          	and    0xfffffffa(%ebp),%ax
    576c:	66 85 c0             	test   %ax,%ax
    576f:	74 28                	je     5799 <fflush+0x79>
    5771:	8b 55 08             	mov    0x8(%ebp),%edx
    5774:	0f b7 02             	movzwl (%edx),%eax
    5777:	25 00 20 00 00       	and    $0x2000,%eax
    577c:	85 c0                	test   %eax,%eax
    577e:	74 19                	je     5799 <fflush+0x79>
    5780:	83 ec 0c             	sub    $0xc,%esp
    5783:	ff 75 08             	pushl  0x8(%ebp)
    5786:	e8 95 ff ff ff       	call   5720 <fflush>
    578b:	83 c4 10             	add    $0x10,%esp
    578e:	85 c0                	test   %eax,%eax
    5790:	74 07                	je     5799 <fflush+0x79>
    5792:	c7 45 fc ff ff ff ff 	movl   $0xffffffff,0xfffffffc(%ebp)
    5799:	8b 45 08             	mov    0x8(%ebp),%eax
    579c:	8b 40 0c             	mov    0xc(%eax),%eax
    579f:	89 45 08             	mov    %eax,0x8(%ebp)
    57a2:	eb b3                	jmp    5757 <fflush+0x37>
    57a4:	8b 55 08             	mov    0x8(%ebp),%edx
    57a7:	0f b7 02             	movzwl (%edx),%eax
    57aa:	25 00 20 00 00       	and    $0x2000,%eax
    57af:	85 c0                	test   %eax,%eax
    57b1:	74 1d                	je     57d0 <fflush+0xb0>
    57b3:	83 ec 04             	sub    $0x4,%esp
    57b6:	ff 75 08             	pushl  0x8(%ebp)
    57b9:	6a 00                	push   $0x0
    57bb:	6a 00                	push   $0x0
    57bd:	e8 94 01 00 00       	call   5956 <_stdio_fwrite>
    57c2:	83 c4 10             	add    $0x10,%esp
    57c5:	85 c0                	test   %eax,%eax
    57c7:	74 07                	je     57d0 <fflush+0xb0>
    57c9:	c7 45 fc ff ff ff ff 	movl   $0xffffffff,0xfffffffc(%ebp)
    57d0:	8b 45 fc             	mov    0xfffffffc(%ebp),%eax
    57d3:	c9                   	leave  
    57d4:	c3                   	ret    
    57d5:	90                   	nop    
    57d6:	90                   	nop    
    57d7:	90                   	nop    

000057d8 <fputc>:
    57d8:	55                   	push   %ebp
    57d9:	89 e5                	mov    %esp,%ebp
    57db:	83 ec 08             	sub    $0x8,%esp
    57de:	8a 45 08             	mov    0x8(%ebp),%al
    57e1:	88 45 ff             	mov    %al,0xffffffff(%ebp)
    57e4:	ff 75 0c             	pushl  0xc(%ebp)
    57e7:	6a 01                	push   $0x1
    57e9:	6a 01                	push   $0x1
    57eb:	8d 45 ff             	lea    0xffffffff(%ebp),%eax
    57ee:	50                   	push   %eax
    57ef:	e8 64 00 00 00       	call   5858 <fwrite>
    57f4:	83 c4 10             	add    $0x10,%esp
    57f7:	85 c0                	test   %eax,%eax
    57f9:	74 09                	je     5804 <fputc+0x2c>
    57fb:	0f b6 45 ff          	movzbl 0xffffffff(%ebp),%eax
    57ff:	89 45 f8             	mov    %eax,0xfffffff8(%ebp)
    5802:	eb 07                	jmp    580b <fputc+0x33>
    5804:	c7 45 f8 ff ff ff ff 	movl   $0xffffffff,0xfffffff8(%ebp)
    580b:	8b 45 f8             	mov    0xfffffff8(%ebp),%eax
    580e:	c9                   	leave  
    580f:	c3                   	ret    

00005810 <fputs>:
    5810:	55                   	push   %ebp
    5811:	89 e5                	mov    %esp,%ebp
    5813:	53                   	push   %ebx
    5814:	83 ec 14             	sub    $0x14,%esp
    5817:	8b 5d 08             	mov    0x8(%ebp),%ebx
    581a:	83 ec 0c             	sub    $0xc,%esp
    581d:	53                   	push   %ebx
    581e:	e8 2d d4 ff ff       	call   2c50 <strlen>
    5823:	83 c4 10             	add    $0x10,%esp
    5826:	89 45 f8             	mov    %eax,0xfffffff8(%ebp)
    5829:	ff 75 0c             	pushl  0xc(%ebp)
    582c:	ff 75 f8             	pushl  0xfffffff8(%ebp)
    582f:	6a 01                	push   $0x1
    5831:	53                   	push   %ebx
    5832:	e8 21 00 00 00       	call   5858 <fwrite>
    5837:	83 c4 10             	add    $0x10,%esp
    583a:	3b 45 f8             	cmp    0xfffffff8(%ebp),%eax
    583d:	75 08                	jne    5847 <fputs+0x37>
    583f:	8b 45 f8             	mov    0xfffffff8(%ebp),%eax
    5842:	89 45 f4             	mov    %eax,0xfffffff4(%ebp)
    5845:	eb 08                	jmp    584f <fputs+0x3f>
    5847:	b8 ff ff ff ff       	mov    $0xffffffff,%eax
    584c:	89 45 f4             	mov    %eax,0xfffffff4(%ebp)
    584f:	8b 45 f4             	mov    0xfffffff4(%ebp),%eax
    5852:	8b 5d fc             	mov    0xfffffffc(%ebp),%ebx
    5855:	c9                   	leave  
    5856:	c3                   	ret    
    5857:	90                   	nop    

00005858 <fwrite>:
    5858:	55                   	push   %ebp
    5859:	89 e5                	mov    %esp,%ebp
    585b:	83 ec 18             	sub    $0x18,%esp
    585e:	8b 45 14             	mov    0x14(%ebp),%eax
    5861:	0f b7 00             	movzwl (%eax),%eax
    5864:	25 00 08 00 00       	and    $0x800,%eax
    5869:	85 c0                	test   %eax,%eax
    586b:	74 18                	je     5885 <fwrite+0x2d>
    586d:	8b 45 14             	mov    0x14(%ebp),%eax
    5870:	8b 55 14             	mov    0x14(%ebp),%edx
    5873:	66 8b 12             	mov    (%edx),%dx
    5876:	83 ca 08             	or     $0x8,%edx
    5879:	66 89 10             	mov    %dx,(%eax)
    587c:	c7 45 fc 00 00 00 00 	movl   $0x0,0xfffffffc(%ebp)
    5883:	eb 5c                	jmp    58e1 <fwrite+0x89>
    5885:	8b 45 14             	mov    0x14(%ebp),%eax
    5888:	8b 55 14             	mov    0x14(%ebp),%edx
    588b:	66 8b 12             	mov    (%edx),%dx
    588e:	80 ca 80             	or     $0x80,%dl
    5891:	66 89 10             	mov    %dx,(%eax)
    5894:	83 7d 0c 00          	cmpl   $0x0,0xc(%ebp)
    5898:	74 3a                	je     58d4 <fwrite+0x7c>
    589a:	83 ec 04             	sub    $0x4,%esp
    589d:	ff 75 14             	pushl  0x14(%ebp)
    58a0:	8b 45 10             	mov    0x10(%ebp),%eax
    58a3:	0f af 45 0c          	imul   0xc(%ebp),%eax
    58a7:	50                   	push   %eax
    58a8:	ff 75 08             	pushl  0x8(%ebp)
    58ab:	e8 a6 00 00 00       	call   5956 <_stdio_fwrite>
    58b0:	83 c4 10             	add    $0x10,%esp
    58b3:	89 45 f8             	mov    %eax,0xfffffff8(%ebp)
    58b6:	8d 45 0c             	lea    0xc(%ebp),%eax
    58b9:	89 45 f4             	mov    %eax,0xfffffff4(%ebp)
    58bc:	8b 45 f8             	mov    0xfffffff8(%ebp),%eax
    58bf:	8b 4d f4             	mov    0xfffffff4(%ebp),%ecx
    58c2:	ba 00 00 00 00       	mov    $0x0,%edx
    58c7:	f7 31                	divl   (%ecx)
    58c9:	89 45 f4             	mov    %eax,0xfffffff4(%ebp)
    58cc:	8b 45 f4             	mov    0xfffffff4(%ebp),%eax
    58cf:	89 45 f8             	mov    %eax,0xfffffff8(%ebp)
    58d2:	eb 07                	jmp    58db <fwrite+0x83>
    58d4:	c7 45 f8 00 00 00 00 	movl   $0x0,0xfffffff8(%ebp)
    58db:	8b 4d f8             	mov    0xfffffff8(%ebp),%ecx
    58de:	89 4d fc             	mov    %ecx,0xfffffffc(%ebp)
    58e1:	8b 45 fc             	mov    0xfffffffc(%ebp),%eax
    58e4:	c9                   	leave  
    58e5:	c3                   	ret    
    58e6:	90                   	nop    
    58e7:	90                   	nop    
    58e8:	55                   	push   %ebp
    58e9:	89 e5                	mov    %esp,%ebp
    58eb:	83 ec 18             	sub    $0x18,%esp
    58ee:	8b 45 10             	mov    0x10(%ebp),%eax
    58f1:	89 45 fc             	mov    %eax,0xfffffffc(%ebp)
    58f4:	83 7d fc 00          	cmpl   $0x0,0xfffffffc(%ebp)
    58f8:	75 02                	jne    58fc <fwrite+0xa4>
    58fa:	eb 50                	jmp    594c <fwrite+0xf4>
    58fc:	8b 45 fc             	mov    0xfffffffc(%ebp),%eax
    58ff:	89 45 f0             	mov    %eax,0xfffffff0(%ebp)
    5902:	83 7d fc 00          	cmpl   $0x0,0xfffffffc(%ebp)
    5906:	79 07                	jns    590f <fwrite+0xb7>
    5908:	c7 45 f0 ff ff ff 7f 	movl   $0x7fffffff,0xfffffff0(%ebp)
    590f:	8b 45 f0             	mov    0xfffffff0(%ebp),%eax
    5912:	89 45 f4             	mov    %eax,0xfffffff4(%ebp)
    5915:	83 ec 04             	sub    $0x4,%esp
    5918:	ff 75 f4             	pushl  0xfffffff4(%ebp)
    591b:	ff 75 0c             	pushl  0xc(%ebp)
    591e:	8b 45 08             	mov    0x8(%ebp),%eax
    5921:	ff 70 08             	pushl  0x8(%eax)
    5924:	e8 c3 e4 ff ff       	call   3dec <__libc_write>
    5929:	83 c4 10             	add    $0x10,%esp
    592c:	89 45 f8             	mov    %eax,0xfffffff8(%ebp)
    592f:	83 7d f8 00          	cmpl   $0x0,0xfffffff8(%ebp)
    5933:	78 10                	js     5945 <fwrite+0xed>
    5935:	8b 55 f8             	mov    0xfffffff8(%ebp),%edx
    5938:	8d 45 fc             	lea    0xfffffffc(%ebp),%eax
    593b:	29 10                	sub    %edx,(%eax)
    593d:	8b 45 f8             	mov    0xfffffff8(%ebp),%eax
    5940:	01 45 0c             	add    %eax,0xc(%ebp)
    5943:	eb af                	jmp    58f4 <fwrite+0x9c>
    5945:	8b 45 08             	mov    0x8(%ebp),%eax
    5948:	66 83 08 08          	orw    $0x8,(%eax)
    594c:	8b 55 fc             	mov    0xfffffffc(%ebp),%edx
    594f:	8b 45 10             	mov    0x10(%ebp),%eax
    5952:	29 d0                	sub    %edx,%eax
    5954:	c9                   	leave  
    5955:	c3                   	ret    

00005956 <_stdio_fwrite>:
    5956:	55                   	push   %ebp
    5957:	89 e5                	mov    %esp,%ebp
    5959:	83 ec 28             	sub    $0x28,%esp
    595c:	8b 55 10             	mov    0x10(%ebp),%edx
    595f:	0f b7 02             	movzwl (%edx),%eax
    5962:	83 e0 20             	and    $0x20,%eax
    5965:	85 c0                	test   %eax,%eax
    5967:	74 1d                	je     5986 <_stdio_fwrite+0x30>
    5969:	8b 4d 10             	mov    0x10(%ebp),%ecx
    596c:	66 83 09 08          	orw    $0x8,(%ecx)
    5970:	c7 05 24 84 04 00 09 	movl   $0x9,0x48424
    5977:	00 00 00 
    597a:	c7 45 ec 00 00 00 00 	movl   $0x0,0xffffffec(%ebp)
    5981:	e9 ee 02 00 00       	jmp    5c74 <_stdio_fwrite+0x31e>
    5986:	8b 55 10             	mov    0x10(%ebp),%edx
    5989:	0f b7 02             	movzwl (%edx),%eax
    598c:	25 00 10 00 00       	and    $0x1000,%eax
    5991:	85 c0                	test   %eax,%eax
    5993:	0f 84 80 00 00 00    	je     5a19 <_stdio_fwrite+0xc3>
    5999:	8b 4d 10             	mov    0x10(%ebp),%ecx
    599c:	8b 41 18             	mov    0x18(%ecx),%eax
    599f:	8b 55 10             	mov    0x10(%ebp),%edx
    59a2:	3b 42 1c             	cmp    0x1c(%edx),%eax
    59a5:	72 0f                	jb     59b6 <_stdio_fwrite+0x60>
    59a7:	8b 4d 10             	mov    0x10(%ebp),%ecx
    59aa:	0f b7 01             	movzwl (%ecx),%eax
    59ad:	83 e0 03             	and    $0x3,%eax
    59b0:	85 c0                	test   %eax,%eax
    59b2:	75 02                	jne    59b6 <_stdio_fwrite+0x60>
    59b4:	eb 49                	jmp    59ff <_stdio_fwrite+0xa9>
    59b6:	83 ec 04             	sub    $0x4,%esp
    59b9:	8b 55 10             	mov    0x10(%ebp),%edx
    59bc:	0f b7 02             	movzwl (%edx),%eax
    59bf:	25 00 04 00 00       	and    $0x400,%eax
    59c4:	85 c0                	test   %eax,%eax
    59c6:	74 09                	je     59d1 <_stdio_fwrite+0x7b>
    59c8:	c7 45 e4 02 00 00 00 	movl   $0x2,0xffffffe4(%ebp)
    59cf:	eb 07                	jmp    59d8 <_stdio_fwrite+0x82>
    59d1:	c7 45 e4 01 00 00 00 	movl   $0x1,0xffffffe4(%ebp)
    59d8:	ff 75 e4             	pushl  0xffffffe4(%ebp)
    59db:	6a 00                	push   $0x0
    59dd:	ff 75 10             	pushl  0x10(%ebp)
    59e0:	e8 53 1b 00 00       	call   7538 <fseek>
    59e5:	83 c4 10             	add    $0x10,%esp
    59e8:	85 c0                	test   %eax,%eax
    59ea:	74 13                	je     59ff <_stdio_fwrite+0xa9>
    59ec:	8b 4d 10             	mov    0x10(%ebp),%ecx
    59ef:	66 83 09 08          	orw    $0x8,(%ecx)
    59f3:	c7 45 ec 00 00 00 00 	movl   $0x0,0xffffffec(%ebp)
    59fa:	e9 75 02 00 00       	jmp    5c74 <_stdio_fwrite+0x31e>
    59ff:	8b 55 10             	mov    0x10(%ebp),%edx
    5a02:	8b 42 10             	mov    0x10(%edx),%eax
    5a05:	8b 4d 10             	mov    0x10(%ebp),%ecx
    5a08:	89 41 1c             	mov    %eax,0x1c(%ecx)
    5a0b:	8b 55 10             	mov    0x10(%ebp),%edx
    5a0e:	89 42 18             	mov    %eax,0x18(%edx)
    5a11:	8b 4d 10             	mov    0x10(%ebp),%ecx
    5a14:	89 41 20             	mov    %eax,0x20(%ecx)
    5a17:	eb 4d                	jmp    5a66 <_stdio_fwrite+0x110>
    5a19:	8b 55 10             	mov    0x10(%ebp),%edx
    5a1c:	0f b7 02             	movzwl (%edx),%eax
    5a1f:	25 00 24 00 00       	and    $0x2400,%eax
    5a24:	3d 00 04 00 00       	cmp    $0x400,%eax
    5a29:	75 3b                	jne    5a66 <_stdio_fwrite+0x110>
    5a2b:	c7 45 fc 00 00 00 00 	movl   $0x0,0xfffffffc(%ebp)
    5a32:	83 ec 04             	sub    $0x4,%esp
    5a35:	6a 02                	push   $0x2
    5a37:	8d 45 fc             	lea    0xfffffffc(%ebp),%eax
    5a3a:	50                   	push   %eax
    5a3b:	ff 75 10             	pushl  0x10(%ebp)
    5a3e:	e8 39 02 00 00       	call   5c7c <_stdio_lseek>
    5a43:	83 c4 10             	add    $0x10,%esp
    5a46:	85 c0                	test   %eax,%eax
    5a48:	74 1c                	je     5a66 <_stdio_fwrite+0x110>
    5a4a:	83 3d 24 84 04 00 20 	cmpl   $0x20,0x48424
    5a51:	74 13                	je     5a66 <_stdio_fwrite+0x110>
    5a53:	8b 4d 10             	mov    0x10(%ebp),%ecx
    5a56:	66 83 09 08          	orw    $0x8,(%ecx)
    5a5a:	c7 45 ec 00 00 00 00 	movl   $0x0,0xffffffec(%ebp)
    5a61:	e9 0e 02 00 00       	jmp    5c74 <_stdio_fwrite+0x31e>
    5a66:	8b 55 10             	mov    0x10(%ebp),%edx
    5a69:	8b 42 10             	mov    0x10(%edx),%eax
    5a6c:	8b 4d 10             	mov    0x10(%ebp),%ecx
    5a6f:	89 41 24             	mov    %eax,0x24(%ecx)
    5a72:	8b 45 10             	mov    0x10(%ebp),%eax
    5a75:	66 81 20 ff cf       	andw   $0xcfff,(%eax)
    5a7a:	8b 45 08             	mov    0x8(%ebp),%eax
    5a7d:	89 45 f8             	mov    %eax,0xfffffff8(%ebp)
    5a80:	c7 45 f4 01 00 00 00 	movl   $0x1,0xfffffff4(%ebp)
    5a87:	83 7d 08 00          	cmpl   $0x0,0x8(%ebp)
    5a8b:	0f 85 ce 00 00 00    	jne    5b5f <_stdio_fwrite+0x209>
    5a91:	8b 55 10             	mov    0x10(%ebp),%edx
    5a94:	8b 42 10             	mov    0x10(%edx),%eax
    5a97:	8b 4d 10             	mov    0x10(%ebp),%ecx
    5a9a:	8b 51 18             	mov    0x18(%ecx),%edx
    5a9d:	29 c2                	sub    %eax,%edx
    5a9f:	89 d0                	mov    %edx,%eax
    5aa1:	89 45 f0             	mov    %eax,0xfffffff0(%ebp)
    5aa4:	8b 45 10             	mov    0x10(%ebp),%eax
    5aa7:	8b 40 10             	mov    0x10(%eax),%eax
    5aaa:	89 45 e8             	mov    %eax,0xffffffe8(%ebp)
    5aad:	8b 55 10             	mov    0x10(%ebp),%edx
    5ab0:	83 7a 08 fe          	cmpl   $0xfffffffe,0x8(%edx)
    5ab4:	75 33                	jne    5ae9 <_stdio_fwrite+0x193>
    5ab6:	8b 4d 10             	mov    0x10(%ebp),%ecx
    5ab9:	66 81 09 00 20       	orw    $0x2000,(%ecx)
    5abe:	83 7d 08 00          	cmpl   $0x0,0x8(%ebp)
    5ac2:	74 13                	je     5ad7 <_stdio_fwrite+0x181>
    5ac4:	8b 55 f8             	mov    0xfffffff8(%ebp),%edx
    5ac7:	8b 45 08             	mov    0x8(%ebp),%eax
    5aca:	29 d0                	sub    %edx,%eax
    5acc:	89 45 e0             	mov    %eax,0xffffffe0(%ebp)
    5acf:	8b 45 0c             	mov    0xc(%ebp),%eax
    5ad2:	01 45 e0             	add    %eax,0xffffffe0(%ebp)
    5ad5:	eb 07                	jmp    5ade <_stdio_fwrite+0x188>
    5ad7:	c7 45 e0 00 00 00 00 	movl   $0x0,0xffffffe0(%ebp)
    5ade:	8b 55 e0             	mov    0xffffffe0(%ebp),%edx
    5ae1:	89 55 ec             	mov    %edx,0xffffffec(%ebp)
    5ae4:	e9 8b 01 00 00       	jmp    5c74 <_stdio_fwrite+0x31e>
    5ae9:	83 ec 04             	sub    $0x4,%esp
    5aec:	ff 75 f0             	pushl  0xfffffff0(%ebp)
    5aef:	ff 75 e8             	pushl  0xffffffe8(%ebp)
    5af2:	ff 75 10             	pushl  0x10(%ebp)
    5af5:	e8 ee fd ff ff       	call   58e8 <fwrite+0x90>
    5afa:	83 c4 10             	add    $0x10,%esp
    5afd:	89 45 f4             	mov    %eax,0xfffffff4(%ebp)
    5b00:	8b 4d f4             	mov    0xfffffff4(%ebp),%ecx
    5b03:	01 4d e8             	add    %ecx,0xffffffe8(%ebp)
    5b06:	8b 55 f4             	mov    0xfffffff4(%ebp),%edx
    5b09:	8d 45 f0             	lea    0xfffffff0(%ebp),%eax
    5b0c:	29 10                	sub    %edx,(%eax)
    5b0e:	8b 55 10             	mov    0x10(%ebp),%edx
    5b11:	8b 42 10             	mov    0x10(%edx),%eax
    5b14:	8b 4d 10             	mov    0x10(%ebp),%ecx
    5b17:	89 41 18             	mov    %eax,0x18(%ecx)
    5b1a:	83 7d f0 00          	cmpl   $0x0,0xfffffff0(%ebp)
    5b1e:	75 02                	jne    5b22 <_stdio_fwrite+0x1cc>
    5b20:	eb 1f                	jmp    5b41 <_stdio_fwrite+0x1eb>
    5b22:	8b 55 10             	mov    0x10(%ebp),%edx
    5b25:	8b 42 18             	mov    0x18(%edx),%eax
    5b28:	89 c2                	mov    %eax,%edx
    5b2a:	8b 45 e8             	mov    0xffffffe8(%ebp),%eax
    5b2d:	8a 00                	mov    (%eax),%al
    5b2f:	88 02                	mov    %al,(%edx)
    5b31:	ff 45 e8             	incl   0xffffffe8(%ebp)
    5b34:	8b 4d 10             	mov    0x10(%ebp),%ecx
    5b37:	ff 41 18             	incl   0x18(%ecx)
    5b3a:	8d 45 f0             	lea    0xfffffff0(%ebp),%eax
    5b3d:	ff 08                	decl   (%eax)
    5b3f:	eb d9                	jmp    5b1a <_stdio_fwrite+0x1c4>
    5b41:	83 7d 08 00          	cmpl   $0x0,0x8(%ebp)
    5b45:	75 18                	jne    5b5f <_stdio_fwrite+0x209>
    5b47:	8b 55 10             	mov    0x10(%ebp),%edx
    5b4a:	8b 42 10             	mov    0x10(%edx),%eax
    5b4d:	8b 4d 10             	mov    0x10(%ebp),%ecx
    5b50:	8b 51 18             	mov    0x18(%ecx),%edx
    5b53:	29 c2                	sub    %eax,%edx
    5b55:	89 d0                	mov    %edx,%eax
    5b57:	89 45 ec             	mov    %eax,0xffffffec(%ebp)
    5b5a:	e9 15 01 00 00       	jmp    5c74 <_stdio_fwrite+0x31e>
    5b5f:	8b 55 10             	mov    0x10(%ebp),%edx
    5b62:	8b 42 18             	mov    0x18(%edx),%eax
    5b65:	8b 4d 10             	mov    0x10(%ebp),%ecx
    5b68:	3b 41 10             	cmp    0x10(%ecx),%eax
    5b6b:	75 48                	jne    5bb5 <_stdio_fwrite+0x25f>
    5b6d:	8b 55 10             	mov    0x10(%ebp),%edx
    5b70:	8b 42 10             	mov    0x10(%edx),%eax
    5b73:	8b 4d 10             	mov    0x10(%ebp),%ecx
    5b76:	8b 51 14             	mov    0x14(%ecx),%edx
    5b79:	29 c2                	sub    %eax,%edx
    5b7b:	89 d0                	mov    %edx,%eax
    5b7d:	3b 45 0c             	cmp    0xc(%ebp),%eax
    5b80:	77 33                	ja     5bb5 <_stdio_fwrite+0x25f>
    5b82:	8b 45 10             	mov    0x10(%ebp),%eax
    5b85:	83 78 08 fe          	cmpl   $0xfffffffe,0x8(%eax)
    5b89:	74 2a                	je     5bb5 <_stdio_fwrite+0x25f>
    5b8b:	83 ec 04             	sub    $0x4,%esp
    5b8e:	ff 75 0c             	pushl  0xc(%ebp)
    5b91:	ff 75 08             	pushl  0x8(%ebp)
    5b94:	ff 75 10             	pushl  0x10(%ebp)
    5b97:	e8 4c fd ff ff       	call   58e8 <fwrite+0x90>
    5b9c:	83 c4 10             	add    $0x10,%esp
    5b9f:	89 45 f0             	mov    %eax,0xfffffff0(%ebp)
    5ba2:	8b 45 f0             	mov    0xfffffff0(%ebp),%eax
    5ba5:	01 45 08             	add    %eax,0x8(%ebp)
    5ba8:	8b 55 f0             	mov    0xfffffff0(%ebp),%edx
    5bab:	8d 45 0c             	lea    0xc(%ebp),%eax
    5bae:	29 10                	sub    %edx,(%eax)
    5bb0:	e9 8f 00 00 00       	jmp    5c44 <_stdio_fwrite+0x2ee>
    5bb5:	8b 4d 10             	mov    0x10(%ebp),%ecx
    5bb8:	8b 51 18             	mov    0x18(%ecx),%edx
    5bbb:	8b 4d 10             	mov    0x10(%ebp),%ecx
    5bbe:	8b 41 14             	mov    0x14(%ecx),%eax
    5bc1:	29 d0                	sub    %edx,%eax
    5bc3:	89 45 f0             	mov    %eax,0xfffffff0(%ebp)
    5bc6:	8b 45 08             	mov    0x8(%ebp),%eax
    5bc9:	89 45 e8             	mov    %eax,0xffffffe8(%ebp)
    5bcc:	8b 45 f0             	mov    0xfffffff0(%ebp),%eax
    5bcf:	3b 45 0c             	cmp    0xc(%ebp),%eax
    5bd2:	76 06                	jbe    5bda <_stdio_fwrite+0x284>
    5bd4:	8b 45 0c             	mov    0xc(%ebp),%eax
    5bd7:	89 45 f0             	mov    %eax,0xfffffff0(%ebp)
    5bda:	8b 55 f0             	mov    0xfffffff0(%ebp),%edx
    5bdd:	8d 45 0c             	lea    0xc(%ebp),%eax
    5be0:	29 10                	sub    %edx,(%eax)
    5be2:	83 7d f0 00          	cmpl   $0x0,0xfffffff0(%ebp)
    5be6:	75 02                	jne    5bea <_stdio_fwrite+0x294>
    5be8:	eb 1f                	jmp    5c09 <_stdio_fwrite+0x2b3>
    5bea:	8b 55 10             	mov    0x10(%ebp),%edx
    5bed:	8b 42 18             	mov    0x18(%edx),%eax
    5bf0:	89 c2                	mov    %eax,%edx
    5bf2:	8b 45 08             	mov    0x8(%ebp),%eax
    5bf5:	8a 00                	mov    (%eax),%al
    5bf7:	88 02                	mov    %al,(%edx)
    5bf9:	ff 45 08             	incl   0x8(%ebp)
    5bfc:	8b 4d 10             	mov    0x10(%ebp),%ecx
    5bff:	ff 41 18             	incl   0x18(%ecx)
    5c02:	8d 45 f0             	lea    0xfffffff0(%ebp),%eax
    5c05:	ff 08                	decl   (%eax)
    5c07:	eb d9                	jmp    5be2 <_stdio_fwrite+0x28c>
    5c09:	83 7d f4 00          	cmpl   $0x0,0xfffffff4(%ebp)
    5c0d:	74 35                	je     5c44 <_stdio_fwrite+0x2ee>
    5c0f:	83 7d 0c 00          	cmpl   $0x0,0xc(%ebp)
    5c13:	74 05                	je     5c1a <_stdio_fwrite+0x2c4>
    5c15:	e9 77 fe ff ff       	jmp    5a91 <_stdio_fwrite+0x13b>
    5c1a:	8b 55 10             	mov    0x10(%ebp),%edx
    5c1d:	0f b7 02             	movzwl (%edx),%eax
    5c20:	25 00 01 00 00       	and    $0x100,%eax
    5c25:	85 c0                	test   %eax,%eax
    5c27:	74 1b                	je     5c44 <_stdio_fwrite+0x2ee>
    5c29:	8b 4d e8             	mov    0xffffffe8(%ebp),%ecx
    5c2c:	3b 4d 08             	cmp    0x8(%ebp),%ecx
    5c2f:	72 02                	jb     5c33 <_stdio_fwrite+0x2dd>
    5c31:	eb 11                	jmp    5c44 <_stdio_fwrite+0x2ee>
    5c33:	8b 55 e8             	mov    0xffffffe8(%ebp),%edx
    5c36:	8a 02                	mov    (%edx),%al
    5c38:	ff 45 e8             	incl   0xffffffe8(%ebp)
    5c3b:	3c 0a                	cmp    $0xa,%al
    5c3d:	75 ea                	jne    5c29 <_stdio_fwrite+0x2d3>
    5c3f:	e9 4d fe ff ff       	jmp    5a91 <_stdio_fwrite+0x13b>
    5c44:	8b 4d 10             	mov    0x10(%ebp),%ecx
    5c47:	0f b7 01             	movzwl (%ecx),%eax
    5c4a:	25 08 0b 00 00       	and    $0xb08,%eax
    5c4f:	85 c0                	test   %eax,%eax
    5c51:	75 0c                	jne    5c5f <_stdio_fwrite+0x309>
    5c53:	8b 55 10             	mov    0x10(%ebp),%edx
    5c56:	8b 42 14             	mov    0x14(%edx),%eax
    5c59:	8b 4d 10             	mov    0x10(%ebp),%ecx
    5c5c:	89 41 24             	mov    %eax,0x24(%ecx)
    5c5f:	8b 45 10             	mov    0x10(%ebp),%eax
    5c62:	66 81 08 00 20       	orw    $0x2000,(%eax)
    5c67:	8b 45 f8             	mov    0xfffffff8(%ebp),%eax
    5c6a:	8b 55 08             	mov    0x8(%ebp),%edx
    5c6d:	29 c2                	sub    %eax,%edx
    5c6f:	89 d0                	mov    %edx,%eax
    5c71:	89 45 ec             	mov    %eax,0xffffffec(%ebp)
    5c74:	8b 45 ec             	mov    0xffffffec(%ebp),%eax
    5c77:	c9                   	leave  
    5c78:	c3                   	ret    
    5c79:	90                   	nop    
    5c7a:	90                   	nop    
    5c7b:	90                   	nop    

00005c7c <_stdio_lseek>:
    5c7c:	55                   	push   %ebp
    5c7d:	89 e5                	mov    %esp,%ebp
    5c7f:	83 ec 08             	sub    $0x8,%esp
    5c82:	8b 45 08             	mov    0x8(%ebp),%eax
    5c85:	83 ec 04             	sub    $0x4,%esp
    5c88:	ff 75 10             	pushl  0x10(%ebp)
    5c8b:	8b 55 0c             	mov    0xc(%ebp),%edx
    5c8e:	ff 32                	pushl  (%edx)
    5c90:	ff 70 08             	pushl  0x8(%eax)
    5c93:	e8 f8 10 00 00       	call   6d90 <__libc_lseek>
    5c98:	83 c4 10             	add    $0x10,%esp
    5c9b:	89 45 fc             	mov    %eax,0xfffffffc(%ebp)
    5c9e:	83 7d fc 00          	cmpl   $0x0,0xfffffffc(%ebp)
    5ca2:	78 11                	js     5cb5 <_stdio_lseek+0x39>
    5ca4:	8b 45 fc             	mov    0xfffffffc(%ebp),%eax
    5ca7:	8b 55 0c             	mov    0xc(%ebp),%edx
    5caa:	89 02                	mov    %eax,(%edx)
    5cac:	c7 45 f8 00 00 00 00 	movl   $0x0,0xfffffff8(%ebp)
    5cb3:	eb 07                	jmp    5cbc <_stdio_lseek+0x40>
    5cb5:	c7 45 f8 ff ff ff ff 	movl   $0xffffffff,0xfffffff8(%ebp)
    5cbc:	8b 45 f8             	mov    0xfffffff8(%ebp),%eax
    5cbf:	c9                   	leave  
    5cc0:	c3                   	ret    
    5cc1:	90                   	nop    
    5cc2:	90                   	nop    
    5cc3:	90                   	nop    

00005cc4 <_uintmaxtostr>:
    5cc4:	55                   	push   %ebp
    5cc5:	89 e5                	mov    %esp,%ebp
    5cc7:	53                   	push   %ebx
    5cc8:	83 ec 44             	sub    $0x44,%esp
    5ccb:	8b 45 0c             	mov    0xc(%ebp),%eax
    5cce:	8b 55 10             	mov    0x10(%ebp),%edx
    5cd1:	89 45 f0             	mov    %eax,0xfffffff0(%ebp)
    5cd4:	89 55 f4             	mov    %edx,0xfffffff4(%ebp)
    5cd7:	c7 45 ec 00 00 00 00 	movl   $0x0,0xffffffec(%ebp)
    5cde:	83 7d 14 00          	cmpl   $0x0,0x14(%ebp)
    5ce2:	79 30                	jns    5d14 <_uintmaxtostr+0x50>
    5ce4:	8d 45 14             	lea    0x14(%ebp),%eax
    5ce7:	f7 18                	negl   (%eax)
    5ce9:	81 7d f4 ff ff ff 7f 	cmpl   $0x7fffffff,0xfffffff4(%ebp)
    5cf0:	72 22                	jb     5d14 <_uintmaxtostr+0x50>
    5cf2:	81 7d f4 ff ff ff 7f 	cmpl   $0x7fffffff,0xfffffff4(%ebp)
    5cf9:	77 06                	ja     5d01 <_uintmaxtostr+0x3d>
    5cfb:	83 7d f0 ff          	cmpl   $0xffffffff,0xfffffff0(%ebp)
    5cff:	76 13                	jbe    5d14 <_uintmaxtostr+0x50>
    5d01:	8d 45 f0             	lea    0xfffffff0(%ebp),%eax
    5d04:	f7 18                	negl   (%eax)
    5d06:	83 50 04 00          	adcl   $0x0,0x4(%eax)
    5d0a:	f7 58 04             	negl   0x4(%eax)
    5d0d:	c7 45 ec 01 00 00 00 	movl   $0x1,0xffffffec(%ebp)
    5d14:	c7 45 d0 ff ff ff ff 	movl   $0xffffffff,0xffffffd0(%ebp)
    5d1b:	8b 45 18             	mov    0x18(%ebp),%eax
    5d1e:	25 80 00 00 00       	and    $0x80,%eax
    5d23:	89 45 cc             	mov    %eax,0xffffffcc(%ebp)
    5d26:	8b 55 cc             	mov    0xffffffcc(%ebp),%edx
    5d29:	8d 45 18             	lea    0x18(%ebp),%eax
    5d2c:	31 10                	xor    %edx,(%eax)
    5d2e:	83 7d 18 2c          	cmpl   $0x2c,0x18(%ebp)
    5d32:	75 1c                	jne    5d50 <_uintmaxtostr+0x8c>
    5d34:	a1 e8 83 04 00       	mov    0x483e8,%eax
    5d39:	8b 80 a8 09 00 00    	mov    0x9a8(%eax),%eax
    5d3f:	89 45 c8             	mov    %eax,0xffffffc8(%ebp)
    5d42:	80 38 00             	cmpb   $0x0,(%eax)
    5d45:	74 09                	je     5d50 <_uintmaxtostr+0x8c>
    5d47:	8b 45 c8             	mov    0xffffffc8(%ebp),%eax
    5d4a:	0f be 00             	movsbl (%eax),%eax
    5d4d:	89 45 d0             	mov    %eax,0xffffffd0(%ebp)
    5d50:	8b 45 08             	mov    0x8(%ebp),%eax
    5d53:	c6 00 00             	movb   $0x0,(%eax)
    5d56:	ba ff ff ff ff       	mov    $0xffffffff,%edx
    5d5b:	8d 4d 14             	lea    0x14(%ebp),%ecx
    5d5e:	89 4d bc             	mov    %ecx,0xffffffbc(%ebp)
    5d61:	89 d0                	mov    %edx,%eax
    5d63:	8b 4d bc             	mov    0xffffffbc(%ebp),%ecx
    5d66:	ba 00 00 00 00       	mov    $0x0,%edx
    5d6b:	f7 31                	divl   (%ecx)
    5d6d:	89 45 bc             	mov    %eax,0xffffffbc(%ebp)
    5d70:	8b 5d bc             	mov    0xffffffbc(%ebp),%ebx
    5d73:	89 5d e4             	mov    %ebx,0xffffffe4(%ebp)
    5d76:	ba ff ff ff ff       	mov    $0xffffffff,%edx
    5d7b:	8d 45 14             	lea    0x14(%ebp),%eax
    5d7e:	89 45 bc             	mov    %eax,0xffffffbc(%ebp)
    5d81:	89 d0                	mov    %edx,%eax
    5d83:	8b 4d bc             	mov    0xffffffbc(%ebp),%ecx
    5d86:	ba 00 00 00 00       	mov    $0x0,%edx
    5d8b:	f7 31                	divl   (%ecx)
    5d8d:	8d 42 01             	lea    0x1(%edx),%eax
    5d90:	89 45 e0             	mov    %eax,0xffffffe0(%ebp)
    5d93:	8b 45 e0             	mov    0xffffffe0(%ebp),%eax
    5d96:	3b 45 14             	cmp    0x14(%ebp),%eax
    5d99:	75 0c                	jne    5da7 <_uintmaxtostr+0xe3>
    5d9b:	8d 45 e4             	lea    0xffffffe4(%ebp),%eax
    5d9e:	ff 00                	incl   (%eax)
    5da0:	c7 45 e0 00 00 00 00 	movl   $0x0,0xffffffe0(%ebp)
    5da7:	8b 45 f0             	mov    0xfffffff0(%ebp),%eax
    5daa:	89 45 d8             	mov    %eax,0xffffffd8(%ebp)
    5dad:	8b 45 f0             	mov    0xfffffff0(%ebp),%eax
    5db0:	8b 55 f4             	mov    0xfffffff4(%ebp),%edx
    5db3:	89 d0                	mov    %edx,%eax
    5db5:	ba 00 00 00 00       	mov    $0x0,%edx
    5dba:	89 45 dc             	mov    %eax,0xffffffdc(%ebp)
    5dbd:	83 7d d0 00          	cmpl   $0x0,0xffffffd0(%ebp)
    5dc1:	75 49                	jne    5e0c <_uintmaxtostr+0x148>
    5dc3:	a1 e8 83 04 00       	mov    0x483e8,%eax
    5dc8:	8b 98 70 09 00 00    	mov    0x970(%eax),%ebx
    5dce:	29 5d 08             	sub    %ebx,0x8(%ebp)
    5dd1:	83 ec 04             	sub    $0x4,%esp
    5dd4:	a1 e8 83 04 00       	mov    0x483e8,%eax
    5dd9:	ff b0 70 09 00 00    	pushl  0x970(%eax)
    5ddf:	a1 e8 83 04 00       	mov    0x483e8,%eax
    5de4:	ff b0 a4 09 00 00    	pushl  0x9a4(%eax)
    5dea:	ff 75 08             	pushl  0x8(%ebp)
    5ded:	e8 7a 0d 00 00       	call   6b6c <memcpy>
    5df2:	83 c4 10             	add    $0x10,%esp
    5df5:	8b 45 c8             	mov    0xffffffc8(%ebp),%eax
    5df8:	40                   	inc    %eax
    5df9:	80 38 00             	cmpb   $0x0,(%eax)
    5dfc:	74 05                	je     5e03 <_uintmaxtostr+0x13f>
    5dfe:	8d 45 c8             	lea    0xffffffc8(%ebp),%eax
    5e01:	ff 00                	incl   (%eax)
    5e03:	8b 45 c8             	mov    0xffffffc8(%ebp),%eax
    5e06:	0f be 00             	movsbl (%eax),%eax
    5e09:	89 45 d0             	mov    %eax,0xffffffd0(%ebp)
    5e0c:	8d 45 d0             	lea    0xffffffd0(%ebp),%eax
    5e0f:	ff 08                	decl   (%eax)
    5e11:	83 7d dc 00          	cmpl   $0x0,0xffffffdc(%ebp)
    5e15:	0f 84 bb 00 00 00    	je     5ed6 <_uintmaxtostr+0x212>
    5e1b:	8b 55 dc             	mov    0xffffffdc(%ebp),%edx
    5e1e:	8d 45 14             	lea    0x14(%ebp),%eax
    5e21:	89 45 bc             	mov    %eax,0xffffffbc(%ebp)
    5e24:	89 d0                	mov    %edx,%eax
    5e26:	8b 4d bc             	mov    0xffffffbc(%ebp),%ecx
    5e29:	ba 00 00 00 00       	mov    $0x0,%edx
    5e2e:	f7 31                	divl   (%ecx)
    5e30:	89 55 d4             	mov    %edx,0xffffffd4(%ebp)
    5e33:	8b 55 dc             	mov    0xffffffdc(%ebp),%edx
    5e36:	8d 5d 14             	lea    0x14(%ebp),%ebx
    5e39:	89 5d bc             	mov    %ebx,0xffffffbc(%ebp)
    5e3c:	89 d0                	mov    %edx,%eax
    5e3e:	8b 4d bc             	mov    0xffffffbc(%ebp),%ecx
    5e41:	ba 00 00 00 00       	mov    $0x0,%edx
    5e46:	f7 31                	divl   (%ecx)
    5e48:	89 45 bc             	mov    %eax,0xffffffbc(%ebp)
    5e4b:	8b 5d bc             	mov    0xffffffbc(%ebp),%ebx
    5e4e:	89 5d dc             	mov    %ebx,0xffffffdc(%ebp)
    5e51:	8b 55 d8             	mov    0xffffffd8(%ebp),%edx
    5e54:	8d 45 14             	lea    0x14(%ebp),%eax
    5e57:	89 45 bc             	mov    %eax,0xffffffbc(%ebp)
    5e5a:	89 d0                	mov    %edx,%eax
    5e5c:	8b 4d bc             	mov    0xffffffbc(%ebp),%ecx
    5e5f:	ba 00 00 00 00       	mov    $0x0,%edx
    5e64:	f7 31                	divl   (%ecx)
    5e66:	8b 45 e0             	mov    0xffffffe0(%ebp),%eax
    5e69:	0f af 45 d4          	imul   0xffffffd4(%ebp),%eax
    5e6d:	8d 04 10             	lea    (%eax,%edx,1),%eax
    5e70:	89 45 e8             	mov    %eax,0xffffffe8(%ebp)
    5e73:	8b 5d d8             	mov    0xffffffd8(%ebp),%ebx
    5e76:	89 5d b8             	mov    %ebx,0xffffffb8(%ebp)
    5e79:	8d 45 14             	lea    0x14(%ebp),%eax
    5e7c:	89 45 bc             	mov    %eax,0xffffffbc(%ebp)
    5e7f:	8b 45 b8             	mov    0xffffffb8(%ebp),%eax
    5e82:	8b 4d bc             	mov    0xffffffbc(%ebp),%ecx
    5e85:	ba 00 00 00 00       	mov    $0x0,%edx
    5e8a:	f7 31                	divl   (%ecx)
    5e8c:	89 45 b8             	mov    %eax,0xffffffb8(%ebp)
    5e8f:	8b 45 e4             	mov    0xffffffe4(%ebp),%eax
    5e92:	0f af 45 d4          	imul   0xffffffd4(%ebp),%eax
    5e96:	8b 4d b8             	mov    0xffffffb8(%ebp),%ecx
    5e99:	01 c1                	add    %eax,%ecx
    5e9b:	8b 55 e8             	mov    0xffffffe8(%ebp),%edx
    5e9e:	8d 5d 14             	lea    0x14(%ebp),%ebx
    5ea1:	89 5d bc             	mov    %ebx,0xffffffbc(%ebp)
    5ea4:	89 d0                	mov    %edx,%eax
    5ea6:	8b 5d bc             	mov    0xffffffbc(%ebp),%ebx
    5ea9:	ba 00 00 00 00       	mov    $0x0,%edx
    5eae:	f7 33                	divl   (%ebx)
    5eb0:	89 45 bc             	mov    %eax,0xffffffbc(%ebp)
    5eb3:	8b 55 bc             	mov    0xffffffbc(%ebp),%edx
    5eb6:	8d 04 0a             	lea    (%edx,%ecx,1),%eax
    5eb9:	89 45 d8             	mov    %eax,0xffffffd8(%ebp)
    5ebc:	8b 55 e8             	mov    0xffffffe8(%ebp),%edx
    5ebf:	8d 4d 14             	lea    0x14(%ebp),%ecx
    5ec2:	89 4d bc             	mov    %ecx,0xffffffbc(%ebp)
    5ec5:	89 d0                	mov    %edx,%eax
    5ec7:	8b 4d bc             	mov    0xffffffbc(%ebp),%ecx
    5eca:	ba 00 00 00 00       	mov    $0x0,%edx
    5ecf:	f7 31                	divl   (%ecx)
    5ed1:	89 55 e8             	mov    %edx,0xffffffe8(%ebp)
    5ed4:	eb 36                	jmp    5f0c <_uintmaxtostr+0x248>
    5ed6:	8b 55 d8             	mov    0xffffffd8(%ebp),%edx
    5ed9:	8d 5d 14             	lea    0x14(%ebp),%ebx
    5edc:	89 5d bc             	mov    %ebx,0xffffffbc(%ebp)
    5edf:	89 d0                	mov    %edx,%eax
    5ee1:	8b 4d bc             	mov    0xffffffbc(%ebp),%ecx
    5ee4:	ba 00 00 00 00       	mov    $0x0,%edx
    5ee9:	f7 31                	divl   (%ecx)
    5eeb:	89 55 e8             	mov    %edx,0xffffffe8(%ebp)
    5eee:	8b 55 d8             	mov    0xffffffd8(%ebp),%edx
    5ef1:	8d 5d 14             	lea    0x14(%ebp),%ebx
    5ef4:	89 5d bc             	mov    %ebx,0xffffffbc(%ebp)
    5ef7:	89 d0                	mov    %edx,%eax
    5ef9:	8b 4d bc             	mov    0xffffffbc(%ebp),%ecx
    5efc:	ba 00 00 00 00       	mov    $0x0,%edx
    5f01:	f7 31                	divl   (%ecx)
    5f03:	89 45 bc             	mov    %eax,0xffffffbc(%ebp)
    5f06:	8b 5d bc             	mov    0xffffffbc(%ebp),%ebx
    5f09:	89 5d d8             	mov    %ebx,0xffffffd8(%ebp)
    5f0c:	83 7d cc 00          	cmpl   $0x0,0xffffffcc(%ebp)
    5f10:	74 49                	je     5f5b <_uintmaxtostr+0x297>
    5f12:	a1 e8 83 04 00       	mov    0x483e8,%eax
    5f17:	03 45 e8             	add    0xffffffe8(%ebp),%eax
    5f1a:	05 20 09 00 00       	add    $0x920,%eax
    5f1f:	0f b6 40 0e          	movzbl 0xe(%eax),%eax
    5f23:	29 45 08             	sub    %eax,0x8(%ebp)
    5f26:	83 ec 04             	sub    $0x4,%esp
    5f29:	a1 e8 83 04 00       	mov    0x483e8,%eax
    5f2e:	03 45 e8             	add    0xffffffe8(%ebp),%eax
    5f31:	05 20 09 00 00       	add    $0x920,%eax
    5f36:	0f b6 40 0e          	movzbl 0xe(%eax),%eax
    5f3a:	50                   	push   %eax
    5f3b:	8b 45 e8             	mov    0xffffffe8(%ebp),%eax
    5f3e:	c1 e0 02             	shl    $0x2,%eax
    5f41:	03 05 e8 83 04 00    	add    0x483e8,%eax
    5f47:	05 74 09 00 00       	add    $0x974,%eax
    5f4c:	ff 30                	pushl  (%eax)
    5f4e:	ff 75 08             	pushl  0x8(%ebp)
    5f51:	e8 16 0c 00 00       	call   6b6c <memcpy>
    5f56:	83 c4 10             	add    $0x10,%esp
    5f59:	eb 29                	jmp    5f84 <_uintmaxtostr+0x2c0>
    5f5b:	ff 4d 08             	decl   0x8(%ebp)
    5f5e:	83 7d e8 09          	cmpl   $0x9,0xffffffe8(%ebp)
    5f62:	77 0c                	ja     5f70 <_uintmaxtostr+0x2ac>
    5f64:	8a 45 e8             	mov    0xffffffe8(%ebp),%al
    5f67:	88 45 c7             	mov    %al,0xffffffc7(%ebp)
    5f6a:	80 45 c7 30          	addb   $0x30,0xffffffc7(%ebp)
    5f6e:	eb 0c                	jmp    5f7c <_uintmaxtostr+0x2b8>
    5f70:	8a 55 e8             	mov    0xffffffe8(%ebp),%dl
    5f73:	88 55 c7             	mov    %dl,0xffffffc7(%ebp)
    5f76:	8a 4d 18             	mov    0x18(%ebp),%cl
    5f79:	00 4d c7             	add    %cl,0xffffffc7(%ebp)
    5f7c:	8a 5d c7             	mov    0xffffffc7(%ebp),%bl
    5f7f:	8b 45 08             	mov    0x8(%ebp),%eax
    5f82:	88 18                	mov    %bl,(%eax)
    5f84:	8b 45 dc             	mov    0xffffffdc(%ebp),%eax
    5f87:	0b 45 d8             	or     0xffffffd8(%ebp),%eax
    5f8a:	85 c0                	test   %eax,%eax
    5f8c:	0f 85 2b fe ff ff    	jne    5dbd <_uintmaxtostr+0xf9>
    5f92:	83 7d ec 00          	cmpl   $0x0,0xffffffec(%ebp)
    5f96:	74 09                	je     5fa1 <_uintmaxtostr+0x2dd>
    5f98:	ff 4d 08             	decl   0x8(%ebp)
    5f9b:	8b 55 08             	mov    0x8(%ebp),%edx
    5f9e:	c6 02 2d             	movb   $0x2d,(%edx)
    5fa1:	8b 45 08             	mov    0x8(%ebp),%eax
    5fa4:	8b 5d fc             	mov    0xfffffffc(%ebp),%ebx
    5fa7:	c9                   	leave  
    5fa8:	c3                   	ret    
    5fa9:	90                   	nop    
    5faa:	90                   	nop    
    5fab:	90                   	nop    

00005fac <vsnprintf>:
    5fac:	55                   	push   %ebp
    5fad:	89 e5                	mov    %esp,%ebp
    5faf:	83 ec 48             	sub    $0x48,%esp
    5fb2:	8b 45 08             	mov    0x8(%ebp),%eax
    5fb5:	89 45 d8             	mov    %eax,0xffffffd8(%ebp)
    5fb8:	89 45 e4             	mov    %eax,0xffffffe4(%ebp)
    5fbb:	89 45 e0             	mov    %eax,0xffffffe0(%ebp)
    5fbe:	89 45 e8             	mov    %eax,0xffffffe8(%ebp)
    5fc1:	b8 ff ff ff ff       	mov    $0xffffffff,%eax
    5fc6:	2b 45 08             	sub    0x8(%ebp),%eax
    5fc9:	39 45 0c             	cmp    %eax,0xc(%ebp)
    5fcc:	76 0b                	jbe    5fd9 <vsnprintf+0x2d>
    5fce:	b8 ff ff ff ff       	mov    $0xffffffff,%eax
    5fd3:	2b 45 08             	sub    0x8(%ebp),%eax
    5fd6:	89 45 0c             	mov    %eax,0xc(%ebp)
    5fd9:	8b 45 0c             	mov    0xc(%ebp),%eax
    5fdc:	03 45 08             	add    0x8(%ebp),%eax
    5fdf:	89 45 dc             	mov    %eax,0xffffffdc(%ebp)
    5fe2:	8b 45 dc             	mov    0xffffffdc(%ebp),%eax
    5fe5:	89 45 ec             	mov    %eax,0xffffffec(%ebp)
    5fe8:	c7 45 d0 fe ff ff ff 	movl   $0xfffffffe,0xffffffd0(%ebp)
    5fef:	66 c7 45 c8 90 20    	movw   $0x2090,0xffffffc8(%ebp)
    5ff5:	66 c7 45 f0 00 00    	movw   $0x0,0xfffffff0(%ebp)
    5ffb:	83 ec 04             	sub    $0x4,%esp
    5ffe:	ff 75 14             	pushl  0x14(%ebp)
    6001:	ff 75 10             	pushl  0x10(%ebp)
    6004:	8d 45 c8             	lea    0xffffffc8(%ebp),%eax
    6007:	50                   	push   %eax
    6008:	e8 78 c0 ff ff       	call   2085 <vfprintf>
    600d:	83 c4 10             	add    $0x10,%esp
    6010:	89 45 c4             	mov    %eax,0xffffffc4(%ebp)
    6013:	83 7d 0c 00          	cmpl   $0x0,0xc(%ebp)
    6017:	74 13                	je     602c <vsnprintf+0x80>
    6019:	8b 45 e0             	mov    0xffffffe0(%ebp),%eax
    601c:	3b 45 dc             	cmp    0xffffffdc(%ebp),%eax
    601f:	75 05                	jne    6026 <vsnprintf+0x7a>
    6021:	8d 45 e0             	lea    0xffffffe0(%ebp),%eax
    6024:	ff 08                	decl   (%eax)
    6026:	8b 45 e0             	mov    0xffffffe0(%ebp),%eax
    6029:	c6 00 00             	movb   $0x0,(%eax)
    602c:	8b 45 c4             	mov    0xffffffc4(%ebp),%eax
    602f:	c9                   	leave  
    6030:	c3                   	ret    
    6031:	90                   	nop    
    6032:	90                   	nop    
    6033:	90                   	nop    

00006034 <_store_inttype>:
    6034:	55                   	push   %ebp
    6035:	89 e5                	mov    %esp,%ebp
    6037:	83 ec 08             	sub    $0x8,%esp
    603a:	8b 45 10             	mov    0x10(%ebp),%eax
    603d:	8b 55 14             	mov    0x14(%ebp),%edx
    6040:	89 45 f8             	mov    %eax,0xfffffff8(%ebp)
    6043:	89 55 fc             	mov    %edx,0xfffffffc(%ebp)
    6046:	81 7d 0c 00 01 00 00 	cmpl   $0x100,0xc(%ebp)
    604d:	75 0a                	jne    6059 <_store_inttype+0x25>
    604f:	8a 45 f8             	mov    0xfffffff8(%ebp),%al
    6052:	8b 55 08             	mov    0x8(%ebp),%edx
    6055:	88 02                	mov    %al,(%edx)
    6057:	eb 35                	jmp    608e <_store_inttype+0x5a>
    6059:	81 7d 0c 00 08 00 00 	cmpl   $0x800,0xc(%ebp)
    6060:	75 10                	jne    6072 <_store_inttype+0x3e>
    6062:	8b 45 f8             	mov    0xfffffff8(%ebp),%eax
    6065:	8b 55 fc             	mov    0xfffffffc(%ebp),%edx
    6068:	8b 4d 08             	mov    0x8(%ebp),%ecx
    606b:	89 01                	mov    %eax,(%ecx)
    606d:	89 51 04             	mov    %edx,0x4(%ecx)
    6070:	eb 1c                	jmp    608e <_store_inttype+0x5a>
    6072:	81 7d 0c 00 02 00 00 	cmpl   $0x200,0xc(%ebp)
    6079:	75 0b                	jne    6086 <_store_inttype+0x52>
    607b:	8b 45 f8             	mov    0xfffffff8(%ebp),%eax
    607e:	8b 55 08             	mov    0x8(%ebp),%edx
    6081:	66 89 02             	mov    %ax,(%edx)
    6084:	eb 08                	jmp    608e <_store_inttype+0x5a>
    6086:	8b 45 f8             	mov    0xfffffff8(%ebp),%eax
    6089:	8b 4d 08             	mov    0x8(%ebp),%ecx
    608c:	89 01                	mov    %eax,(%ecx)
    608e:	c9                   	leave  
    608f:	c3                   	ret    

00006090 <_load_inttype>:
    6090:	55                   	push   %ebp
    6091:	89 e5                	mov    %esp,%ebp
    6093:	83 ec 10             	sub    $0x10,%esp
    6096:	83 7d 10 00          	cmpl   $0x0,0x10(%ebp)
    609a:	78 57                	js     60f3 <_load_inttype+0x63>
    609c:	8b 45 08             	mov    0x8(%ebp),%eax
    609f:	25 00 08 00 00       	and    $0x800,%eax
    60a4:	85 c0                	test   %eax,%eax
    60a6:	74 13                	je     60bb <_load_inttype+0x2b>
    60a8:	8b 4d 0c             	mov    0xc(%ebp),%ecx
    60ab:	8b 01                	mov    (%ecx),%eax
    60ad:	8b 51 04             	mov    0x4(%ecx),%edx
    60b0:	89 45 f0             	mov    %eax,0xfffffff0(%ebp)
    60b3:	89 55 f4             	mov    %edx,0xfffffff4(%ebp)
    60b6:	e9 86 00 00 00       	jmp    6141 <_load_inttype+0xb1>
    60bb:	8b 55 0c             	mov    0xc(%ebp),%edx
    60be:	8b 02                	mov    (%edx),%eax
    60c0:	89 45 fc             	mov    %eax,0xfffffffc(%ebp)
    60c3:	81 7d 08 00 01 00 00 	cmpl   $0x100,0x8(%ebp)
    60ca:	75 07                	jne    60d3 <_load_inttype+0x43>
    60cc:	0f b6 45 fc          	movzbl 0xfffffffc(%ebp),%eax
    60d0:	89 45 fc             	mov    %eax,0xfffffffc(%ebp)
    60d3:	81 7d 08 00 02 00 00 	cmpl   $0x200,0x8(%ebp)
    60da:	75 07                	jne    60e3 <_load_inttype+0x53>
    60dc:	0f b7 45 fc          	movzwl 0xfffffffc(%ebp),%eax
    60e0:	89 45 fc             	mov    %eax,0xfffffffc(%ebp)
    60e3:	8b 45 fc             	mov    0xfffffffc(%ebp),%eax
    60e6:	ba 00 00 00 00       	mov    $0x0,%edx
    60eb:	89 45 f0             	mov    %eax,0xfffffff0(%ebp)
    60ee:	89 55 f4             	mov    %edx,0xfffffff4(%ebp)
    60f1:	eb 4e                	jmp    6141 <_load_inttype+0xb1>
    60f3:	8b 45 08             	mov    0x8(%ebp),%eax
    60f6:	25 00 08 00 00       	and    $0x800,%eax
    60fb:	85 c0                	test   %eax,%eax
    60fd:	74 10                	je     610f <_load_inttype+0x7f>
    60ff:	8b 4d 0c             	mov    0xc(%ebp),%ecx
    6102:	8b 01                	mov    (%ecx),%eax
    6104:	8b 51 04             	mov    0x4(%ecx),%edx
    6107:	89 45 f0             	mov    %eax,0xfffffff0(%ebp)
    610a:	89 55 f4             	mov    %edx,0xfffffff4(%ebp)
    610d:	eb 32                	jmp    6141 <_load_inttype+0xb1>
    610f:	8b 55 0c             	mov    0xc(%ebp),%edx
    6112:	8b 02                	mov    (%edx),%eax
    6114:	89 45 fc             	mov    %eax,0xfffffffc(%ebp)
    6117:	81 7d 08 00 01 00 00 	cmpl   $0x100,0x8(%ebp)
    611e:	75 07                	jne    6127 <_load_inttype+0x97>
    6120:	0f be 45 fc          	movsbl 0xfffffffc(%ebp),%eax
    6124:	89 45 fc             	mov    %eax,0xfffffffc(%ebp)
    6127:	81 7d 08 00 02 00 00 	cmpl   $0x200,0x8(%ebp)
    612e:	75 07                	jne    6137 <_load_inttype+0xa7>
    6130:	0f bf 45 fc          	movswl 0xfffffffc(%ebp),%eax
    6134:	89 45 fc             	mov    %eax,0xfffffffc(%ebp)
    6137:	8b 45 fc             	mov    0xfffffffc(%ebp),%eax
    613a:	99                   	cltd   
    613b:	89 45 f0             	mov    %eax,0xfffffff0(%ebp)
    613e:	89 55 f4             	mov    %edx,0xfffffff4(%ebp)
    6141:	8b 45 f0             	mov    0xfffffff0(%ebp),%eax
    6144:	8b 55 f4             	mov    0xfffffff4(%ebp),%edx
    6147:	c9                   	leave  
    6148:	c3                   	ret    
    6149:	90                   	nop    
    614a:	90                   	nop    
    614b:	90                   	nop    

0000614c <_ppfs_init>:
    614c:	55                   	push   %ebp
    614d:	89 e5                	mov    %esp,%ebp
    614f:	83 ec 18             	sub    $0x18,%esp
    6152:	83 ec 04             	sub    $0x4,%esp
    6155:	68 bc 00 00 00       	push   $0xbc
    615a:	6a 00                	push   $0x0
    615c:	ff 75 08             	pushl  0x8(%ebp)
    615f:	e8 a0 ca ff ff       	call   2c04 <memset>
    6164:	83 c4 10             	add    $0x10,%esp
    6167:	8b 45 08             	mov    0x8(%ebp),%eax
    616a:	ff 48 18             	decl   0x18(%eax)
    616d:	8b 45 0c             	mov    0xc(%ebp),%eax
    6170:	8b 55 08             	mov    0x8(%ebp),%edx
    6173:	89 02                	mov    %eax,(%edx)
    6175:	a1 e8 83 04 00       	mov    0x483e8,%eax
    617a:	80 b8 2c 09 00 00 00 	cmpb   $0x0,0x92c(%eax)
    6181:	74 3a                	je     61bd <_ppfs_init+0x71>
    6183:	66 c7 45 f8 00 00    	movw   $0x0,0xfffffff8(%ebp)
    6189:	8b 45 0c             	mov    0xc(%ebp),%eax
    618c:	89 45 f4             	mov    %eax,0xfffffff4(%ebp)
    618f:	8d 45 f8             	lea    0xfffffff8(%ebp),%eax
    6192:	50                   	push   %eax
    6193:	6a ff                	push   $0xffffffff
    6195:	8d 45 f4             	lea    0xfffffff4(%ebp),%eax
    6198:	50                   	push   %eax
    6199:	6a 00                	push   $0x0
    619b:	e8 3c 0d 00 00       	call   6edc <mbsrtowcs>
    61a0:	83 c4 10             	add    $0x10,%esp
    61a3:	83 f8 ff             	cmp    $0xffffffff,%eax
    61a6:	75 15                	jne    61bd <_ppfs_init+0x71>
    61a8:	8b 45 08             	mov    0x8(%ebp),%eax
    61ab:	c7 00 60 86 00 00    	movl   $0x8660,(%eax)
    61b1:	c7 45 f0 ff ff ff ff 	movl   $0xffffffff,0xfffffff0(%ebp)
    61b8:	e9 91 00 00 00       	jmp    624e <_ppfs_init+0x102>
    61bd:	8b 55 08             	mov    0x8(%ebp),%edx
    61c0:	83 c2 28             	add    $0x28,%edx
    61c3:	89 55 ec             	mov    %edx,0xffffffec(%ebp)
    61c6:	c7 45 fc 09 00 00 00 	movl   $0x9,0xfffffffc(%ebp)
    61cd:	8b 45 ec             	mov    0xffffffec(%ebp),%eax
    61d0:	c7 00 08 00 00 00    	movl   $0x8,(%eax)
    61d6:	83 45 ec 04          	addl   $0x4,0xffffffec(%ebp)
    61da:	8d 45 fc             	lea    0xfffffffc(%ebp),%eax
    61dd:	ff 08                	decl   (%eax)
    61df:	83 7d fc 00          	cmpl   $0x0,0xfffffffc(%ebp)
    61e3:	75 e8                	jne    61cd <_ppfs_init+0x81>
    61e5:	8b 45 0c             	mov    0xc(%ebp),%eax
    61e8:	89 45 e8             	mov    %eax,0xffffffe8(%ebp)
    61eb:	8b 55 e8             	mov    0xffffffe8(%ebp),%edx
    61ee:	80 3a 00             	cmpb   $0x0,(%edx)
    61f1:	75 02                	jne    61f5 <_ppfs_init+0xa9>
    61f3:	eb 4a                	jmp    623f <_ppfs_init+0xf3>
    61f5:	8b 45 e8             	mov    0xffffffe8(%ebp),%eax
    61f8:	80 38 25             	cmpb   $0x25,(%eax)
    61fb:	75 3d                	jne    623a <_ppfs_init+0xee>
    61fd:	ff 45 e8             	incl   0xffffffe8(%ebp)
    6200:	8b 55 e8             	mov    0xffffffe8(%ebp),%edx
    6203:	80 3a 25             	cmpb   $0x25,(%edx)
    6206:	74 32                	je     623a <_ppfs_init+0xee>
    6208:	8b 55 e8             	mov    0xffffffe8(%ebp),%edx
    620b:	8b 45 08             	mov    0x8(%ebp),%eax
    620e:	89 10                	mov    %edx,(%eax)
    6210:	83 ec 0c             	sub    $0xc,%esp
    6213:	ff 75 08             	pushl  0x8(%ebp)
    6216:	e8 8f 03 00 00       	call   65aa <_ppfs_parsespec>
    621b:	83 c4 10             	add    $0x10,%esp
    621e:	89 45 fc             	mov    %eax,0xfffffffc(%ebp)
    6221:	83 7d fc 00          	cmpl   $0x0,0xfffffffc(%ebp)
    6225:	79 09                	jns    6230 <_ppfs_init+0xe4>
    6227:	c7 45 f0 ff ff ff ff 	movl   $0xffffffff,0xfffffff0(%ebp)
    622e:	eb 1e                	jmp    624e <_ppfs_init+0x102>
    6230:	8b 45 08             	mov    0x8(%ebp),%eax
    6233:	8b 00                	mov    (%eax),%eax
    6235:	89 45 e8             	mov    %eax,0xffffffe8(%ebp)
    6238:	eb b1                	jmp    61eb <_ppfs_init+0x9f>
    623a:	ff 45 e8             	incl   0xffffffe8(%ebp)
    623d:	eb ac                	jmp    61eb <_ppfs_init+0x9f>
    623f:	8b 45 0c             	mov    0xc(%ebp),%eax
    6242:	8b 55 08             	mov    0x8(%ebp),%edx
    6245:	89 02                	mov    %eax,(%edx)
    6247:	c7 45 f0 00 00 00 00 	movl   $0x0,0xfffffff0(%ebp)
    624e:	8b 45 f0             	mov    0xfffffff0(%ebp),%eax
    6251:	c9                   	leave  
    6252:	c3                   	ret    
    6253:	90                   	nop    

00006254 <_ppfs_prepargs>:
    6254:	55                   	push   %ebp
    6255:	89 e5                	mov    %esp,%ebp
    6257:	83 ec 08             	sub    $0x8,%esp
    625a:	8b 45 0c             	mov    0xc(%ebp),%eax
    625d:	8b 55 08             	mov    0x8(%ebp),%edx
    6260:	89 42 4c             	mov    %eax,0x4c(%edx)
    6263:	8b 55 08             	mov    0x8(%ebp),%edx
    6266:	8b 42 18             	mov    0x18(%edx),%eax
    6269:	89 45 fc             	mov    %eax,0xfffffffc(%ebp)
    626c:	85 c0                	test   %eax,%eax
    626e:	7e 3e                	jle    62ae <_ppfs_prepargs+0x5a>
    6270:	8b 45 fc             	mov    0xfffffffc(%ebp),%eax
    6273:	8b 55 08             	mov    0x8(%ebp),%edx
    6276:	89 42 1c             	mov    %eax,0x1c(%edx)
    6279:	8b 45 08             	mov    0x8(%ebp),%eax
    627c:	c7 40 18 00 00 00 00 	movl   $0x0,0x18(%eax)
    6283:	8b 55 08             	mov    0x8(%ebp),%edx
    6286:	c7 42 04 00 00 00 00 	movl   $0x0,0x4(%edx)
    628d:	8b 45 08             	mov    0x8(%ebp),%eax
    6290:	c7 40 08 00 00 00 00 	movl   $0x0,0x8(%eax)
    6297:	83 ec 0c             	sub    $0xc,%esp
    629a:	ff 75 08             	pushl  0x8(%ebp)
    629d:	e8 0e 00 00 00       	call   62b0 <_ppfs_setargs>
    62a2:	83 c4 10             	add    $0x10,%esp
    62a5:	8b 45 fc             	mov    0xfffffffc(%ebp),%eax
    62a8:	8b 55 08             	mov    0x8(%ebp),%edx
    62ab:	89 42 18             	mov    %eax,0x18(%edx)
    62ae:	c9                   	leave  
    62af:	c3                   	ret    

000062b0 <_ppfs_setargs>:
    62b0:	55                   	push   %ebp
    62b1:	89 e5                	mov    %esp,%ebp
    62b3:	53                   	push   %ebx
    62b4:	83 ec 0c             	sub    $0xc,%esp
    62b7:	8b 45 08             	mov    0x8(%ebp),%eax
    62ba:	83 c0 50             	add    $0x50,%eax
    62bd:	89 45 f4             	mov    %eax,0xfffffff4(%ebp)
    62c0:	8b 55 08             	mov    0x8(%ebp),%edx
    62c3:	83 7a 18 00          	cmpl   $0x0,0x18(%edx)
    62c7:	0f 85 bc 01 00 00    	jne    6489 <_ppfs_setargs+0x1d9>
    62cd:	8b 4d 08             	mov    0x8(%ebp),%ecx
    62d0:	81 79 08 00 00 00 80 	cmpl   $0x80000000,0x8(%ecx)
    62d7:	75 1d                	jne    62f6 <_ppfs_setargs+0x46>
    62d9:	8b 5d 08             	mov    0x8(%ebp),%ebx
    62dc:	83 43 4c 04          	addl   $0x4,0x4c(%ebx)
    62e0:	8b 55 08             	mov    0x8(%ebp),%edx
    62e3:	8b 42 4c             	mov    0x4c(%edx),%eax
    62e6:	83 e8 04             	sub    $0x4,%eax
    62e9:	8b 00                	mov    (%eax),%eax
    62eb:	8b 4d f4             	mov    0xfffffff4(%ebp),%ecx
    62ee:	89 01                	mov    %eax,(%ecx)
    62f0:	8b 5d 08             	mov    0x8(%ebp),%ebx
    62f3:	89 43 08             	mov    %eax,0x8(%ebx)
    62f6:	8b 45 08             	mov    0x8(%ebp),%eax
    62f9:	81 78 04 00 00 00 80 	cmpl   $0x80000000,0x4(%eax)
    6300:	75 1d                	jne    631f <_ppfs_setargs+0x6f>
    6302:	8b 55 08             	mov    0x8(%ebp),%edx
    6305:	83 42 4c 04          	addl   $0x4,0x4c(%edx)
    6309:	8b 4d 08             	mov    0x8(%ebp),%ecx
    630c:	8b 41 4c             	mov    0x4c(%ecx),%eax
    630f:	83 e8 04             	sub    $0x4,%eax
    6312:	8b 00                	mov    (%eax),%eax
    6314:	8b 5d f4             	mov    0xfffffff4(%ebp),%ebx
    6317:	89 03                	mov    %eax,(%ebx)
    6319:	8b 55 08             	mov    0x8(%ebp),%edx
    631c:	89 42 04             	mov    %eax,0x4(%edx)
    631f:	c7 45 f8 00 00 00 00 	movl   $0x0,0xfffffff8(%ebp)
    6326:	8b 45 f8             	mov    0xfffffff8(%ebp),%eax
    6329:	8b 4d 08             	mov    0x8(%ebp),%ecx
    632c:	3b 41 1c             	cmp    0x1c(%ecx),%eax
    632f:	7c 05                	jl     6336 <_ppfs_setargs+0x86>
    6331:	e9 a7 01 00 00       	jmp    64dd <_ppfs_setargs+0x22d>
    6336:	8b 45 f8             	mov    0xfffffff8(%ebp),%eax
    6339:	89 c2                	mov    %eax,%edx
    633b:	8d 45 f8             	lea    0xfffffff8(%ebp),%eax
    633e:	ff 00                	incl   (%eax)
    6340:	8b 5d 08             	mov    0x8(%ebp),%ebx
    6343:	8b 54 93 28          	mov    0x28(%ebx,%edx,4),%edx
    6347:	89 55 f0             	mov    %edx,0xfffffff0(%ebp)
    634a:	83 7d f0 07          	cmpl   $0x7,0xfffffff0(%ebp)
    634e:	0f 84 d1 00 00 00    	je     6425 <_ppfs_setargs+0x175>
    6354:	83 7d f0 07          	cmpl   $0x7,0xfffffff0(%ebp)
    6358:	7f 21                	jg     637b <_ppfs_setargs+0xcb>
    635a:	83 7d f0 02          	cmpl   $0x2,0xfffffff0(%ebp)
    635e:	0f 84 a6 00 00 00    	je     640a <_ppfs_setargs+0x15a>
    6364:	83 7d f0 02          	cmpl   $0x2,0xfffffff0(%ebp)
    6368:	7f 0c                	jg     6376 <_ppfs_setargs+0xc6>
    636a:	83 7d f0 00          	cmpl   $0x0,0xfffffff0(%ebp)
    636e:	0f 88 f5 00 00 00    	js     6469 <_ppfs_setargs+0x1b9>
    6374:	eb 7b                	jmp    63f1 <_ppfs_setargs+0x141>
    6376:	e9 ee 00 00 00       	jmp    6469 <_ppfs_setargs+0x1b9>
    637b:	81 7d f0 00 02 00 00 	cmpl   $0x200,0xfffffff0(%ebp)
    6382:	74 6d                	je     63f1 <_ppfs_setargs+0x141>
    6384:	81 7d f0 00 02 00 00 	cmpl   $0x200,0xfffffff0(%ebp)
    638b:	7f 14                	jg     63a1 <_ppfs_setargs+0xf1>
    638d:	83 7d f0 08          	cmpl   $0x8,0xfffffff0(%ebp)
    6391:	74 93                	je     6326 <_ppfs_setargs+0x76>
    6393:	81 7d f0 00 01 00 00 	cmpl   $0x100,0xfffffff0(%ebp)
    639a:	74 55                	je     63f1 <_ppfs_setargs+0x141>
    639c:	e9 c8 00 00 00       	jmp    6469 <_ppfs_setargs+0x1b9>
    63a1:	81 7d f0 00 08 00 00 	cmpl   $0x800,0xfffffff0(%ebp)
    63a8:	74 25                	je     63cf <_ppfs_setargs+0x11f>
    63aa:	81 7d f0 00 08 00 00 	cmpl   $0x800,0xfffffff0(%ebp)
    63b1:	7f 0e                	jg     63c1 <_ppfs_setargs+0x111>
    63b3:	81 7d f0 00 04 00 00 	cmpl   $0x400,0xfffffff0(%ebp)
    63ba:	74 35                	je     63f1 <_ppfs_setargs+0x141>
    63bc:	e9 a8 00 00 00       	jmp    6469 <_ppfs_setargs+0x1b9>
    63c1:	81 7d f0 07 08 00 00 	cmpl   $0x807,0xfffffff0(%ebp)
    63c8:	74 7a                	je     6444 <_ppfs_setargs+0x194>
    63ca:	e9 9a 00 00 00       	jmp    6469 <_ppfs_setargs+0x1b9>
    63cf:	8b 45 08             	mov    0x8(%ebp),%eax
    63d2:	83 40 4c 08          	addl   $0x8,0x4c(%eax)
    63d6:	8b 55 08             	mov    0x8(%ebp),%edx
    63d9:	8b 42 4c             	mov    0x4c(%edx),%eax
    63dc:	83 e8 08             	sub    $0x8,%eax
    63df:	8b 50 04             	mov    0x4(%eax),%edx
    63e2:	8b 00                	mov    (%eax),%eax
    63e4:	8b 4d f4             	mov    0xfffffff4(%ebp),%ecx
    63e7:	89 01                	mov    %eax,(%ecx)
    63e9:	89 51 04             	mov    %edx,0x4(%ecx)
    63ec:	e9 8f 00 00 00       	jmp    6480 <_ppfs_setargs+0x1d0>
    63f1:	8b 5d 08             	mov    0x8(%ebp),%ebx
    63f4:	83 43 4c 04          	addl   $0x4,0x4c(%ebx)
    63f8:	8b 55 08             	mov    0x8(%ebp),%edx
    63fb:	8b 42 4c             	mov    0x4c(%edx),%eax
    63fe:	83 e8 04             	sub    $0x4,%eax
    6401:	8b 00                	mov    (%eax),%eax
    6403:	8b 4d f4             	mov    0xfffffff4(%ebp),%ecx
    6406:	89 01                	mov    %eax,(%ecx)
    6408:	eb 76                	jmp    6480 <_ppfs_setargs+0x1d0>
    640a:	8b 5d 08             	mov    0x8(%ebp),%ebx
    640d:	83 43 4c 04          	addl   $0x4,0x4c(%ebx)
    6411:	8b 55 08             	mov    0x8(%ebp),%edx
    6414:	8b 42 4c             	mov    0x4c(%edx),%eax
    6417:	83 e8 04             	sub    $0x4,%eax
    641a:	66 8b 00             	mov    (%eax),%ax
    641d:	8b 4d f4             	mov    0xfffffff4(%ebp),%ecx
    6420:	66 89 01             	mov    %ax,(%ecx)
    6423:	eb 5b                	jmp    6480 <_ppfs_setargs+0x1d0>
    6425:	8b 5d 08             	mov    0x8(%ebp),%ebx
    6428:	83 43 4c 08          	addl   $0x8,0x4c(%ebx)
    642c:	8b 55 08             	mov    0x8(%ebp),%edx
    642f:	8b 42 4c             	mov    0x4c(%edx),%eax
    6432:	83 e8 08             	sub    $0x8,%eax
    6435:	8b 50 04             	mov    0x4(%eax),%edx
    6438:	8b 00                	mov    (%eax),%eax
    643a:	8b 4d f4             	mov    0xfffffff4(%ebp),%ecx
    643d:	89 01                	mov    %eax,(%ecx)
    643f:	89 51 04             	mov    %edx,0x4(%ecx)
    6442:	eb 3c                	jmp    6480 <_ppfs_setargs+0x1d0>
    6444:	8b 5d 08             	mov    0x8(%ebp),%ebx
    6447:	83 43 4c 0c          	addl   $0xc,0x4c(%ebx)
    644b:	8b 55 08             	mov    0x8(%ebp),%edx
    644e:	8b 42 4c             	mov    0x4c(%edx),%eax
    6451:	83 e8 0c             	sub    $0xc,%eax
    6454:	8b 48 08             	mov    0x8(%eax),%ecx
    6457:	8b 50 04             	mov    0x4(%eax),%edx
    645a:	8b 00                	mov    (%eax),%eax
    645c:	8b 5d f4             	mov    0xfffffff4(%ebp),%ebx
    645f:	89 03                	mov    %eax,(%ebx)
    6461:	89 53 04             	mov    %edx,0x4(%ebx)
    6464:	89 4b 08             	mov    %ecx,0x8(%ebx)
    6467:	eb 17                	jmp    6480 <_ppfs_setargs+0x1d0>
    6469:	8b 45 08             	mov    0x8(%ebp),%eax
    646c:	83 40 4c 04          	addl   $0x4,0x4c(%eax)
    6470:	8b 55 08             	mov    0x8(%ebp),%edx
    6473:	8b 42 4c             	mov    0x4c(%edx),%eax
    6476:	83 e8 04             	sub    $0x4,%eax
    6479:	8b 00                	mov    (%eax),%eax
    647b:	8b 4d f4             	mov    0xfffffff4(%ebp),%ecx
    647e:	89 01                	mov    %eax,(%ecx)
    6480:	83 45 f4 0c          	addl   $0xc,0xfffffff4(%ebp)
    6484:	e9 9d fe ff ff       	jmp    6326 <_ppfs_setargs+0x76>
    6489:	8b 5d 08             	mov    0x8(%ebp),%ebx
    648c:	81 7b 08 00 00 00 80 	cmpl   $0x80000000,0x8(%ebx)
    6493:	75 1e                	jne    64b3 <_ppfs_setargs+0x203>
    6495:	8b 45 08             	mov    0x8(%ebp),%eax
    6498:	0f b6 50 24          	movzbl 0x24(%eax),%edx
    649c:	89 d0                	mov    %edx,%eax
    649e:	d1 e0                	shl    %eax
    64a0:	01 d0                	add    %edx,%eax
    64a2:	c1 e0 02             	shl    $0x2,%eax
    64a5:	03 45 f4             	add    0xfffffff4(%ebp),%eax
    64a8:	83 e8 0c             	sub    $0xc,%eax
    64ab:	8b 00                	mov    (%eax),%eax
    64ad:	8b 55 08             	mov    0x8(%ebp),%edx
    64b0:	89 42 08             	mov    %eax,0x8(%edx)
    64b3:	8b 4d 08             	mov    0x8(%ebp),%ecx
    64b6:	81 79 04 00 00 00 80 	cmpl   $0x80000000,0x4(%ecx)
    64bd:	75 1e                	jne    64dd <_ppfs_setargs+0x22d>
    64bf:	8b 5d 08             	mov    0x8(%ebp),%ebx
    64c2:	0f b6 53 25          	movzbl 0x25(%ebx),%edx
    64c6:	89 d0                	mov    %edx,%eax
    64c8:	d1 e0                	shl    %eax
    64ca:	01 d0                	add    %edx,%eax
    64cc:	c1 e0 02             	shl    $0x2,%eax
    64cf:	03 45 f4             	add    0xfffffff4(%ebp),%eax
    64d2:	83 e8 0c             	sub    $0xc,%eax
    64d5:	8b 00                	mov    (%eax),%eax
    64d7:	8b 55 08             	mov    0x8(%ebp),%edx
    64da:	89 42 04             	mov    %eax,0x4(%edx)
    64dd:	8b 4d 08             	mov    0x8(%ebp),%ecx
    64e0:	83 79 08 00          	cmpl   $0x0,0x8(%ecx)
    64e4:	79 1d                	jns    6503 <_ppfs_setargs+0x253>
    64e6:	8b 5d 08             	mov    0x8(%ebp),%ebx
    64e9:	f7 5b 08             	negl   0x8(%ebx)
    64ec:	8b 45 08             	mov    0x8(%ebp),%eax
    64ef:	83 48 10 08          	orl    $0x8,0x10(%eax)
    64f3:	8b 55 08             	mov    0x8(%ebp),%edx
    64f6:	83 62 10 fe          	andl   $0xfffffffe,0x10(%edx)
    64fa:	8b 4d 08             	mov    0x8(%ebp),%ecx
    64fd:	66 c7 41 14 20 00    	movw   $0x20,0x14(%ecx)
    6503:	83 c4 0c             	add    $0xc,%esp
    6506:	5b                   	pop    %ebx
    6507:	c9                   	leave  
    6508:	c3                   	ret    
    6509:	90                   	nop    
    650a:	90                   	nop    
    650b:	90                   	nop    
    650c:	55                   	push   %ebp
    650d:	89 e5                	mov    %esp,%ebp
    650f:	83 ec 04             	sub    $0x4,%esp
    6512:	c7 45 fc 9a 86 00 00 	movl   $0x869a,0xfffffffc(%ebp)
    6519:	83 6d fc 02          	subl   $0x2,0xfffffffc(%ebp)
    651d:	8b 55 fc             	mov    0xfffffffc(%ebp),%edx
    6520:	0f bf 02             	movswl (%edx),%eax
    6523:	3b 45 08             	cmp    0x8(%ebp),%eax
    6526:	75 02                	jne    652a <_ppfs_setargs+0x27a>
    6528:	eb 09                	jmp    6533 <_ppfs_setargs+0x283>
    652a:	81 7d fc 82 86 00 00 	cmpl   $0x8682,0xfffffffc(%ebp)
    6531:	77 e6                	ja     6519 <_ppfs_setargs+0x269>
    6533:	8b 45 fc             	mov    0xfffffffc(%ebp),%eax
    6536:	2d 82 86 00 00       	sub    $0x8682,%eax
    653b:	d1 f8                	sar    %eax
    653d:	0f b6 80 9a 86 00 00 	movzbl 0x869a(%eax),%eax
    6544:	c9                   	leave  
    6545:	c3                   	ret    
    6546:	55                   	push   %ebp
    6547:	89 e5                	mov    %esp,%ebp
    6549:	83 ec 08             	sub    $0x8,%esp
    654c:	83 7d 0c 08          	cmpl   $0x8,0xc(%ebp)
    6550:	75 09                	jne    655b <_ppfs_setargs+0x2ab>
    6552:	c7 45 fc 00 00 00 00 	movl   $0x0,0xfffffffc(%ebp)
    6559:	eb 4a                	jmp    65a5 <_ppfs_setargs+0x2f5>
    655b:	83 7d 08 08          	cmpl   $0x8,0x8(%ebp)
    655f:	74 0a                	je     656b <_ppfs_setargs+0x2bb>
    6561:	8b 45 08             	mov    0x8(%ebp),%eax
    6564:	3b 45 0c             	cmp    0xc(%ebp),%eax
    6567:	74 02                	je     656b <_ppfs_setargs+0x2bb>
    6569:	eb 09                	jmp    6574 <_ppfs_setargs+0x2c4>
    656b:	c7 45 fc 01 00 00 00 	movl   $0x1,0xfffffffc(%ebp)
    6572:	eb 31                	jmp    65a5 <_ppfs_setargs+0x2f5>
    6574:	83 ec 0c             	sub    $0xc,%esp
    6577:	ff 75 08             	pushl  0x8(%ebp)
    657a:	e8 8d ff ff ff       	call   650c <_ppfs_setargs+0x25c>
    657f:	83 c4 10             	add    $0x10,%esp
    6582:	89 45 f8             	mov    %eax,0xfffffff8(%ebp)
    6585:	83 ec 0c             	sub    $0xc,%esp
    6588:	ff 75 0c             	pushl  0xc(%ebp)
    658b:	e8 7c ff ff ff       	call   650c <_ppfs_setargs+0x25c>
    6590:	83 c4 10             	add    $0x10,%esp
    6593:	39 45 f8             	cmp    %eax,0xfffffff8(%ebp)
    6596:	0f 9e c0             	setle  %al
    6599:	0f b6 c0             	movzbl %al,%eax
    659c:	89 45 f8             	mov    %eax,0xfffffff8(%ebp)
    659f:	8b 45 f8             	mov    0xfffffff8(%ebp),%eax
    65a2:	89 45 fc             	mov    %eax,0xfffffffc(%ebp)
    65a5:	8b 45 fc             	mov    0xfffffffc(%ebp),%eax
    65a8:	c9                   	leave  
    65a9:	c3                   	ret    

000065aa <_ppfs_parsespec>:
    65aa:	55                   	push   %ebp
    65ab:	89 e5                	mov    %esp,%ebp
    65ad:	53                   	push   %ebx
    65ae:	81 ec 94 00 00 00    	sub    $0x94,%esp
    65b4:	c7 45 f4 ff ff ff ff 	movl   $0xffffffff,0xfffffff4(%ebp)
    65bb:	c7 45 a8 00 00 00 00 	movl   $0x0,0xffffffa8(%ebp)
    65c2:	c7 45 ac 00 00 00 00 	movl   $0x0,0xffffffac(%ebp)
    65c9:	c7 45 b8 08 00 00 00 	movl   $0x8,0xffffffb8(%ebp)
    65d0:	c7 45 bc 08 00 00 00 	movl   $0x8,0xffffffbc(%ebp)
    65d7:	8b 45 08             	mov    0x8(%ebp),%eax
    65da:	8b 40 18             	mov    0x18(%eax),%eax
    65dd:	89 45 dc             	mov    %eax,0xffffffdc(%ebp)
    65e0:	c7 45 e0 00 00 00 00 	movl   $0x0,0xffffffe0(%ebp)
    65e7:	c7 45 f0 00 00 00 00 	movl   $0x0,0xfffffff0(%ebp)
    65ee:	8b 45 08             	mov    0x8(%ebp),%eax
    65f1:	8b 40 10             	mov    0x10(%eax),%eax
    65f4:	25 80 00 00 00       	and    $0x80,%eax
    65f9:	89 45 ec             	mov    %eax,0xffffffec(%ebp)
    65fc:	8b 45 ec             	mov    0xffffffec(%ebp),%eax
    65ff:	85 c0                	test   %eax,%eax
    6601:	75 0a                	jne    660d <_ppfs_parsespec+0x63>
    6603:	8b 45 08             	mov    0x8(%ebp),%eax
    6606:	8b 00                	mov    (%eax),%eax
    6608:	89 45 80             	mov    %eax,0xffffff80(%ebp)
    660b:	eb 68                	jmp    6675 <_ppfs_parsespec+0xcb>
    660d:	8d 45 88             	lea    0xffffff88(%ebp),%eax
    6610:	89 45 80             	mov    %eax,0xffffff80(%ebp)
    6613:	ff 45 80             	incl   0xffffff80(%ebp)
    6616:	c7 45 e4 00 00 00 00 	movl   $0x0,0xffffffe4(%ebp)
    661d:	8d 45 f8             	lea    0xfffffff8(%ebp),%eax
    6620:	03 45 e4             	add    0xffffffe4(%ebp),%eax
    6623:	8d 48 90             	lea    0xffffff90(%eax),%ecx
    6626:	8b 55 08             	mov    0x8(%ebp),%edx
    6629:	8b 45 e4             	mov    0xffffffe4(%ebp),%eax
    662c:	d1 e0                	shl    %eax
    662e:	03 02                	add    (%edx),%eax
    6630:	83 e8 02             	sub    $0x2,%eax
    6633:	8a 00                	mov    (%eax),%al
    6635:	88 01                	mov    %al,(%ecx)
    6637:	8a 01                	mov    (%ecx),%al
    6639:	0f be c8             	movsbl %al,%ecx
    663c:	8b 55 08             	mov    0x8(%ebp),%edx
    663f:	8b 45 e4             	mov    0xffffffe4(%ebp),%eax
    6642:	d1 e0                	shl    %eax
    6644:	03 02                	add    (%edx),%eax
    6646:	83 e8 02             	sub    $0x2,%eax
    6649:	0f b7 00             	movzwl (%eax),%eax
    664c:	39 c1                	cmp    %eax,%ecx
    664e:	74 0c                	je     665c <_ppfs_parsespec+0xb2>
    6650:	c7 45 84 ff ff ff ff 	movl   $0xffffffff,0xffffff84(%ebp)
    6657:	e9 05 05 00 00       	jmp    6b61 <_ppfs_parsespec+0x5b7>
    665c:	8b 45 e4             	mov    0xffffffe4(%ebp),%eax
    665f:	8d 55 f8             	lea    0xfffffff8(%ebp),%edx
    6662:	01 d0                	add    %edx,%eax
    6664:	8d 50 90             	lea    0xffffff90(%eax),%edx
    6667:	8d 45 e4             	lea    0xffffffe4(%ebp),%eax
    666a:	ff 00                	incl   (%eax)
    666c:	80 3a 00             	cmpb   $0x0,(%edx)
    666f:	75 ac                	jne    661d <_ppfs_parsespec+0x73>
    6671:	c6 45 a7 00          	movb   $0x0,0xffffffa7(%ebp)
    6675:	8b 4d 80             	mov    0xffffff80(%ebp),%ecx
    6678:	89 8d 7c ff ff ff    	mov    %ecx,0xffffff7c(%ebp)
    667e:	8b 5d 80             	mov    0xffffff80(%ebp),%ebx
    6681:	80 3b 2a             	cmpb   $0x2a,(%ebx)
    6684:	75 10                	jne    6696 <_ppfs_parsespec+0xec>
    6686:	8b 45 e0             	mov    0xffffffe0(%ebp),%eax
    6689:	f7 d8                	neg    %eax
    668b:	c7 44 85 b8 00 00 00 	movl   $0x0,0xffffffb8(%ebp,%eax,4)
    6692:	00 
    6693:	ff 45 80             	incl   0xffffff80(%ebp)
    6696:	c7 45 e4 00 00 00 00 	movl   $0x0,0xffffffe4(%ebp)
    669d:	e8 8a 0e 00 00       	call   752c <__ctype_b_loc>
    66a2:	89 c1                	mov    %eax,%ecx
    66a4:	8b 55 80             	mov    0xffffff80(%ebp),%edx
    66a7:	0f be 02             	movsbl (%edx),%eax
    66aa:	8d 14 00             	lea    (%eax,%eax,1),%edx
    66ad:	8b 01                	mov    (%ecx),%eax
    66af:	0f b7 04 10          	movzwl (%eax,%edx,1),%eax
    66b3:	83 e0 08             	and    $0x8,%eax
    66b6:	85 c0                	test   %eax,%eax
    66b8:	75 02                	jne    66bc <_ppfs_parsespec+0x112>
    66ba:	eb 2a                	jmp    66e6 <_ppfs_parsespec+0x13c>
    66bc:	81 7d e4 fe 0f 00 00 	cmpl   $0xffe,0xffffffe4(%ebp)
    66c3:	7f 1c                	jg     66e1 <_ppfs_parsespec+0x137>
    66c5:	8b 55 e4             	mov    0xffffffe4(%ebp),%edx
    66c8:	89 d0                	mov    %edx,%eax
    66ca:	c1 e0 02             	shl    $0x2,%eax
    66cd:	01 d0                	add    %edx,%eax
    66cf:	8d 14 00             	lea    (%eax,%eax,1),%edx
    66d2:	8b 4d 80             	mov    0xffffff80(%ebp),%ecx
    66d5:	0f be 01             	movsbl (%ecx),%eax
    66d8:	8d 04 10             	lea    (%eax,%edx,1),%eax
    66db:	83 e8 30             	sub    $0x30,%eax
    66de:	89 45 e4             	mov    %eax,0xffffffe4(%ebp)
    66e1:	ff 45 80             	incl   0xffffff80(%ebp)
    66e4:	eb b7                	jmp    669d <_ppfs_parsespec+0xf3>
    66e6:	8b 9d 7c ff ff ff    	mov    0xffffff7c(%ebp),%ebx
    66ec:	80 7b ff 25          	cmpb   $0x25,0xffffffff(%ebx)
    66f0:	0f 85 dc 00 00 00    	jne    67d2 <_ppfs_parsespec+0x228>
    66f6:	8b 45 80             	mov    0xffffff80(%ebp),%eax
    66f9:	80 38 24             	cmpb   $0x24,(%eax)
    66fc:	75 2e                	jne    672c <_ppfs_parsespec+0x182>
    66fe:	83 7d e4 00          	cmpl   $0x0,0xffffffe4(%ebp)
    6702:	7e 28                	jle    672c <_ppfs_parsespec+0x182>
    6704:	ff 45 80             	incl   0xffffff80(%ebp)
    6707:	83 7d dc 00          	cmpl   $0x0,0xffffffdc(%ebp)
    670b:	75 0c                	jne    6719 <_ppfs_parsespec+0x16f>
    670d:	c7 45 84 ff ff ff ff 	movl   $0xffffffff,0xffffff84(%ebp)
    6714:	e9 48 04 00 00       	jmp    6b61 <_ppfs_parsespec+0x5b7>
    6719:	8b 45 e4             	mov    0xffffffe4(%ebp),%eax
    671c:	89 45 b0             	mov    %eax,0xffffffb0(%ebp)
    671f:	3b 45 dc             	cmp    0xffffffdc(%ebp),%eax
    6722:	7e 42                	jle    6766 <_ppfs_parsespec+0x1bc>
    6724:	8b 45 e4             	mov    0xffffffe4(%ebp),%eax
    6727:	89 45 dc             	mov    %eax,0xffffffdc(%ebp)
    672a:	eb 3a                	jmp    6766 <_ppfs_parsespec+0x1bc>
    672c:	83 7d dc 00          	cmpl   $0x0,0xffffffdc(%ebp)
    6730:	7e 0c                	jle    673e <_ppfs_parsespec+0x194>
    6732:	c7 45 84 ff ff ff ff 	movl   $0xffffffff,0xffffff84(%ebp)
    6739:	e9 23 04 00 00       	jmp    6b61 <_ppfs_parsespec+0x5b7>
    673e:	c7 45 dc 00 00 00 00 	movl   $0x0,0xffffffdc(%ebp)
    6745:	8b 95 7c ff ff ff    	mov    0xffffff7c(%ebp),%edx
    674b:	39 55 80             	cmp    %edx,0xffffff80(%ebp)
    674e:	76 0d                	jbe    675d <_ppfs_parsespec+0x1b3>
    6750:	8b 8d 7c ff ff ff    	mov    0xffffff7c(%ebp),%ecx
    6756:	80 39 30             	cmpb   $0x30,(%ecx)
    6759:	74 02                	je     675d <_ppfs_parsespec+0x1b3>
    675b:	eb 75                	jmp    67d2 <_ppfs_parsespec+0x228>
    675d:	8b 9d 7c ff ff ff    	mov    0xffffff7c(%ebp),%ebx
    6763:	89 5d 80             	mov    %ebx,0xffffff80(%ebp)
    6766:	c7 45 e4 01 00 00 00 	movl   $0x1,0xffffffe4(%ebp)
    676d:	c7 85 7c ff ff ff a6 	movl   $0x86a6,0xffffff7c(%ebp)
    6774:	86 00 00 
    6777:	8b 95 7c ff ff ff    	mov    0xffffff7c(%ebp),%edx
    677d:	8a 02                	mov    (%edx),%al
    677f:	ff 85 7c ff ff ff    	incl   0xffffff7c(%ebp)
    6785:	8b 4d 80             	mov    0xffffff80(%ebp),%ecx
    6788:	38 01                	cmp    %al,(%ecx)
    678a:	75 0d                	jne    6799 <_ppfs_parsespec+0x1ef>
    678c:	ff 45 80             	incl   0xffffff80(%ebp)
    678f:	8b 55 e4             	mov    0xffffffe4(%ebp),%edx
    6792:	8d 45 ec             	lea    0xffffffec(%ebp),%eax
    6795:	09 10                	or     %edx,(%eax)
    6797:	eb cd                	jmp    6766 <_ppfs_parsespec+0x1bc>
    6799:	8b 55 e4             	mov    0xffffffe4(%ebp),%edx
    679c:	8d 45 e4             	lea    0xffffffe4(%ebp),%eax
    679f:	01 10                	add    %edx,(%eax)
    67a1:	8b 9d 7c ff ff ff    	mov    0xffffff7c(%ebp),%ebx
    67a7:	80 3b 00             	cmpb   $0x0,(%ebx)
    67aa:	75 cb                	jne    6777 <_ppfs_parsespec+0x1cd>
    67ac:	c7 45 e4 00 00 00 00 	movl   $0x0,0xffffffe4(%ebp)
    67b3:	8b 45 ec             	mov    0xffffffec(%ebp),%eax
    67b6:	83 e0 0a             	and    $0xa,%eax
    67b9:	d1 f8                	sar    %eax
    67bb:	89 c2                	mov    %eax,%edx
    67bd:	f7 d2                	not    %edx
    67bf:	8d 45 ec             	lea    0xffffffec(%ebp),%eax
    67c2:	21 10                	and    %edx,(%eax)
    67c4:	8b 45 80             	mov    0xffffff80(%ebp),%eax
    67c7:	80 78 ff 25          	cmpb   $0x25,0xffffffff(%eax)
    67cb:	74 05                	je     67d2 <_ppfs_parsespec+0x228>
    67cd:	e9 a3 fe ff ff       	jmp    6675 <_ppfs_parsespec+0xcb>
    67d2:	8b 95 7c ff ff ff    	mov    0xffffff7c(%ebp),%edx
    67d8:	80 3a 2a             	cmpb   $0x2a,(%edx)
    67db:	75 5a                	jne    6837 <_ppfs_parsespec+0x28d>
    67dd:	83 7d dc 00          	cmpl   $0x0,0xffffffdc(%ebp)
    67e1:	74 30                	je     6813 <_ppfs_parsespec+0x269>
    67e3:	8b 4d 80             	mov    0xffffff80(%ebp),%ecx
    67e6:	8a 01                	mov    (%ecx),%al
    67e8:	ff 45 80             	incl   0xffffff80(%ebp)
    67eb:	3c 24                	cmp    $0x24,%al
    67ed:	75 08                	jne    67f7 <_ppfs_parsespec+0x24d>
    67ef:	83 7d e4 00          	cmpl   $0x0,0xffffffe4(%ebp)
    67f3:	7e 02                	jle    67f7 <_ppfs_parsespec+0x24d>
    67f5:	eb 0c                	jmp    6803 <_ppfs_parsespec+0x259>
    67f7:	c7 45 84 ff ff ff ff 	movl   $0xffffffff,0xffffff84(%ebp)
    67fe:	e9 5e 03 00 00       	jmp    6b61 <_ppfs_parsespec+0x5b7>
    6803:	8b 45 e0             	mov    0xffffffe0(%ebp),%eax
    6806:	89 c2                	mov    %eax,%edx
    6808:	f7 da                	neg    %edx
    680a:	8b 45 e4             	mov    0xffffffe4(%ebp),%eax
    680d:	89 44 95 a8          	mov    %eax,0xffffffa8(%ebp,%edx,4)
    6811:	eb 1d                	jmp    6830 <_ppfs_parsespec+0x286>
    6813:	ff 85 7c ff ff ff    	incl   0xffffff7c(%ebp)
    6819:	8b 5d 80             	mov    0xffffff80(%ebp),%ebx
    681c:	39 9d 7c ff ff ff    	cmp    %ebx,0xffffff7c(%ebp)
    6822:	74 0c                	je     6830 <_ppfs_parsespec+0x286>
    6824:	c7 45 84 ff ff ff ff 	movl   $0xffffffff,0xffffff84(%ebp)
    682b:	e9 31 03 00 00       	jmp    6b61 <_ppfs_parsespec+0x5b7>
    6830:	c7 45 e4 00 00 00 80 	movl   $0x80000000,0xffffffe4(%ebp)
    6837:	83 7d e0 00          	cmpl   $0x0,0xffffffe0(%ebp)
    683b:	75 1d                	jne    685a <_ppfs_parsespec+0x2b0>
    683d:	8b 45 e4             	mov    0xffffffe4(%ebp),%eax
    6840:	89 45 f0             	mov    %eax,0xfffffff0(%ebp)
    6843:	8b 45 80             	mov    0xffffff80(%ebp),%eax
    6846:	80 38 2e             	cmpb   $0x2e,(%eax)
    6849:	75 15                	jne    6860 <_ppfs_parsespec+0x2b6>
    684b:	ff 45 80             	incl   0xffffff80(%ebp)
    684e:	c7 45 e0 ff ff ff ff 	movl   $0xffffffff,0xffffffe0(%ebp)
    6855:	e9 1b fe ff ff       	jmp    6675 <_ppfs_parsespec+0xcb>
    685a:	8b 45 e4             	mov    0xffffffe4(%ebp),%eax
    685d:	89 45 f4             	mov    %eax,0xfffffff4(%ebp)
    6860:	c7 85 7c ff ff ff ec 	movl   $0x86ec,0xffffff7c(%ebp)
    6867:	86 00 00 
    686a:	8b 55 80             	mov    0xffffff80(%ebp),%edx
    686d:	8a 02                	mov    (%edx),%al
    686f:	8b 8d 7c ff ff ff    	mov    0xffffff7c(%ebp),%ecx
    6875:	3a 01                	cmp    (%ecx),%al
    6877:	75 05                	jne    687e <_ppfs_parsespec+0x2d4>
    6879:	ff 45 80             	incl   0xffffff80(%ebp)
    687c:	eb 11                	jmp    688f <_ppfs_parsespec+0x2e5>
    687e:	ff 85 7c ff ff ff    	incl   0xffffff7c(%ebp)
    6884:	8b 9d 7c ff ff ff    	mov    0xffffff7c(%ebp),%ebx
    688a:	80 3b 00             	cmpb   $0x0,(%ebx)
    688d:	75 db                	jne    686a <_ppfs_parsespec+0x2c0>
    688f:	8b 85 7c ff ff ff    	mov    0xffffff7c(%ebp),%eax
    6895:	2d ec 86 00 00       	sub    $0x86ec,%eax
    689a:	83 f8 01             	cmp    $0x1,%eax
    689d:	7f 19                	jg     68b8 <_ppfs_parsespec+0x30e>
    689f:	8b 55 80             	mov    0xffffff80(%ebp),%edx
    68a2:	8a 02                	mov    (%edx),%al
    68a4:	8b 8d 7c ff ff ff    	mov    0xffffff7c(%ebp),%ecx
    68aa:	3a 01                	cmp    (%ecx),%al
    68ac:	75 0a                	jne    68b8 <_ppfs_parsespec+0x30e>
    68ae:	83 85 7c ff ff ff 09 	addl   $0x9,0xffffff7c(%ebp)
    68b5:	ff 45 80             	incl   0xffffff80(%ebp)
    68b8:	8b 9d 7c ff ff ff    	mov    0xffffff7c(%ebp),%ebx
    68be:	0f be 43 09          	movsbl 0x9(%ebx),%eax
    68c2:	c1 e0 08             	shl    $0x8,%eax
    68c5:	89 45 e8             	mov    %eax,0xffffffe8(%ebp)
    68c8:	8b 45 80             	mov    0xffffff80(%ebp),%eax
    68cb:	80 38 00             	cmpb   $0x0,(%eax)
    68ce:	75 0c                	jne    68dc <_ppfs_parsespec+0x332>
    68d0:	c7 45 84 ff ff ff ff 	movl   $0xffffffff,0xffffff84(%ebp)
    68d7:	e9 85 02 00 00       	jmp    6b61 <_ppfs_parsespec+0x5b7>
    68dc:	c7 85 7c ff ff ff ae 	movl   $0x86ae,0xffffff7c(%ebp)
    68e3:	86 00 00 
    68e6:	8b 55 80             	mov    0xffffff80(%ebp),%edx
    68e9:	8a 02                	mov    (%edx),%al
    68eb:	8b 8d 7c ff ff ff    	mov    0xffffff7c(%ebp),%ecx
    68f1:	3a 01                	cmp    (%ecx),%al
    68f3:	0f 85 89 00 00 00    	jne    6982 <_ppfs_parsespec+0x3d8>
    68f9:	8b 85 7c ff ff ff    	mov    0xffffff7c(%ebp),%eax
    68ff:	2d ae 86 00 00       	sub    $0x86ae,%eax
    6904:	89 45 d8             	mov    %eax,0xffffffd8(%ebp)
    6907:	83 7d d8 11          	cmpl   $0x11,0xffffffd8(%ebp)
    690b:	7e 12                	jle    691f <_ppfs_parsespec+0x375>
    690d:	8b 45 e8             	mov    0xffffffe8(%ebp),%eax
    6910:	25 00 04 00 00       	and    $0x400,%eax
    6915:	85 c0                	test   %eax,%eax
    6917:	74 06                	je     691f <_ppfs_parsespec+0x375>
    6919:	8d 45 d8             	lea    0xffffffd8(%ebp),%eax
    691c:	83 28 02             	subl   $0x2,(%eax)
    691f:	8b 45 08             	mov    0x8(%ebp),%eax
    6922:	8b 55 d8             	mov    0xffffffd8(%ebp),%edx
    6925:	89 50 20             	mov    %edx,0x20(%eax)
    6928:	b8 c3 86 00 00       	mov    $0x86c3,%eax
    692d:	48                   	dec    %eax
    692e:	89 85 7c ff ff ff    	mov    %eax,0xffffff7c(%ebp)
    6934:	ff 85 7c ff ff ff    	incl   0xffffff7c(%ebp)
    693a:	8b 9d 7c ff ff ff    	mov    0xffffff7c(%ebp),%ebx
    6940:	0f be 03             	movsbl (%ebx),%eax
    6943:	39 45 d8             	cmp    %eax,0xffffffd8(%ebp)
    6946:	7f ec                	jg     6934 <_ppfs_parsespec+0x38a>
    6948:	8b 85 7c ff ff ff    	mov    0xffffff7c(%ebp),%eax
    694e:	2d c3 86 00 00       	sub    $0x86c3,%eax
    6953:	89 45 e4             	mov    %eax,0xffffffe4(%ebp)
    6956:	8b 45 e4             	mov    0xffffffe4(%ebp),%eax
    6959:	0f bf 84 00 cc 86 00 	movswl 0x86cc(%eax,%eax,1),%eax
    6960:	00 
    6961:	89 c2                	mov    %eax,%edx
    6963:	0b 55 e8             	or     0xffffffe8(%ebp),%edx
    6966:	8b 45 e4             	mov    0xffffffe4(%ebp),%eax
    6969:	0f bf 84 00 dc 86 00 	movswl 0x86dc(%eax,%eax,1),%eax
    6970:	00 
    6971:	21 d0                	and    %edx,%eax
    6973:	89 45 c0             	mov    %eax,0xffffffc0(%ebp)
    6976:	c7 85 7c ff ff ff ae 	movl   $0x86ae,0xffffff7c(%ebp)
    697d:	86 00 00 
    6980:	eb 15                	jmp    6997 <_ppfs_parsespec+0x3ed>
    6982:	ff 85 7c ff ff ff    	incl   0xffffff7c(%ebp)
    6988:	8b 85 7c ff ff ff    	mov    0xffffff7c(%ebp),%eax
    698e:	80 38 00             	cmpb   $0x0,(%eax)
    6991:	0f 85 4f ff ff ff    	jne    68e6 <_ppfs_parsespec+0x33c>
    6997:	8b 55 08             	mov    0x8(%ebp),%edx
    699a:	8b 4d 80             	mov    0xffffff80(%ebp),%ecx
    699d:	66 0f be 01          	movsbw (%ecx),%ax
    69a1:	66 89 42 0c          	mov    %ax,0xc(%edx)
    69a5:	8b 55 08             	mov    0x8(%ebp),%edx
    69a8:	8b 45 f4             	mov    0xfffffff4(%ebp),%eax
    69ab:	89 42 04             	mov    %eax,0x4(%edx)
    69ae:	8b 55 08             	mov    0x8(%ebp),%edx
    69b1:	8b 45 f0             	mov    0xfffffff0(%ebp),%eax
    69b4:	89 42 08             	mov    %eax,0x8(%edx)
    69b7:	8b 5d 08             	mov    0x8(%ebp),%ebx
    69ba:	89 9d 78 ff ff ff    	mov    %ebx,0xffffff78(%ebp)
    69c0:	8b 45 ec             	mov    0xffffffec(%ebp),%eax
    69c3:	83 e0 04             	and    $0x4,%eax
    69c6:	85 c0                	test   %eax,%eax
    69c8:	74 0b                	je     69d5 <_ppfs_parsespec+0x42b>
    69ca:	66 c7 85 76 ff ff ff 	movw   $0x30,0xffffff76(%ebp)
    69d1:	30 00 
    69d3:	eb 09                	jmp    69de <_ppfs_parsespec+0x434>
    69d5:	66 c7 85 76 ff ff ff 	movw   $0x20,0xffffff76(%ebp)
    69dc:	20 00 
    69de:	66 8b 95 76 ff ff ff 	mov    0xffffff76(%ebp),%dx
    69e5:	8b 85 78 ff ff ff    	mov    0xffffff78(%ebp),%eax
    69eb:	66 89 50 14          	mov    %dx,0x14(%eax)
    69ef:	8b 4d 08             	mov    0x8(%ebp),%ecx
    69f2:	8b 55 ec             	mov    0xffffffec(%ebp),%edx
    69f5:	83 e2 fb             	and    $0xfffffffb,%edx
    69f8:	8b 45 e8             	mov    0xffffffe8(%ebp),%eax
    69fb:	25 00 0f 00 00       	and    $0xf00,%eax
    6a00:	09 d0                	or     %edx,%eax
    6a02:	89 41 10             	mov    %eax,0x10(%ecx)
    6a05:	8b 45 08             	mov    0x8(%ebp),%eax
    6a08:	c7 40 1c 01 00 00 00 	movl   $0x1,0x1c(%eax)
    6a0f:	8b 8d 7c ff ff ff    	mov    0xffffff7c(%ebp),%ecx
    6a15:	80 39 00             	cmpb   $0x0,(%ecx)
    6a18:	75 0c                	jne    6a26 <_ppfs_parsespec+0x47c>
    6a1a:	c7 45 84 ff ff ff ff 	movl   $0xffffffff,0xffffff84(%ebp)
    6a21:	e9 3b 01 00 00       	jmp    6b61 <_ppfs_parsespec+0x5b7>
    6a26:	83 7d dc 00          	cmpl   $0x0,0xffffffdc(%ebp)
    6a2a:	0f 8e ba 00 00 00    	jle    6aea <_ppfs_parsespec+0x540>
    6a30:	c7 45 e4 00 00 00 00 	movl   $0x0,0xffffffe4(%ebp)
    6a37:	83 7d e4 02          	cmpl   $0x2,0xffffffe4(%ebp)
    6a3b:	7f 21                	jg     6a5e <_ppfs_parsespec+0x4b4>
    6a3d:	8b 45 08             	mov    0x8(%ebp),%eax
    6a40:	03 45 e4             	add    0xffffffe4(%ebp),%eax
    6a43:	8d 50 20             	lea    0x20(%eax),%edx
    6a46:	8b 45 e4             	mov    0xffffffe4(%ebp),%eax
    6a49:	8a 44 85 a8          	mov    0xffffffa8(%ebp,%eax,4),%al
    6a4d:	88 42 04             	mov    %al,0x4(%edx)
    6a50:	8a 42 04             	mov    0x4(%edx),%al
    6a53:	0f b6 c0             	movzbl %al,%eax
    6a56:	89 85 70 ff ff ff    	mov    %eax,0xffffff70(%ebp)
    6a5c:	eb 15                	jmp    6a73 <_ppfs_parsespec+0x4c9>
    6a5e:	8b 45 e4             	mov    0xffffffe4(%ebp),%eax
    6a61:	8b 5d b0             	mov    0xffffffb0(%ebp),%ebx
    6a64:	01 c3                	add    %eax,%ebx
    6a66:	89 9d 70 ff ff ff    	mov    %ebx,0xffffff70(%ebp)
    6a6c:	83 ad 70 ff ff ff 02 	subl   $0x2,0xffffff70(%ebp)
    6a73:	8b 85 70 ff ff ff    	mov    0xffffff70(%ebp),%eax
    6a79:	89 45 d4             	mov    %eax,0xffffffd4(%ebp)
    6a7c:	8b 45 d4             	mov    0xffffffd4(%ebp),%eax
    6a7f:	3b 45 dc             	cmp    0xffffffdc(%ebp),%eax
    6a82:	7e 17                	jle    6a9b <_ppfs_parsespec+0x4f1>
    6a84:	8b 45 d4             	mov    0xffffffd4(%ebp),%eax
    6a87:	89 45 dc             	mov    %eax,0xffffffdc(%ebp)
    6a8a:	83 f8 09             	cmp    $0x9,%eax
    6a8d:	7e 0c                	jle    6a9b <_ppfs_parsespec+0x4f1>
    6a8f:	c7 45 84 ff ff ff ff 	movl   $0xffffffff,0xffffff84(%ebp)
    6a96:	e9 c6 00 00 00       	jmp    6b61 <_ppfs_parsespec+0x5b7>
    6a9b:	8d 45 d4             	lea    0xffffffd4(%ebp),%eax
    6a9e:	ff 08                	decl   (%eax)
    6aa0:	83 ec 08             	sub    $0x8,%esp
    6aa3:	8b 45 e4             	mov    0xffffffe4(%ebp),%eax
    6aa6:	ff 74 85 b8          	pushl  0xffffffb8(%ebp,%eax,4)
    6aaa:	8b 55 08             	mov    0x8(%ebp),%edx
    6aad:	8b 45 d4             	mov    0xffffffd4(%ebp),%eax
    6ab0:	ff 74 82 28          	pushl  0x28(%edx,%eax,4)
    6ab4:	e8 8d fa ff ff       	call   6546 <_ppfs_setargs+0x296>
    6ab9:	83 c4 10             	add    $0x10,%esp
    6abc:	85 c0                	test   %eax,%eax
    6abe:	74 11                	je     6ad1 <_ppfs_parsespec+0x527>
    6ac0:	8b 4d 08             	mov    0x8(%ebp),%ecx
    6ac3:	8b 55 d4             	mov    0xffffffd4(%ebp),%edx
    6ac6:	8b 45 e4             	mov    0xffffffe4(%ebp),%eax
    6ac9:	8b 44 85 b8          	mov    0xffffffb8(%ebp,%eax,4),%eax
    6acd:	89 44 91 28          	mov    %eax,0x28(%ecx,%edx,4)
    6ad1:	8d 45 e4             	lea    0xffffffe4(%ebp),%eax
    6ad4:	ff 00                	incl   (%eax)
    6ad6:	8b 45 08             	mov    0x8(%ebp),%eax
    6ad9:	8b 40 1c             	mov    0x1c(%eax),%eax
    6adc:	83 c0 02             	add    $0x2,%eax
    6adf:	39 45 e4             	cmp    %eax,0xffffffe4(%ebp)
    6ae2:	0f 8c 4f ff ff ff    	jl     6a37 <_ppfs_parsespec+0x48d>
    6ae8:	eb 2a                	jmp    6b14 <_ppfs_parsespec+0x56a>
    6aea:	8b 45 08             	mov    0x8(%ebp),%eax
    6aed:	c6 40 26 01          	movb   $0x1,0x26(%eax)
    6af1:	83 ec 04             	sub    $0x4,%esp
    6af4:	8b 45 08             	mov    0x8(%ebp),%eax
    6af7:	8b 40 1c             	mov    0x1c(%eax),%eax
    6afa:	c1 e0 02             	shl    $0x2,%eax
    6afd:	50                   	push   %eax
    6afe:	8d 45 b8             	lea    0xffffffb8(%ebp),%eax
    6b01:	83 c0 08             	add    $0x8,%eax
    6b04:	50                   	push   %eax
    6b05:	8b 45 08             	mov    0x8(%ebp),%eax
    6b08:	83 c0 28             	add    $0x28,%eax
    6b0b:	50                   	push   %eax
    6b0c:	e8 5b 00 00 00       	call   6b6c <memcpy>
    6b11:	83 c4 10             	add    $0x10,%esp
    6b14:	8b 55 08             	mov    0x8(%ebp),%edx
    6b17:	8b 45 dc             	mov    0xffffffdc(%ebp),%eax
    6b1a:	89 42 18             	mov    %eax,0x18(%edx)
    6b1d:	8b 45 08             	mov    0x8(%ebp),%eax
    6b20:	8b 40 10             	mov    0x10(%eax),%eax
    6b23:	25 80 00 00 00       	and    $0x80,%eax
    6b28:	89 45 ec             	mov    %eax,0xffffffec(%ebp)
    6b2b:	8b 45 ec             	mov    0xffffffec(%ebp),%eax
    6b2e:	85 c0                	test   %eax,%eax
    6b30:	75 0d                	jne    6b3f <_ppfs_parsespec+0x595>
    6b32:	8b 45 08             	mov    0x8(%ebp),%eax
    6b35:	ff 45 80             	incl   0xffffff80(%ebp)
    6b38:	8b 55 80             	mov    0xffffff80(%ebp),%edx
    6b3b:	89 10                	mov    %edx,(%eax)
    6b3d:	eb 16                	jmp    6b55 <_ppfs_parsespec+0x5ab>
    6b3f:	8b 4d 08             	mov    0x8(%ebp),%ecx
    6b42:	8b 55 08             	mov    0x8(%ebp),%edx
    6b45:	8d 45 88             	lea    0xffffff88(%ebp),%eax
    6b48:	8b 5d 80             	mov    0xffffff80(%ebp),%ebx
    6b4b:	29 c3                	sub    %eax,%ebx
    6b4d:	89 d8                	mov    %ebx,%eax
    6b4f:	d1 e0                	shl    %eax
    6b51:	03 02                	add    (%edx),%eax
    6b53:	89 01                	mov    %eax,(%ecx)
    6b55:	8b 45 08             	mov    0x8(%ebp),%eax
    6b58:	8b 40 1c             	mov    0x1c(%eax),%eax
    6b5b:	83 c0 02             	add    $0x2,%eax
    6b5e:	89 45 84             	mov    %eax,0xffffff84(%ebp)
    6b61:	8b 45 84             	mov    0xffffff84(%ebp),%eax
    6b64:	8b 5d fc             	mov    0xfffffffc(%ebp),%ebx
    6b67:	c9                   	leave  
    6b68:	c3                   	ret    
    6b69:	90                   	nop    
    6b6a:	90                   	nop    
    6b6b:	90                   	nop    

00006b6c <memcpy>:
    6b6c:	55                   	push   %ebp
    6b6d:	89 e5                	mov    %esp,%ebp
    6b6f:	57                   	push   %edi
    6b70:	56                   	push   %esi
    6b71:	83 ec 0c             	sub    $0xc,%esp
    6b74:	8b 45 10             	mov    0x10(%ebp),%eax
    6b77:	89 c1                	mov    %eax,%ecx
    6b79:	c1 e9 02             	shr    $0x2,%ecx
    6b7c:	8b 45 10             	mov    0x10(%ebp),%eax
    6b7f:	8b 7d 08             	mov    0x8(%ebp),%edi
    6b82:	8b 75 0c             	mov    0xc(%ebp),%esi
    6b85:	f3 a5                	repz movsl %ds:(%esi),%es:(%edi)
    6b87:	a8 02                	test   $0x2,%al
    6b89:	74 02                	je     6b8d <memcpy+0x21>
    6b8b:	66 a5                	movsw  %ds:(%esi),%es:(%edi)
    6b8d:	a8 01                	test   $0x1,%al
    6b8f:	74 01                	je     6b92 <memcpy+0x26>
    6b91:	a4                   	movsb  %ds:(%esi),%es:(%edi)
    6b92:	89 c8                	mov    %ecx,%eax
    6b94:	89 45 f4             	mov    %eax,0xfffffff4(%ebp)
    6b97:	89 f8                	mov    %edi,%eax
    6b99:	89 45 f0             	mov    %eax,0xfffffff0(%ebp)
    6b9c:	89 f0                	mov    %esi,%eax
    6b9e:	89 45 ec             	mov    %eax,0xffffffec(%ebp)
    6ba1:	8b 45 08             	mov    0x8(%ebp),%eax
    6ba4:	83 c4 0c             	add    $0xc,%esp
    6ba7:	5e                   	pop    %esi
    6ba8:	5f                   	pop    %edi
    6ba9:	c9                   	leave  
    6baa:	c3                   	ret    
    6bab:	90                   	nop    

00006bac <strchr>:
    6bac:	55                   	push   %ebp
    6bad:	89 e5                	mov    %esp,%ebp
    6baf:	56                   	push   %esi
    6bb0:	83 ec 04             	sub    $0x4,%esp
    6bb3:	8b 75 08             	mov    0x8(%ebp),%esi
    6bb6:	8b 45 0c             	mov    0xc(%ebp),%eax
    6bb9:	88 c4                	mov    %al,%ah
    6bbb:	ac                   	lods   %ds:(%esi),%al
    6bbc:	38 e0                	cmp    %ah,%al
    6bbe:	74 09                	je     6bc9 <strchr+0x1d>
    6bc0:	84 c0                	test   %al,%al
    6bc2:	75 f7                	jne    6bbb <strchr+0xf>
    6bc4:	be 01 00 00 00       	mov    $0x1,%esi
    6bc9:	89 f0                	mov    %esi,%eax
    6bcb:	48                   	dec    %eax
    6bcc:	89 c2                	mov    %eax,%edx
    6bce:	89 f0                	mov    %esi,%eax
    6bd0:	89 45 f8             	mov    %eax,0xfffffff8(%ebp)
    6bd3:	89 d0                	mov    %edx,%eax
    6bd5:	83 c4 04             	add    $0x4,%esp
    6bd8:	5e                   	pop    %esi
    6bd9:	c9                   	leave  
    6bda:	c3                   	ret    
    6bdb:	90                   	nop    

00006bdc <strncmp>:
    6bdc:	55                   	push   %ebp
    6bdd:	89 e5                	mov    %esp,%ebp
    6bdf:	57                   	push   %edi
    6be0:	56                   	push   %esi
    6be1:	83 ec 0c             	sub    $0xc,%esp
    6be4:	8b 75 08             	mov    0x8(%ebp),%esi
    6be7:	8b 7d 0c             	mov    0xc(%ebp),%edi
    6bea:	8b 4d 10             	mov    0x10(%ebp),%ecx
    6bed:	49                   	dec    %ecx
    6bee:	78 08                	js     6bf8 <strncmp+0x1c>
    6bf0:	ac                   	lods   %ds:(%esi),%al
    6bf1:	ae                   	scas   %es:(%edi),%al
    6bf2:	75 08                	jne    6bfc <strncmp+0x20>
    6bf4:	84 c0                	test   %al,%al
    6bf6:	75 f5                	jne    6bed <strncmp+0x11>
    6bf8:	31 c0                	xor    %eax,%eax
    6bfa:	eb 04                	jmp    6c00 <strncmp+0x24>
    6bfc:	19 c0                	sbb    %eax,%eax
    6bfe:	0c 01                	or     $0x1,%al
    6c00:	89 c2                	mov    %eax,%edx
    6c02:	89 f0                	mov    %esi,%eax
    6c04:	89 45 f4             	mov    %eax,0xfffffff4(%ebp)
    6c07:	89 f8                	mov    %edi,%eax
    6c09:	89 45 f0             	mov    %eax,0xfffffff0(%ebp)
    6c0c:	89 c8                	mov    %ecx,%eax
    6c0e:	89 45 ec             	mov    %eax,0xffffffec(%ebp)
    6c11:	89 d0                	mov    %edx,%eax
    6c13:	83 c4 0c             	add    $0xc,%esp
    6c16:	5e                   	pop    %esi
    6c17:	5f                   	pop    %edi
    6c18:	c9                   	leave  
    6c19:	c3                   	ret    
    6c1a:	90                   	nop    
    6c1b:	90                   	nop    

00006c1c <strndup>:
    6c1c:	55                   	push   %ebp
    6c1d:	89 e5                	mov    %esp,%ebp
    6c1f:	83 ec 08             	sub    $0x8,%esp
    6c22:	83 ec 08             	sub    $0x8,%esp
    6c25:	ff 75 0c             	pushl  0xc(%ebp)
    6c28:	ff 75 08             	pushl  0x8(%ebp)
    6c2b:	e8 48 c0 ff ff       	call   2c78 <strnlen>
    6c30:	83 c4 10             	add    $0x10,%esp
    6c33:	89 45 0c             	mov    %eax,0xc(%ebp)
    6c36:	83 ec 0c             	sub    $0xc,%esp
    6c39:	8b 45 0c             	mov    0xc(%ebp),%eax
    6c3c:	40                   	inc    %eax
    6c3d:	50                   	push   %eax
    6c3e:	e8 bd c8 ff ff       	call   3500 <malloc>
    6c43:	83 c4 10             	add    $0x10,%esp
    6c46:	89 45 fc             	mov    %eax,0xfffffffc(%ebp)
    6c49:	8b 45 fc             	mov    0xfffffffc(%ebp),%eax
    6c4c:	85 c0                	test   %eax,%eax
    6c4e:	74 1e                	je     6c6e <strndup+0x52>
    6c50:	83 ec 04             	sub    $0x4,%esp
    6c53:	ff 75 0c             	pushl  0xc(%ebp)
    6c56:	ff 75 08             	pushl  0x8(%ebp)
    6c59:	ff 75 fc             	pushl  0xfffffffc(%ebp)
    6c5c:	e8 0b ff ff ff       	call   6b6c <memcpy>
    6c61:	83 c4 10             	add    $0x10,%esp
    6c64:	8b 45 0c             	mov    0xc(%ebp),%eax
    6c67:	8b 55 fc             	mov    0xfffffffc(%ebp),%edx
    6c6a:	c6 04 10 00          	movb   $0x0,(%eax,%edx,1)
    6c6e:	8b 45 fc             	mov    0xfffffffc(%ebp),%eax
    6c71:	c9                   	leave  
    6c72:	c3                   	ret    
    6c73:	90                   	nop    

00006c74 <calloc>:
    6c74:	55                   	push   %ebp
    6c75:	89 e5                	mov    %esp,%ebp
    6c77:	83 ec 18             	sub    $0x18,%esp
    6c7a:	8b 45 0c             	mov    0xc(%ebp),%eax
    6c7d:	0f af 45 08          	imul   0x8(%ebp),%eax
    6c81:	89 45 f8             	mov    %eax,0xfffffff8(%ebp)
    6c84:	83 7d 08 00          	cmpl   $0x0,0x8(%ebp)
    6c88:	74 23                	je     6cad <calloc+0x39>
    6c8a:	8b 45 f8             	mov    0xfffffff8(%ebp),%eax
    6c8d:	ba 00 00 00 00       	mov    $0x0,%edx
    6c92:	f7 75 08             	divl   0x8(%ebp)
    6c95:	39 45 0c             	cmp    %eax,0xc(%ebp)
    6c98:	74 13                	je     6cad <calloc+0x39>
    6c9a:	c7 05 24 84 04 00 0c 	movl   $0xc,0x48424
    6ca1:	00 00 00 
    6ca4:	c7 45 f4 00 00 00 00 	movl   $0x0,0xfffffff4(%ebp)
    6cab:	eb 30                	jmp    6cdd <calloc+0x69>
    6cad:	83 ec 0c             	sub    $0xc,%esp
    6cb0:	ff 75 f8             	pushl  0xfffffff8(%ebp)
    6cb3:	e8 48 c8 ff ff       	call   3500 <malloc>
    6cb8:	83 c4 10             	add    $0x10,%esp
    6cbb:	89 45 fc             	mov    %eax,0xfffffffc(%ebp)
    6cbe:	83 7d fc 00          	cmpl   $0x0,0xfffffffc(%ebp)
    6cc2:	74 13                	je     6cd7 <calloc+0x63>
    6cc4:	83 ec 04             	sub    $0x4,%esp
    6cc7:	ff 75 f8             	pushl  0xfffffff8(%ebp)
    6cca:	6a 00                	push   $0x0
    6ccc:	ff 75 fc             	pushl  0xfffffffc(%ebp)
    6ccf:	e8 30 bf ff ff       	call   2c04 <memset>
    6cd4:	83 c4 10             	add    $0x10,%esp
    6cd7:	8b 45 fc             	mov    0xfffffffc(%ebp),%eax
    6cda:	89 45 f4             	mov    %eax,0xfffffff4(%ebp)
    6cdd:	8b 45 f4             	mov    0xfffffff4(%ebp),%eax
    6ce0:	c9                   	leave  
    6ce1:	c3                   	ret    
    6ce2:	90                   	nop    
    6ce3:	90                   	nop    

00006ce4 <__xstat_conv>:
    6ce4:	55                   	push   %ebp
    6ce5:	89 e5                	mov    %esp,%ebp
    6ce7:	8b 55 0c             	mov    0xc(%ebp),%edx
    6cea:	8b 45 08             	mov    0x8(%ebp),%eax
    6ced:	66 8b 00             	mov    (%eax),%ax
    6cf0:	66 89 02             	mov    %ax,(%edx)
    6cf3:	8b 55 0c             	mov    0xc(%ebp),%edx
    6cf6:	8b 45 08             	mov    0x8(%ebp),%eax
    6cf9:	8b 40 04             	mov    0x4(%eax),%eax
    6cfc:	89 42 04             	mov    %eax,0x4(%edx)
    6cff:	8b 55 0c             	mov    0xc(%ebp),%edx
    6d02:	8b 45 08             	mov    0x8(%ebp),%eax
    6d05:	66 8b 40 08          	mov    0x8(%eax),%ax
    6d09:	66 89 42 08          	mov    %ax,0x8(%edx)
    6d0d:	8b 55 0c             	mov    0xc(%ebp),%edx
    6d10:	8b 45 08             	mov    0x8(%ebp),%eax
    6d13:	66 8b 40 0a          	mov    0xa(%eax),%ax
    6d17:	66 89 42 0a          	mov    %ax,0xa(%edx)
    6d1b:	8b 55 0c             	mov    0xc(%ebp),%edx
    6d1e:	8b 45 08             	mov    0x8(%ebp),%eax
    6d21:	66 8b 40 0c          	mov    0xc(%eax),%ax
    6d25:	66 89 42 0c          	mov    %ax,0xc(%edx)
    6d29:	8b 55 0c             	mov    0xc(%ebp),%edx
    6d2c:	8b 45 08             	mov    0x8(%ebp),%eax
    6d2f:	66 8b 40 0e          	mov    0xe(%eax),%ax
    6d33:	66 89 42 0e          	mov    %ax,0xe(%edx)
    6d37:	8b 55 0c             	mov    0xc(%ebp),%edx
    6d3a:	8b 45 08             	mov    0x8(%ebp),%eax
    6d3d:	66 8b 40 10          	mov    0x10(%eax),%ax
    6d41:	66 89 42 10          	mov    %ax,0x10(%edx)
    6d45:	8b 55 0c             	mov    0xc(%ebp),%edx
    6d48:	8b 45 08             	mov    0x8(%ebp),%eax
    6d4b:	8b 40 14             	mov    0x14(%eax),%eax
    6d4e:	89 42 14             	mov    %eax,0x14(%edx)
    6d51:	8b 55 0c             	mov    0xc(%ebp),%edx
    6d54:	8b 45 08             	mov    0x8(%ebp),%eax
    6d57:	8b 40 18             	mov    0x18(%eax),%eax
    6d5a:	89 42 18             	mov    %eax,0x18(%edx)
    6d5d:	8b 55 0c             	mov    0xc(%ebp),%edx
    6d60:	8b 45 08             	mov    0x8(%ebp),%eax
    6d63:	8b 40 1c             	mov    0x1c(%eax),%eax
    6d66:	89 42 1c             	mov    %eax,0x1c(%edx)
    6d69:	8b 55 0c             	mov    0xc(%ebp),%edx
    6d6c:	8b 45 08             	mov    0x8(%ebp),%eax
    6d6f:	8b 40 20             	mov    0x20(%eax),%eax
    6d72:	89 42 20             	mov    %eax,0x20(%edx)
    6d75:	8b 55 0c             	mov    0xc(%ebp),%edx
    6d78:	8b 45 08             	mov    0x8(%ebp),%eax
    6d7b:	8b 40 28             	mov    0x28(%eax),%eax
    6d7e:	89 42 28             	mov    %eax,0x28(%edx)
    6d81:	8b 55 0c             	mov    0xc(%ebp),%edx
    6d84:	8b 45 08             	mov    0x8(%ebp),%eax
    6d87:	8b 40 30             	mov    0x30(%eax),%eax
    6d8a:	89 42 30             	mov    %eax,0x30(%edx)
    6d8d:	c9                   	leave  
    6d8e:	c3                   	ret    
    6d8f:	90                   	nop    

00006d90 <__libc_lseek>:
    6d90:	55                   	push   %ebp
    6d91:	89 e5                	mov    %esp,%ebp
    6d93:	57                   	push   %edi
    6d94:	83 ec 04             	sub    $0x4,%esp
    6d97:	8b 7d 08             	mov    0x8(%ebp),%edi
    6d9a:	8b 4d 0c             	mov    0xc(%ebp),%ecx
    6d9d:	8b 55 10             	mov    0x10(%ebp),%edx
    6da0:	53                   	push   %ebx
    6da1:	89 fb                	mov    %edi,%ebx
    6da3:	b8 13 00 00 00       	mov    $0x13,%eax
    6da8:	cd 80                	int    $0x80
    6daa:	5b                   	pop    %ebx
    6dab:	89 45 f8             	mov    %eax,0xfffffff8(%ebp)
    6dae:	81 7d f8 00 f0 ff ff 	cmpl   $0xfffff000,0xfffffff8(%ebp)
    6db5:	76 11                	jbe    6dc8 <__libc_lseek+0x38>
    6db7:	8b 45 f8             	mov    0xfffffff8(%ebp),%eax
    6dba:	f7 d8                	neg    %eax
    6dbc:	a3 24 84 04 00       	mov    %eax,0x48424
    6dc1:	c7 45 f8 ff ff ff ff 	movl   $0xffffffff,0xfffffff8(%ebp)
    6dc8:	8b 45 f8             	mov    0xfffffff8(%ebp),%eax
    6dcb:	83 c4 04             	add    $0x4,%esp
    6dce:	5f                   	pop    %edi
    6dcf:	c9                   	leave  
    6dd0:	c3                   	ret    
    6dd1:	90                   	nop    
    6dd2:	90                   	nop    
    6dd3:	90                   	nop    

00006dd4 <__locale_mbrtowc_l>:
    6dd4:	55                   	push   %ebp
    6dd5:	89 e5                	mov    %esp,%ebp
    6dd7:	56                   	push   %esi
    6dd8:	53                   	push   %ebx
    6dd9:	83 ec 20             	sub    $0x20,%esp
    6ddc:	8b 45 10             	mov    0x10(%ebp),%eax
    6ddf:	80 b8 2c 09 00 00 01 	cmpb   $0x1,0x92c(%eax)
    6de6:	75 4f                	jne    6e37 <__locale_mbrtowc_l+0x63>
    6de8:	8b 45 0c             	mov    0xc(%ebp),%eax
    6deb:	89 45 f0             	mov    %eax,0xfffffff0(%ebp)
    6dee:	66 c7 45 f4 00 00    	movw   $0x0,0xfffffff4(%ebp)
    6df4:	83 ec 08             	sub    $0x8,%esp
    6df7:	6a 01                	push   $0x1
    6df9:	8d 45 f4             	lea    0xfffffff4(%ebp),%eax
    6dfc:	50                   	push   %eax
    6dfd:	6a ff                	push   $0xffffffff
    6dff:	8d 45 f0             	lea    0xfffffff0(%ebp),%eax
    6e02:	50                   	push   %eax
    6e03:	6a 01                	push   $0x1
    6e05:	ff 75 08             	pushl  0x8(%ebp)
    6e08:	e8 03 01 00 00       	call   6f10 <_wchar_utf8sntowcs>
    6e0d:	83 c4 20             	add    $0x20,%esp
    6e10:	89 45 ec             	mov    %eax,0xffffffec(%ebp)
    6e13:	83 7d ec 01          	cmpl   $0x1,0xffffffec(%ebp)
    6e17:	75 0d                	jne    6e26 <__locale_mbrtowc_l+0x52>
    6e19:	8b 55 0c             	mov    0xc(%ebp),%edx
    6e1c:	8b 45 f0             	mov    0xfffffff0(%ebp),%eax
    6e1f:	29 d0                	sub    %edx,%eax
    6e21:	89 45 e0             	mov    %eax,0xffffffe0(%ebp)
    6e24:	eb 06                	jmp    6e2c <__locale_mbrtowc_l+0x58>
    6e26:	8b 45 ec             	mov    0xffffffec(%ebp),%eax
    6e29:	89 45 e0             	mov    %eax,0xffffffe0(%ebp)
    6e2c:	8b 45 e0             	mov    0xffffffe0(%ebp),%eax
    6e2f:	89 45 e4             	mov    %eax,0xffffffe4(%ebp)
    6e32:	e9 98 00 00 00       	jmp    6ecf <__locale_mbrtowc_l+0xfb>
    6e37:	8b 55 08             	mov    0x8(%ebp),%edx
    6e3a:	8b 45 0c             	mov    0xc(%ebp),%eax
    6e3d:	66 0f b6 00          	movzbw (%eax),%ax
    6e41:	66 89 02             	mov    %ax,(%edx)
    6e44:	66 8b 02             	mov    (%edx),%ax
    6e47:	66 83 f8 7f          	cmp    $0x7f,%ax
    6e4b:	77 11                	ja     6e5e <__locale_mbrtowc_l+0x8a>
    6e4d:	8b 45 0c             	mov    0xc(%ebp),%eax
    6e50:	80 38 00             	cmpb   $0x0,(%eax)
    6e53:	0f 95 c0             	setne  %al
    6e56:	0f b6 c0             	movzbl %al,%eax
    6e59:	89 45 e4             	mov    %eax,0xffffffe4(%ebp)
    6e5c:	eb 71                	jmp    6ecf <__locale_mbrtowc_l+0xfb>
    6e5e:	8b 45 10             	mov    0x10(%ebp),%eax
    6e61:	80 b8 2c 09 00 00 02 	cmpb   $0x2,0x92c(%eax)
    6e68:	75 5e                	jne    6ec8 <__locale_mbrtowc_l+0xf4>
    6e6a:	8b 45 08             	mov    0x8(%ebp),%eax
    6e6d:	66 8b 00             	mov    (%eax),%ax
    6e70:	83 c0 80             	add    $0xffffff80,%eax
    6e73:	66 89 45 ea          	mov    %ax,0xffffffea(%ebp)
    6e77:	8b 5d 08             	mov    0x8(%ebp),%ebx
    6e7a:	8b 75 10             	mov    0x10(%ebp),%esi
    6e7d:	8b 4d 10             	mov    0x10(%ebp),%ecx
    6e80:	66 8b 45 ea          	mov    0xffffffea(%ebp),%ax
    6e84:	66 c1 e8 03          	shr    $0x3,%ax
    6e88:	0f b7 d0             	movzwl %ax,%edx
    6e8b:	8b 81 48 09 00 00    	mov    0x948(%ecx),%eax
    6e91:	0f b6 04 02          	movzbl (%edx,%eax,1),%eax
    6e95:	8d 14 c5 00 00 00 00 	lea    0x0(,%eax,8),%edx
    6e9c:	0f b7 45 ea          	movzwl 0xffffffea(%ebp),%eax
    6ea0:	83 e0 07             	and    $0x7,%eax
    6ea3:	8d 04 10             	lea    (%eax,%edx,1),%eax
    6ea6:	8d 14 00             	lea    (%eax,%eax,1),%edx
    6ea9:	8b 86 4c 09 00 00    	mov    0x94c(%esi),%eax
    6eaf:	66 8b 04 10          	mov    (%eax,%edx,1),%ax
    6eb3:	66 89 03             	mov    %ax,(%ebx)
    6eb6:	8b 45 08             	mov    0x8(%ebp),%eax
    6eb9:	66 83 38 00          	cmpw   $0x0,(%eax)
    6ebd:	74 09                	je     6ec8 <__locale_mbrtowc_l+0xf4>
    6ebf:	c7 45 e4 01 00 00 00 	movl   $0x1,0xffffffe4(%ebp)
    6ec6:	eb 07                	jmp    6ecf <__locale_mbrtowc_l+0xfb>
    6ec8:	c7 45 e4 ff ff ff ff 	movl   $0xffffffff,0xffffffe4(%ebp)
    6ecf:	8b 45 e4             	mov    0xffffffe4(%ebp),%eax
    6ed2:	8d 65 f8             	lea    0xfffffff8(%ebp),%esp
    6ed5:	5b                   	pop    %ebx
    6ed6:	5e                   	pop    %esi
    6ed7:	c9                   	leave  
    6ed8:	c3                   	ret    
    6ed9:	90                   	nop    
    6eda:	90                   	nop    
    6edb:	90                   	nop    

00006edc <mbsrtowcs>:
    6edc:	55                   	push   %ebp
    6edd:	89 e5                	mov    %esp,%ebp
    6edf:	83 ec 08             	sub    $0x8,%esp
    6ee2:	83 ec 0c             	sub    $0xc,%esp
    6ee5:	8b 45 14             	mov    0x14(%ebp),%eax
    6ee8:	89 45 fc             	mov    %eax,0xfffffffc(%ebp)
    6eeb:	83 7d 14 00          	cmpl   $0x0,0x14(%ebp)
    6eef:	75 07                	jne    6ef8 <mbsrtowcs+0x1c>
    6ef1:	c7 45 fc a4 af 04 00 	movl   $0x4afa4,0xfffffffc(%ebp)
    6ef8:	ff 75 fc             	pushl  0xfffffffc(%ebp)
    6efb:	ff 75 10             	pushl  0x10(%ebp)
    6efe:	6a ff                	push   $0xffffffff
    6f00:	ff 75 0c             	pushl  0xc(%ebp)
    6f03:	ff 75 08             	pushl  0x8(%ebp)
    6f06:	e8 ed 03 00 00       	call   72f8 <__mbsnrtowcs>
    6f0b:	83 c4 20             	add    $0x20,%esp
    6f0e:	c9                   	leave  
    6f0f:	c3                   	ret    

00006f10 <_wchar_utf8sntowcs>:
    6f10:	55                   	push   %ebp
    6f11:	89 e5                	mov    %esp,%ebp
    6f13:	83 ec 1c             	sub    $0x1c,%esp
    6f16:	8b 45 10             	mov    0x10(%ebp),%eax
    6f19:	8b 00                	mov    (%eax),%eax
    6f1b:	89 45 e4             	mov    %eax,0xffffffe4(%ebp)
    6f1e:	c7 45 ec 01 00 00 00 	movl   $0x1,0xffffffec(%ebp)
    6f25:	83 7d 08 00          	cmpl   $0x0,0x8(%ebp)
    6f29:	74 0a                	je     6f35 <_wchar_utf8sntowcs+0x25>
    6f2b:	8b 45 08             	mov    0x8(%ebp),%eax
    6f2e:	3b 45 18             	cmp    0x18(%ebp),%eax
    6f31:	74 02                	je     6f35 <_wchar_utf8sntowcs+0x25>
    6f33:	eb 1a                	jmp    6f4f <_wchar_utf8sntowcs+0x3f>
    6f35:	83 7d 08 00          	cmpl   $0x0,0x8(%ebp)
    6f39:	75 07                	jne    6f42 <_wchar_utf8sntowcs+0x32>
    6f3b:	c7 45 0c ff ff ff ff 	movl   $0xffffffff,0xc(%ebp)
    6f42:	8d 45 f6             	lea    0xfffffff6(%ebp),%eax
    6f45:	89 45 08             	mov    %eax,0x8(%ebp)
    6f48:	c7 45 ec 00 00 00 00 	movl   $0x0,0xffffffec(%ebp)
    6f4f:	8b 45 0c             	mov    0xc(%ebp),%eax
    6f52:	89 45 f0             	mov    %eax,0xfffffff0(%ebp)
    6f55:	85 c0                	test   %eax,%eax
    6f57:	75 0c                	jne    6f65 <_wchar_utf8sntowcs+0x55>
    6f59:	c7 45 e8 00 00 00 00 	movl   $0x0,0xffffffe8(%ebp)
    6f60:	e9 01 02 00 00       	jmp    7166 <_wchar_utf8sntowcs+0x256>
    6f65:	8b 45 18             	mov    0x18(%ebp),%eax
    6f68:	0f b7 00             	movzwl (%eax),%eax
    6f6b:	89 45 fc             	mov    %eax,0xfffffffc(%ebp)
    6f6e:	8b 45 fc             	mov    0xfffffffc(%ebp),%eax
    6f71:	85 c0                	test   %eax,%eax
    6f73:	74 39                	je     6fae <_wchar_utf8sntowcs+0x9e>
    6f75:	8b 45 18             	mov    0x18(%ebp),%eax
    6f78:	0f b7 40 02          	movzwl 0x2(%eax),%eax
    6f7c:	89 45 f8             	mov    %eax,0xfffffff8(%ebp)
    6f7f:	8b 45 f8             	mov    0xfffffff8(%ebp),%eax
    6f82:	3d ff ff 00 00       	cmp    $0xffff,%eax
    6f87:	74 0f                	je     6f98 <_wchar_utf8sntowcs+0x88>
    6f89:	83 7d 14 00          	cmpl   $0x0,0x14(%ebp)
    6f8d:	0f 84 ae 01 00 00    	je     7141 <_wchar_utf8sntowcs+0x231>
    6f93:	e9 80 00 00 00       	jmp    7018 <_wchar_utf8sntowcs+0x108>
    6f98:	c7 05 24 84 04 00 54 	movl   $0x54,0x48424
    6f9f:	00 00 00 
    6fa2:	c7 45 e8 ff ff ff ff 	movl   $0xffffffff,0xffffffe8(%ebp)
    6fa9:	e9 b8 01 00 00       	jmp    7166 <_wchar_utf8sntowcs+0x256>
    6fae:	90                   	nop    
    6faf:	83 7d 14 00          	cmpl   $0x0,0x14(%ebp)
    6fb3:	75 05                	jne    6fba <_wchar_utf8sntowcs+0xaa>
    6fb5:	e9 87 01 00 00       	jmp    7141 <_wchar_utf8sntowcs+0x231>
    6fba:	8d 45 14             	lea    0x14(%ebp),%eax
    6fbd:	ff 08                	decl   (%eax)
    6fbf:	8b 45 e4             	mov    0xffffffe4(%ebp),%eax
    6fc2:	0f b6 00             	movzbl (%eax),%eax
    6fc5:	89 45 f8             	mov    %eax,0xfffffff8(%ebp)
    6fc8:	8b 45 f8             	mov    0xfffffff8(%ebp),%eax
    6fcb:	ff 45 e4             	incl   0xffffffe4(%ebp)
    6fce:	83 f8 7f             	cmp    $0x7f,%eax
    6fd1:	0f 86 37 01 00 00    	jbe    710e <_wchar_utf8sntowcs+0x1fe>
    6fd7:	c7 45 fc 40 00 00 00 	movl   $0x40,0xfffffffc(%ebp)
    6fde:	b0 c0                	mov    $0xc0,%al
    6fe0:	8b 4d e4             	mov    0xffffffe4(%ebp),%ecx
    6fe3:	8a 51 ff             	mov    0xffffffff(%ecx),%dl
    6fe6:	28 c2                	sub    %al,%dl
    6fe8:	88 d0                	mov    %dl,%al
    6fea:	3c 3d                	cmp    $0x3d,%al
    6fec:	77 02                	ja     6ff0 <_wchar_utf8sntowcs+0xe0>
    6fee:	eb 6c                	jmp    705c <_wchar_utf8sntowcs+0x14c>
    6ff0:	8b 45 18             	mov    0x18(%ebp),%eax
    6ff3:	8b 55 fc             	mov    0xfffffffc(%ebp),%edx
    6ff6:	66 89 10             	mov    %dx,(%eax)
    6ff9:	8b 45 18             	mov    0x18(%ebp),%eax
    6ffc:	66 c7 40 02 ff ff    	movw   $0xffff,0x2(%eax)
    7002:	c7 05 24 84 04 00 54 	movl   $0x54,0x48424
    7009:	00 00 00 
    700c:	c7 45 e8 ff ff ff ff 	movl   $0xffffffff,0xffffffe8(%ebp)
    7013:	e9 4e 01 00 00       	jmp    7166 <_wchar_utf8sntowcs+0x256>
    7018:	90                   	nop    
    7019:	83 7d 14 00          	cmpl   $0x0,0x14(%ebp)
    701d:	75 05                	jne    7024 <_wchar_utf8sntowcs+0x114>
    701f:	e9 98 00 00 00       	jmp    70bc <_wchar_utf8sntowcs+0x1ac>
    7024:	8d 45 14             	lea    0x14(%ebp),%eax
    7027:	ff 08                	decl   (%eax)
    7029:	8b 55 e4             	mov    0xffffffe4(%ebp),%edx
    702c:	0f be 02             	movsbl (%edx),%eax
    702f:	25 c0 00 00 00       	and    $0xc0,%eax
    7034:	3d 80 00 00 00       	cmp    $0x80,%eax
    7039:	74 02                	je     703d <_wchar_utf8sntowcs+0x12d>
    703b:	eb b3                	jmp    6ff0 <_wchar_utf8sntowcs+0xe0>
    703d:	8d 45 fc             	lea    0xfffffffc(%ebp),%eax
    7040:	c1 20 05             	shll   $0x5,(%eax)
    7043:	8d 45 f8             	lea    0xfffffff8(%ebp),%eax
    7046:	c1 20 06             	shll   $0x6,(%eax)
    7049:	8b 4d e4             	mov    0xffffffe4(%ebp),%ecx
    704c:	0f be 01             	movsbl (%ecx),%eax
    704f:	89 c2                	mov    %eax,%edx
    7051:	83 e2 3f             	and    $0x3f,%edx
    7054:	8d 45 f8             	lea    0xfffffff8(%ebp),%eax
    7057:	01 10                	add    %edx,(%eax)
    7059:	ff 45 e4             	incl   0xffffffe4(%ebp)
    705c:	8b 45 fc             	mov    0xfffffffc(%ebp),%eax
    705f:	d1 e0                	shl    %eax
    7061:	89 c2                	mov    %eax,%edx
    7063:	f7 d2                	not    %edx
    7065:	8d 45 f8             	lea    0xfffffff8(%ebp),%eax
    7068:	21 10                	and    %edx,(%eax)
    706a:	8b 45 fc             	mov    0xfffffffc(%ebp),%eax
    706d:	23 45 f8             	and    0xfffffff8(%ebp),%eax
    7070:	85 c0                	test   %eax,%eax
    7072:	75 a5                	jne    7019 <_wchar_utf8sntowcs+0x109>
    7074:	8d 45 fc             	lea    0xfffffffc(%ebp),%eax
    7077:	c1 28 05             	shrl   $0x5,(%eax)
    707a:	8b 45 fc             	mov    0xfffffffc(%ebp),%eax
    707d:	83 f8 40             	cmp    $0x40,%eax
    7080:	75 08                	jne    708a <_wchar_utf8sntowcs+0x17a>
    7082:	8b 55 fc             	mov    0xfffffffc(%ebp),%edx
    7085:	8d 45 fc             	lea    0xfffffffc(%ebp),%eax
    7088:	01 10                	add    %edx,(%eax)
    708a:	8b 45 f8             	mov    0xfffffff8(%ebp),%eax
    708d:	3b 45 fc             	cmp    0xfffffffc(%ebp),%eax
    7090:	0f 82 5a ff ff ff    	jb     6ff0 <_wchar_utf8sntowcs+0xe0>
    7096:	8b 45 f8             	mov    0xfffffff8(%ebp),%eax
    7099:	2d fe ff 00 00       	sub    $0xfffe,%eax
    709e:	83 f8 01             	cmp    $0x1,%eax
    70a1:	0f 86 49 ff ff ff    	jbe    6ff0 <_wchar_utf8sntowcs+0xe0>
    70a7:	8b 45 f8             	mov    0xfffffff8(%ebp),%eax
    70aa:	2d 00 d8 00 00       	sub    $0xd800,%eax
    70af:	3d ff 07 00 00       	cmp    $0x7ff,%eax
    70b4:	0f 86 36 ff ff ff    	jbe    6ff0 <_wchar_utf8sntowcs+0xe0>
    70ba:	eb 52                	jmp    710e <_wchar_utf8sntowcs+0x1fe>
    70bc:	83 7d 1c 00          	cmpl   $0x0,0x1c(%ebp)
    70c0:	75 28                	jne    70ea <_wchar_utf8sntowcs+0x1da>
    70c2:	8b 45 f0             	mov    0xfffffff0(%ebp),%eax
    70c5:	3b 45 0c             	cmp    0xc(%ebp),%eax
    70c8:	74 0c                	je     70d6 <_wchar_utf8sntowcs+0x1c6>
    70ca:	c7 45 e8 00 00 00 00 	movl   $0x0,0xffffffe8(%ebp)
    70d1:	e9 90 00 00 00       	jmp    7166 <_wchar_utf8sntowcs+0x256>
    70d6:	90                   	nop    
    70d7:	ff 4d e4             	decl   0xffffffe4(%ebp)
    70da:	8d 45 fc             	lea    0xfffffffc(%ebp),%eax
    70dd:	c1 28 05             	shrl   $0x5,(%eax)
    70e0:	8b 45 fc             	mov    0xfffffffc(%ebp),%eax
    70e3:	83 f8 3f             	cmp    $0x3f,%eax
    70e6:	77 ef                	ja     70d7 <_wchar_utf8sntowcs+0x1c7>
    70e8:	eb 57                	jmp    7141 <_wchar_utf8sntowcs+0x231>
    70ea:	8b 55 18             	mov    0x18(%ebp),%edx
    70ed:	8b 45 fc             	mov    0xfffffffc(%ebp),%eax
    70f0:	66 89 02             	mov    %ax,(%edx)
    70f3:	8b 55 18             	mov    0x18(%ebp),%edx
    70f6:	8b 45 f8             	mov    0xfffffff8(%ebp),%eax
    70f9:	66 89 42 02          	mov    %ax,0x2(%edx)
    70fd:	8b 45 10             	mov    0x10(%ebp),%eax
    7100:	8b 55 e4             	mov    0xffffffe4(%ebp),%edx
    7103:	89 10                	mov    %edx,(%eax)
    7105:	c7 45 e8 fe ff ff ff 	movl   $0xfffffffe,0xffffffe8(%ebp)
    710c:	eb 58                	jmp    7166 <_wchar_utf8sntowcs+0x256>
    710e:	8b 55 08             	mov    0x8(%ebp),%edx
    7111:	8b 45 f8             	mov    0xfffffff8(%ebp),%eax
    7114:	66 89 02             	mov    %ax,(%edx)
    7117:	8b 45 ec             	mov    0xffffffec(%ebp),%eax
    711a:	d1 e0                	shl    %eax
    711c:	01 45 08             	add    %eax,0x8(%ebp)
    711f:	83 7d f8 00          	cmpl   $0x0,0xfffffff8(%ebp)
    7123:	74 0f                	je     7134 <_wchar_utf8sntowcs+0x224>
    7125:	8d 45 f0             	lea    0xfffffff0(%ebp),%eax
    7128:	ff 08                	decl   (%eax)
    712a:	83 7d f0 00          	cmpl   $0x0,0xfffffff0(%ebp)
    712e:	0f 85 7b fe ff ff    	jne    6faf <_wchar_utf8sntowcs+0x9f>
    7134:	83 7d f8 00          	cmpl   $0x0,0xfffffff8(%ebp)
    7138:	75 07                	jne    7141 <_wchar_utf8sntowcs+0x231>
    713a:	c7 45 e4 00 00 00 00 	movl   $0x0,0xffffffe4(%ebp)
    7141:	8b 45 18             	mov    0x18(%ebp),%eax
    7144:	66 c7 00 00 00       	movw   $0x0,(%eax)
    7149:	8d 45 f6             	lea    0xfffffff6(%ebp),%eax
    714c:	39 45 08             	cmp    %eax,0x8(%ebp)
    714f:	74 08                	je     7159 <_wchar_utf8sntowcs+0x249>
    7151:	8b 45 10             	mov    0x10(%ebp),%eax
    7154:	8b 4d e4             	mov    0xffffffe4(%ebp),%ecx
    7157:	89 08                	mov    %ecx,(%eax)
    7159:	8b 45 f0             	mov    0xfffffff0(%ebp),%eax
    715c:	8b 55 0c             	mov    0xc(%ebp),%edx
    715f:	29 c2                	sub    %eax,%edx
    7161:	89 d0                	mov    %edx,%eax
    7163:	89 45 e8             	mov    %eax,0xffffffe8(%ebp)
    7166:	8b 45 e8             	mov    0xffffffe8(%ebp),%eax
    7169:	c9                   	leave  
    716a:	c3                   	ret    
    716b:	90                   	nop    

0000716c <_wchar_wcsntoutf8s>:
    716c:	55                   	push   %ebp
    716d:	89 e5                	mov    %esp,%ebp
    716f:	83 ec 48             	sub    $0x48,%esp
    7172:	c7 45 e4 01 00 00 00 	movl   $0x1,0xffffffe4(%ebp)
    7179:	83 7d 08 00          	cmpl   $0x0,0x8(%ebp)
    717d:	74 0a                	je     7189 <_wchar_wcsntoutf8s+0x1d>
    717f:	8b 45 08             	mov    0x8(%ebp),%eax
    7182:	3b 45 10             	cmp    0x10(%ebp),%eax
    7185:	74 02                	je     7189 <_wchar_wcsntoutf8s+0x1d>
    7187:	eb 1a                	jmp    71a3 <_wchar_wcsntoutf8s+0x37>
    7189:	83 7d 08 00          	cmpl   $0x0,0x8(%ebp)
    718d:	75 07                	jne    7196 <_wchar_wcsntoutf8s+0x2a>
    718f:	c7 45 0c ff ff ff ff 	movl   $0xffffffff,0xc(%ebp)
    7196:	8d 45 c8             	lea    0xffffffc8(%ebp),%eax
    7199:	89 45 08             	mov    %eax,0x8(%ebp)
    719c:	c7 45 e4 00 00 00 00 	movl   $0x0,0xffffffe4(%ebp)
    71a3:	8b 45 0c             	mov    0xc(%ebp),%eax
    71a6:	89 45 f0             	mov    %eax,0xfffffff0(%ebp)
    71a9:	8b 45 10             	mov    0x10(%ebp),%eax
    71ac:	8b 00                	mov    (%eax),%eax
    71ae:	89 45 e8             	mov    %eax,0xffffffe8(%ebp)
    71b1:	83 7d 14 00          	cmpl   $0x0,0x14(%ebp)
    71b5:	0f 84 1a 01 00 00    	je     72d5 <_wchar_wcsntoutf8s+0x169>
    71bb:	83 7d f0 00          	cmpl   $0x0,0xfffffff0(%ebp)
    71bf:	75 05                	jne    71c6 <_wchar_wcsntoutf8s+0x5a>
    71c1:	e9 0f 01 00 00       	jmp    72d5 <_wchar_wcsntoutf8s+0x169>
    71c6:	8b 45 e8             	mov    0xffffffe8(%ebp),%eax
    71c9:	8b 00                	mov    (%eax),%eax
    71cb:	89 45 ec             	mov    %eax,0xffffffec(%ebp)
    71ce:	8b 55 08             	mov    0x8(%ebp),%edx
    71d1:	8a 45 ec             	mov    0xffffffec(%ebp),%al
    71d4:	88 02                	mov    %al,(%edx)
    71d6:	c7 45 f4 01 00 00 00 	movl   $0x1,0xfffffff4(%ebp)
    71dd:	83 7d ec 7f          	cmpl   $0x7f,0xffffffec(%ebp)
    71e1:	0f 86 b7 00 00 00    	jbe    729e <_wchar_wcsntoutf8s+0x132>
    71e7:	83 7d ec 00          	cmpl   $0x0,0xffffffec(%ebp)
    71eb:	78 1e                	js     720b <_wchar_wcsntoutf8s+0x9f>
    71ed:	8b 45 ec             	mov    0xffffffec(%ebp),%eax
    71f0:	2d fe ff 00 00       	sub    $0xfffe,%eax
    71f5:	83 f8 01             	cmp    $0x1,%eax
    71f8:	76 11                	jbe    720b <_wchar_wcsntoutf8s+0x9f>
    71fa:	8b 45 ec             	mov    0xffffffec(%ebp),%eax
    71fd:	2d 00 d8 00 00       	sub    $0xd800,%eax
    7202:	3d ff 07 00 00       	cmp    $0x7ff,%eax
    7207:	76 02                	jbe    720b <_wchar_wcsntoutf8s+0x9f>
    7209:	eb 16                	jmp    7221 <_wchar_wcsntoutf8s+0xb5>
    720b:	c7 05 24 84 04 00 54 	movl   $0x54,0x48424
    7212:	00 00 00 
    7215:	c7 45 c0 ff ff ff ff 	movl   $0xffffffff,0xffffffc0(%ebp)
    721c:	e9 cf 00 00 00       	jmp    72f0 <_wchar_wcsntoutf8s+0x184>
    7221:	8d 45 ec             	lea    0xffffffec(%ebp),%eax
    7224:	d1 28                	shrl   (%eax)
    7226:	8b 45 08             	mov    0x8(%ebp),%eax
    7229:	89 45 bc             	mov    %eax,0xffffffbc(%ebp)
    722c:	ff 45 bc             	incl   0xffffffbc(%ebp)
    722f:	8d 45 ec             	lea    0xffffffec(%ebp),%eax
    7232:	c1 28 05             	shrl   $0x5,(%eax)
    7235:	8b 45 ec             	mov    0xffffffec(%ebp),%eax
    7238:	85 c0                	test   %eax,%eax
    723a:	75 f0                	jne    722c <_wchar_wcsntoutf8s+0xc0>
    723c:	8b 45 e8             	mov    0xffffffe8(%ebp),%eax
    723f:	8b 00                	mov    (%eax),%eax
    7241:	89 45 ec             	mov    %eax,0xffffffec(%ebp)
    7244:	8b 45 bc             	mov    0xffffffbc(%ebp),%eax
    7247:	2b 45 08             	sub    0x8(%ebp),%eax
    724a:	89 45 f4             	mov    %eax,0xfffffff4(%ebp)
    724d:	8b 45 f4             	mov    0xfffffff4(%ebp),%eax
    7250:	3b 45 f0             	cmp    0xfffffff0(%ebp),%eax
    7253:	76 02                	jbe    7257 <_wchar_wcsntoutf8s+0xeb>
    7255:	eb 7e                	jmp    72d5 <_wchar_wcsntoutf8s+0x169>
    7257:	c6 45 c7 80          	movb   $0x80,0xffffffc7(%ebp)
    725b:	8b 55 bc             	mov    0xffffffbc(%ebp),%edx
    725e:	3b 55 08             	cmp    0x8(%ebp),%edx
    7261:	77 02                	ja     7265 <_wchar_wcsntoutf8s+0xf9>
    7263:	eb 27                	jmp    728c <_wchar_wcsntoutf8s+0x120>
    7265:	8a 45 c7             	mov    0xffffffc7(%ebp),%al
    7268:	88 c2                	mov    %al,%dl
    726a:	d0 fa                	sar    %dl
    726c:	b0 80                	mov    $0x80,%al
    726e:	09 d0                	or     %edx,%eax
    7270:	88 45 c7             	mov    %al,0xffffffc7(%ebp)
    7273:	ff 4d bc             	decl   0xffffffbc(%ebp)
    7276:	8a 45 ec             	mov    0xffffffec(%ebp),%al
    7279:	83 e0 3f             	and    $0x3f,%eax
    727c:	83 c8 80             	or     $0xffffff80,%eax
    727f:	8b 55 bc             	mov    0xffffffbc(%ebp),%edx
    7282:	88 02                	mov    %al,(%edx)
    7284:	8d 45 ec             	lea    0xffffffec(%ebp),%eax
    7287:	c1 28 06             	shrl   $0x6,(%eax)
    728a:	eb cf                	jmp    725b <_wchar_wcsntoutf8s+0xef>
    728c:	8b 4d 08             	mov    0x8(%ebp),%ecx
    728f:	8b 55 08             	mov    0x8(%ebp),%edx
    7292:	0f be 45 c7          	movsbl 0xffffffc7(%ebp),%eax
    7296:	d1 e0                	shl    %eax
    7298:	0a 02                	or     (%edx),%al
    729a:	88 01                	mov    %al,(%ecx)
    729c:	eb 0f                	jmp    72ad <_wchar_wcsntoutf8s+0x141>
    729e:	83 7d ec 00          	cmpl   $0x0,0xffffffec(%ebp)
    72a2:	75 09                	jne    72ad <_wchar_wcsntoutf8s+0x141>
    72a4:	c7 45 e8 00 00 00 00 	movl   $0x0,0xffffffe8(%ebp)
    72ab:	eb 28                	jmp    72d5 <_wchar_wcsntoutf8s+0x169>
    72ad:	8d 45 e8             	lea    0xffffffe8(%ebp),%eax
    72b0:	83 00 04             	addl   $0x4,(%eax)
    72b3:	8d 45 14             	lea    0x14(%ebp),%eax
    72b6:	ff 08                	decl   (%eax)
    72b8:	8b 55 f4             	mov    0xfffffff4(%ebp),%edx
    72bb:	8d 45 f0             	lea    0xfffffff0(%ebp),%eax
    72be:	29 10                	sub    %edx,(%eax)
    72c0:	83 7d e4 00          	cmpl   $0x0,0xffffffe4(%ebp)
    72c4:	0f 84 e7 fe ff ff    	je     71b1 <_wchar_wcsntoutf8s+0x45>
    72ca:	8b 45 f4             	mov    0xfffffff4(%ebp),%eax
    72cd:	01 45 08             	add    %eax,0x8(%ebp)
    72d0:	e9 dc fe ff ff       	jmp    71b1 <_wchar_wcsntoutf8s+0x45>
    72d5:	83 7d e4 00          	cmpl   $0x0,0xffffffe4(%ebp)
    72d9:	74 08                	je     72e3 <_wchar_wcsntoutf8s+0x177>
    72db:	8b 55 10             	mov    0x10(%ebp),%edx
    72de:	8b 45 e8             	mov    0xffffffe8(%ebp),%eax
    72e1:	89 02                	mov    %eax,(%edx)
    72e3:	8b 45 f0             	mov    0xfffffff0(%ebp),%eax
    72e6:	8b 55 0c             	mov    0xc(%ebp),%edx
    72e9:	29 c2                	sub    %eax,%edx
    72eb:	89 d0                	mov    %edx,%eax
    72ed:	89 45 c0             	mov    %eax,0xffffffc0(%ebp)
    72f0:	8b 45 c0             	mov    0xffffffc0(%ebp),%eax
    72f3:	c9                   	leave  
    72f4:	c3                   	ret    
    72f5:	90                   	nop    
    72f6:	90                   	nop    
    72f7:	90                   	nop    

000072f8 <__mbsnrtowcs>:
    72f8:	55                   	push   %ebp
    72f9:	89 e5                	mov    %esp,%ebp
    72fb:	53                   	push   %ebx
    72fc:	83 ec 24             	sub    $0x24,%esp
    72ff:	83 7d 18 00          	cmpl   $0x0,0x18(%ebp)
    7303:	75 07                	jne    730c <__mbsnrtowcs+0x14>
    7305:	c7 45 18 a8 af 04 00 	movl   $0x4afa8,0x18(%ebp)
    730c:	a1 e8 83 04 00       	mov    0x483e8,%eax
    7311:	80 b8 2c 09 00 00 01 	cmpb   $0x1,0x92c(%eax)
    7318:	75 3f                	jne    7359 <__mbsnrtowcs+0x61>
    731a:	83 ec 08             	sub    $0x8,%esp
    731d:	6a 01                	push   $0x1
    731f:	ff 75 18             	pushl  0x18(%ebp)
    7322:	ff 75 10             	pushl  0x10(%ebp)
    7325:	ff 75 0c             	pushl  0xc(%ebp)
    7328:	ff 75 14             	pushl  0x14(%ebp)
    732b:	ff 75 08             	pushl  0x8(%ebp)
    732e:	e8 dd fb ff ff       	call   6f10 <_wchar_utf8sntowcs>
    7333:	83 c4 20             	add    $0x20,%esp
    7336:	89 45 e8             	mov    %eax,0xffffffe8(%ebp)
    7339:	83 7d e8 fe          	cmpl   $0xfffffffe,0xffffffe8(%ebp)
    733d:	74 08                	je     7347 <__mbsnrtowcs+0x4f>
    733f:	8b 45 e8             	mov    0xffffffe8(%ebp),%eax
    7342:	89 45 dc             	mov    %eax,0xffffffdc(%ebp)
    7345:	eb 07                	jmp    734e <__mbsnrtowcs+0x56>
    7347:	c7 45 dc 00 00 00 00 	movl   $0x0,0xffffffdc(%ebp)
    734e:	8b 45 dc             	mov    0xffffffdc(%ebp),%eax
    7351:	89 45 e0             	mov    %eax,0xffffffe0(%ebp)
    7354:	e9 94 01 00 00       	jmp    74ed <__mbsnrtowcs+0x1f5>
    7359:	c7 45 ec 01 00 00 00 	movl   $0x1,0xffffffec(%ebp)
    7360:	83 7d 08 00          	cmpl   $0x0,0x8(%ebp)
    7364:	74 0a                	je     7370 <__mbsnrtowcs+0x78>
    7366:	8b 45 08             	mov    0x8(%ebp),%eax
    7369:	3b 45 18             	cmp    0x18(%ebp),%eax
    736c:	74 02                	je     7370 <__mbsnrtowcs+0x78>
    736e:	eb 1a                	jmp    738a <__mbsnrtowcs+0x92>
    7370:	83 7d 08 00          	cmpl   $0x0,0x8(%ebp)
    7374:	75 07                	jne    737d <__mbsnrtowcs+0x85>
    7376:	c7 45 14 ff ff ff ff 	movl   $0xffffffff,0x14(%ebp)
    737d:	8d 45 fa             	lea    0xfffffffa(%ebp),%eax
    7380:	89 45 08             	mov    %eax,0x8(%ebp)
    7383:	c7 45 ec 00 00 00 00 	movl   $0x0,0xffffffec(%ebp)
    738a:	8b 45 14             	mov    0x14(%ebp),%eax
    738d:	3b 45 10             	cmp    0x10(%ebp),%eax
    7390:	76 06                	jbe    7398 <__mbsnrtowcs+0xa0>
    7392:	8b 45 10             	mov    0x10(%ebp),%eax
    7395:	89 45 14             	mov    %eax,0x14(%ebp)
    7398:	8b 45 14             	mov    0x14(%ebp),%eax
    739b:	89 45 f0             	mov    %eax,0xfffffff0(%ebp)
    739e:	8b 45 0c             	mov    0xc(%ebp),%eax
    73a1:	8b 00                	mov    (%eax),%eax
    73a3:	89 45 f4             	mov    %eax,0xfffffff4(%ebp)
    73a6:	a1 e8 83 04 00       	mov    0x483e8,%eax
    73ab:	80 b8 2c 09 00 00 02 	cmpb   $0x2,0x92c(%eax)
    73b2:	0f 85 c1 00 00 00    	jne    7479 <__mbsnrtowcs+0x181>
    73b8:	83 7d f0 00          	cmpl   $0x0,0xfffffff0(%ebp)
    73bc:	75 05                	jne    73c3 <__mbsnrtowcs+0xcb>
    73be:	e9 97 00 00 00       	jmp    745a <__mbsnrtowcs+0x162>
    73c3:	8b 45 f4             	mov    0xfffffff4(%ebp),%eax
    73c6:	66 0f b6 00          	movzbw (%eax),%ax
    73ca:	66 89 45 e6          	mov    %ax,0xffffffe6(%ebp)
    73ce:	66 8b 45 e6          	mov    0xffffffe6(%ebp),%ax
    73d2:	66 83 f8 7f          	cmp    $0x7f,%ax
    73d6:	76 53                	jbe    742b <__mbsnrtowcs+0x133>
    73d8:	8d 45 e6             	lea    0xffffffe6(%ebp),%eax
    73db:	66 83 00 80          	addw   $0xffffff80,(%eax)
    73df:	8b 1d e8 83 04 00    	mov    0x483e8,%ebx
    73e5:	8b 0d e8 83 04 00    	mov    0x483e8,%ecx
    73eb:	66 8b 45 e6          	mov    0xffffffe6(%ebp),%ax
    73ef:	66 c1 e8 03          	shr    $0x3,%ax
    73f3:	0f b7 d0             	movzwl %ax,%edx
    73f6:	8b 81 48 09 00 00    	mov    0x948(%ecx),%eax
    73fc:	0f b6 04 02          	movzbl (%edx,%eax,1),%eax
    7400:	8d 14 c5 00 00 00 00 	lea    0x0(,%eax,8),%edx
    7407:	0f b7 45 e6          	movzwl 0xffffffe6(%ebp),%eax
    740b:	83 e0 07             	and    $0x7,%eax
    740e:	8d 04 10             	lea    (%eax,%edx,1),%eax
    7411:	8d 14 00             	lea    (%eax,%eax,1),%edx
    7414:	8b 83 4c 09 00 00    	mov    0x94c(%ebx),%eax
    741a:	66 8b 04 10          	mov    (%eax,%edx,1),%ax
    741e:	66 89 45 e6          	mov    %ax,0xffffffe6(%ebp)
    7422:	66 83 7d e6 00       	cmpw   $0x0,0xffffffe6(%ebp)
    7427:	75 02                	jne    742b <__mbsnrtowcs+0x133>
    7429:	eb 7e                	jmp    74a9 <__mbsnrtowcs+0x1b1>
    742b:	8b 55 08             	mov    0x8(%ebp),%edx
    742e:	66 8b 45 e6          	mov    0xffffffe6(%ebp),%ax
    7432:	66 89 02             	mov    %ax,(%edx)
    7435:	66 85 c0             	test   %ax,%ax
    7438:	75 09                	jne    7443 <__mbsnrtowcs+0x14b>
    743a:	c7 45 f4 00 00 00 00 	movl   $0x0,0xfffffff4(%ebp)
    7441:	eb 17                	jmp    745a <__mbsnrtowcs+0x162>
    7443:	8b 45 ec             	mov    0xffffffec(%ebp),%eax
    7446:	d1 e0                	shl    %eax
    7448:	01 45 08             	add    %eax,0x8(%ebp)
    744b:	8d 45 f4             	lea    0xfffffff4(%ebp),%eax
    744e:	ff 00                	incl   (%eax)
    7450:	8d 45 f0             	lea    0xfffffff0(%ebp),%eax
    7453:	ff 08                	decl   (%eax)
    7455:	e9 5e ff ff ff       	jmp    73b8 <__mbsnrtowcs+0xc0>
    745a:	8d 45 fa             	lea    0xfffffffa(%ebp),%eax
    745d:	39 45 08             	cmp    %eax,0x8(%ebp)
    7460:	74 08                	je     746a <__mbsnrtowcs+0x172>
    7462:	8b 55 0c             	mov    0xc(%ebp),%edx
    7465:	8b 45 f4             	mov    0xfffffff4(%ebp),%eax
    7468:	89 02                	mov    %eax,(%edx)
    746a:	8b 45 f0             	mov    0xfffffff0(%ebp),%eax
    746d:	8b 55 14             	mov    0x14(%ebp),%edx
    7470:	29 c2                	sub    %eax,%edx
    7472:	89 d0                	mov    %edx,%eax
    7474:	89 45 e0             	mov    %eax,0xffffffe0(%ebp)
    7477:	eb 74                	jmp    74ed <__mbsnrtowcs+0x1f5>
    7479:	90                   	nop    
    747a:	83 7d f0 00          	cmpl   $0x0,0xfffffff0(%ebp)
    747e:	75 02                	jne    7482 <__mbsnrtowcs+0x18a>
    7480:	eb 4e                	jmp    74d0 <__mbsnrtowcs+0x1d8>
    7482:	8b 55 08             	mov    0x8(%ebp),%edx
    7485:	8b 45 f4             	mov    0xfffffff4(%ebp),%eax
    7488:	66 0f b6 00          	movzbw (%eax),%ax
    748c:	66 89 02             	mov    %ax,(%edx)
    748f:	66 8b 02             	mov    (%edx),%ax
    7492:	66 85 c0             	test   %ax,%ax
    7495:	75 09                	jne    74a0 <__mbsnrtowcs+0x1a8>
    7497:	c7 45 f4 00 00 00 00 	movl   $0x0,0xfffffff4(%ebp)
    749e:	eb 30                	jmp    74d0 <__mbsnrtowcs+0x1d8>
    74a0:	8b 45 08             	mov    0x8(%ebp),%eax
    74a3:	66 83 38 7f          	cmpw   $0x7f,(%eax)
    74a7:	76 13                	jbe    74bc <__mbsnrtowcs+0x1c4>
    74a9:	c7 05 24 84 04 00 54 	movl   $0x54,0x48424
    74b0:	00 00 00 
    74b3:	c7 45 e0 ff ff ff ff 	movl   $0xffffffff,0xffffffe0(%ebp)
    74ba:	eb 31                	jmp    74ed <__mbsnrtowcs+0x1f5>
    74bc:	8d 45 f4             	lea    0xfffffff4(%ebp),%eax
    74bf:	ff 00                	incl   (%eax)
    74c1:	8b 45 ec             	mov    0xffffffec(%ebp),%eax
    74c4:	d1 e0                	shl    %eax
    74c6:	01 45 08             	add    %eax,0x8(%ebp)
    74c9:	8d 45 f0             	lea    0xfffffff0(%ebp),%eax
    74cc:	ff 08                	decl   (%eax)
    74ce:	eb aa                	jmp    747a <__mbsnrtowcs+0x182>
    74d0:	8d 45 fa             	lea    0xfffffffa(%ebp),%eax
    74d3:	39 45 08             	cmp    %eax,0x8(%ebp)
    74d6:	74 08                	je     74e0 <__mbsnrtowcs+0x1e8>
    74d8:	8b 55 0c             	mov    0xc(%ebp),%edx
    74db:	8b 45 f4             	mov    0xfffffff4(%ebp),%eax
    74de:	89 02                	mov    %eax,(%edx)
    74e0:	8b 45 f0             	mov    0xfffffff0(%ebp),%eax
    74e3:	8b 55 14             	mov    0x14(%ebp),%edx
    74e6:	29 c2                	sub    %eax,%edx
    74e8:	89 d0                	mov    %edx,%eax
    74ea:	89 45 e0             	mov    %eax,0xffffffe0(%ebp)
    74ed:	8b 45 e0             	mov    0xffffffe0(%ebp),%eax
    74f0:	8b 5d fc             	mov    0xfffffffc(%ebp),%ebx
    74f3:	c9                   	leave  
    74f4:	c3                   	ret    
    74f5:	90                   	nop    
    74f6:	90                   	nop    
    74f7:	90                   	nop    

000074f8 <__tolower_l>:
    74f8:	55                   	push   %ebp
    74f9:	89 e5                	mov    %esp,%ebp
    74fb:	83 ec 04             	sub    $0x4,%esp
    74fe:	8b 45 08             	mov    0x8(%ebp),%eax
    7501:	83 e8 80             	sub    $0xffffff80,%eax
    7504:	3d 7f 01 00 00       	cmp    $0x17f,%eax
    7509:	77 15                	ja     7520 <__tolower_l+0x28>
    750b:	8b 4d 0c             	mov    0xc(%ebp),%ecx
    750e:	8b 45 08             	mov    0x8(%ebp),%eax
    7511:	8d 14 00             	lea    (%eax,%eax,1),%edx
    7514:	8b 41 04             	mov    0x4(%ecx),%eax
    7517:	0f bf 14 10          	movswl (%eax,%edx,1),%edx
    751b:	89 55 fc             	mov    %edx,0xfffffffc(%ebp)
    751e:	eb 06                	jmp    7526 <__tolower_l+0x2e>
    7520:	8b 45 08             	mov    0x8(%ebp),%eax
    7523:	89 45 fc             	mov    %eax,0xfffffffc(%ebp)
    7526:	8b 45 fc             	mov    0xfffffffc(%ebp),%eax
    7529:	c9                   	leave  
    752a:	c3                   	ret    
    752b:	90                   	nop    

0000752c <__ctype_b_loc>:
    752c:	55                   	push   %ebp
    752d:	89 e5                	mov    %esp,%ebp
    752f:	a1 e8 83 04 00       	mov    0x483e8,%eax
    7534:	c9                   	leave  
    7535:	c3                   	ret    
    7536:	90                   	nop    
    7537:	90                   	nop    

00007538 <fseek>:
    7538:	55                   	push   %ebp
    7539:	89 e5                	mov    %esp,%ebp
    753b:	83 ec 18             	sub    $0x18,%esp
    753e:	83 7d 10 02          	cmpl   $0x2,0x10(%ebp)
    7542:	76 16                	jbe    755a <fseek+0x22>
    7544:	c7 05 24 84 04 00 16 	movl   $0x16,0x48424
    754b:	00 00 00 
    754e:	c7 45 f4 ff ff ff ff 	movl   $0xffffffff,0xfffffff4(%ebp)
    7555:	e9 a0 00 00 00       	jmp    75fa <fseek+0xc2>
    755a:	c7 45 f8 ff ff ff ff 	movl   $0xffffffff,0xfffffff8(%ebp)
    7561:	8b 45 0c             	mov    0xc(%ebp),%eax
    7564:	89 45 fc             	mov    %eax,0xfffffffc(%ebp)
    7567:	8b 55 08             	mov    0x8(%ebp),%edx
    756a:	0f b7 02             	movzwl (%edx),%eax
    756d:	25 00 20 00 00       	and    $0x2000,%eax
    7572:	85 c0                	test   %eax,%eax
    7574:	74 12                	je     7588 <fseek+0x50>
    7576:	83 ec 0c             	sub    $0xc,%esp
    7579:	ff 75 08             	pushl  0x8(%ebp)
    757c:	e8 9f e1 ff ff       	call   5720 <fflush>
    7581:	83 c4 10             	add    $0x10,%esp
    7584:	85 c0                	test   %eax,%eax
    7586:	75 6c                	jne    75f4 <fseek+0xbc>
    7588:	83 7d 10 01          	cmpl   $0x1,0x10(%ebp)
    758c:	75 16                	jne    75a4 <fseek+0x6c>
    758e:	83 ec 08             	sub    $0x8,%esp
    7591:	8d 45 fc             	lea    0xfffffffc(%ebp),%eax
    7594:	50                   	push   %eax
    7595:	ff 75 08             	pushl  0x8(%ebp)
    7598:	e8 63 00 00 00       	call   7600 <_stdio_adjpos>
    759d:	83 c4 10             	add    $0x10,%esp
    75a0:	85 c0                	test   %eax,%eax
    75a2:	78 50                	js     75f4 <fseek+0xbc>
    75a4:	83 ec 04             	sub    $0x4,%esp
    75a7:	ff 75 10             	pushl  0x10(%ebp)
    75aa:	8d 45 fc             	lea    0xfffffffc(%ebp),%eax
    75ad:	50                   	push   %eax
    75ae:	ff 75 08             	pushl  0x8(%ebp)
    75b1:	e8 c6 e6 ff ff       	call   5c7c <_stdio_lseek>
    75b6:	83 c4 10             	add    $0x10,%esp
    75b9:	85 c0                	test   %eax,%eax
    75bb:	78 37                	js     75f4 <fseek+0xbc>
    75bd:	8b 55 08             	mov    0x8(%ebp),%edx
    75c0:	8b 42 10             	mov    0x10(%edx),%eax
    75c3:	8b 55 08             	mov    0x8(%ebp),%edx
    75c6:	89 42 1c             	mov    %eax,0x1c(%edx)
    75c9:	8b 55 08             	mov    0x8(%ebp),%edx
    75cc:	89 42 18             	mov    %eax,0x18(%edx)
    75cf:	8b 55 08             	mov    0x8(%ebp),%edx
    75d2:	89 42 20             	mov    %eax,0x20(%edx)
    75d5:	8b 45 08             	mov    0x8(%ebp),%eax
    75d8:	66 81 20 f8 cf       	andw   $0xcff8,(%eax)
    75dd:	8b 55 08             	mov    0x8(%ebp),%edx
    75e0:	c6 42 02 00          	movb   $0x0,0x2(%edx)
    75e4:	8b 45 08             	mov    0x8(%ebp),%eax
    75e7:	66 c7 40 28 00 00    	movw   $0x0,0x28(%eax)
    75ed:	c7 45 f8 00 00 00 00 	movl   $0x0,0xfffffff8(%ebp)
    75f4:	8b 45 f8             	mov    0xfffffff8(%ebp),%eax
    75f7:	89 45 f4             	mov    %eax,0xfffffff4(%ebp)
    75fa:	8b 45 f4             	mov    0xfffffff4(%ebp),%eax
    75fd:	c9                   	leave  
    75fe:	c3                   	ret    
    75ff:	90                   	nop    

00007600 <_stdio_adjpos>:
    7600:	55                   	push   %ebp
    7601:	89 e5                	mov    %esp,%ebp
    7603:	83 ec 10             	sub    $0x10,%esp
    7606:	8b 55 08             	mov    0x8(%ebp),%edx
    7609:	0f b7 02             	movzwl (%edx),%eax
    760c:	83 e0 03             	and    $0x3,%eax
    760f:	89 45 f8             	mov    %eax,0xfffffff8(%ebp)
    7612:	83 7d f8 00          	cmpl   $0x0,0xfffffff8(%ebp)
    7616:	74 66                	je     767e <_stdio_adjpos+0x7e>
    7618:	8b 4d 08             	mov    0x8(%ebp),%ecx
    761b:	0f b7 01             	movzwl (%ecx),%eax
    761e:	25 00 08 00 00       	and    $0x800,%eax
    7623:	85 c0                	test   %eax,%eax
    7625:	74 57                	je     767e <_stdio_adjpos+0x7e>
    7627:	8b 55 08             	mov    0x8(%ebp),%edx
    762a:	0f b7 02             	movzwl (%edx),%eax
    762d:	83 e0 03             	and    $0x3,%eax
    7630:	83 f8 01             	cmp    $0x1,%eax
    7633:	7f 0c                	jg     7641 <_stdio_adjpos+0x41>
    7635:	8b 4d 08             	mov    0x8(%ebp),%ecx
    7638:	66 83 79 06 00       	cmpw   $0x0,0x6(%ecx)
    763d:	75 02                	jne    7641 <_stdio_adjpos+0x41>
    763f:	eb 0c                	jmp    764d <_stdio_adjpos+0x4d>
    7641:	c7 45 f4 ff ff ff ff 	movl   $0xffffffff,0xfffffff4(%ebp)
    7648:	e9 a9 00 00 00       	jmp    76f6 <_stdio_adjpos+0xf6>
    764d:	8b 55 08             	mov    0x8(%ebp),%edx
    7650:	0f b7 02             	movzwl (%edx),%eax
    7653:	83 e0 03             	and    $0x3,%eax
    7656:	85 c0                	test   %eax,%eax
    7658:	74 0e                	je     7668 <_stdio_adjpos+0x68>
    765a:	8b 4d 08             	mov    0x8(%ebp),%ecx
    765d:	0f b6 41 03          	movzbl 0x3(%ecx),%eax
    7661:	03 45 f8             	add    0xfffffff8(%ebp),%eax
    7664:	48                   	dec    %eax
    7665:	89 45 f8             	mov    %eax,0xfffffff8(%ebp)
    7668:	8b 45 08             	mov    0x8(%ebp),%eax
    766b:	66 83 78 28 00       	cmpw   $0x0,0x28(%eax)
    7670:	74 0c                	je     767e <_stdio_adjpos+0x7e>
    7672:	8b 4d 08             	mov    0x8(%ebp),%ecx
    7675:	0f b6 51 02          	movzbl 0x2(%ecx),%edx
    7679:	8d 45 f8             	lea    0xfffffff8(%ebp),%eax
    767c:	29 10                	sub    %edx,(%eax)
    767e:	8b 55 08             	mov    0x8(%ebp),%edx
    7681:	0f b7 02             	movzwl (%edx),%eax
    7684:	25 00 20 00 00       	and    $0x2000,%eax
    7689:	85 c0                	test   %eax,%eax
    768b:	74 15                	je     76a2 <_stdio_adjpos+0xa2>
    768d:	8b 4d 08             	mov    0x8(%ebp),%ecx
    7690:	8b 51 10             	mov    0x10(%ecx),%edx
    7693:	8b 4d 08             	mov    0x8(%ebp),%ecx
    7696:	8b 41 18             	mov    0x18(%ecx),%eax
    7699:	29 d0                	sub    %edx,%eax
    769b:	89 c2                	mov    %eax,%edx
    769d:	8d 45 f8             	lea    0xfffffff8(%ebp),%eax
    76a0:	29 10                	sub    %edx,(%eax)
    76a2:	8b 55 08             	mov    0x8(%ebp),%edx
    76a5:	0f b7 02             	movzwl (%edx),%eax
    76a8:	25 00 10 00 00       	and    $0x1000,%eax
    76ad:	85 c0                	test   %eax,%eax
    76af:	74 15                	je     76c6 <_stdio_adjpos+0xc6>
    76b1:	8b 4d 08             	mov    0x8(%ebp),%ecx
    76b4:	8b 51 18             	mov    0x18(%ecx),%edx
    76b7:	8b 4d 08             	mov    0x8(%ebp),%ecx
    76ba:	8b 41 1c             	mov    0x1c(%ecx),%eax
    76bd:	29 d0                	sub    %edx,%eax
    76bf:	89 c2                	mov    %eax,%edx
    76c1:	8d 45 f8             	lea    0xfffffff8(%ebp),%eax
    76c4:	01 10                	add    %edx,(%eax)
    76c6:	8b 55 0c             	mov    0xc(%ebp),%edx
    76c9:	8b 02                	mov    (%edx),%eax
    76cb:	89 45 fc             	mov    %eax,0xfffffffc(%ebp)
    76ce:	8b 45 f8             	mov    0xfffffff8(%ebp),%eax
    76d1:	8b 4d 0c             	mov    0xc(%ebp),%ecx
    76d4:	29 01                	sub    %eax,(%ecx)
    76d6:	8b 55 0c             	mov    0xc(%ebp),%edx
    76d9:	8b 02                	mov    (%edx),%eax
    76db:	3b 45 fc             	cmp    0xfffffffc(%ebp),%eax
    76de:	7e 0a                	jle    76ea <_stdio_adjpos+0xea>
    76e0:	8b 45 f8             	mov    0xfffffff8(%ebp),%eax
    76e3:	f7 d8                	neg    %eax
    76e5:	89 45 f0             	mov    %eax,0xfffffff0(%ebp)
    76e8:	eb 06                	jmp    76f0 <_stdio_adjpos+0xf0>
    76ea:	8b 4d f8             	mov    0xfffffff8(%ebp),%ecx
    76ed:	89 4d f0             	mov    %ecx,0xfffffff0(%ebp)
    76f0:	8b 45 f0             	mov    0xfffffff0(%ebp),%eax
    76f3:	89 45 f4             	mov    %eax,0xfffffff4(%ebp)
    76f6:	8b 45 f4             	mov    0xfffffff4(%ebp),%eax
    76f9:	c9                   	leave  
    76fa:	c3                   	ret    
